Microchip MPLAB XC8 Compiler V2.36

Linker command line:

-W-3 --edf=C:\Program Files\Microchip\xc8\v2.36\pic\dat\en_msgs.txt -cn \
  -h+dist/default/debug\MC50UNI.V.0.2.3.X.debug.sym \
  --cmf=dist/default/debug\MC50UNI.V.0.2.3.X.debug.cmf -z -Q18F46K40 \
  -oC:\Users\RAFAEL~1\AppData\Local\Temp\xcAsamg.4 --defsym=__MPLAB_BUILD=1 \
  -Mdist/default/debug/MC50UNI.V.0.2.3.X.debug.map \
  --md=C:\Users\RAFAEL~1\AppData\Local\Temp\xcAsamg.dat -E1 \
  -ver=XC8 Compiler --acfsm=1493 -ACODE=00h-0FFFFh -ACONST=00h-0FFFFh \
  -ASMALLCONST=0F00h-0FFFhx241 -AMEDIUMCONST=0F00h-0FFFFh -ACOMRAM=01h-05Fh \
  -AABS1=00h-0E87h -ABIGRAM=01h-0E87h \
  -ARAM=060h-0FFh,0100h-01FFhx13,0E00h-0E87h -ABANK0=060h-0FFh \
  -ABANK1=0100h-01FFh -ABANK2=0200h-02FFh -ABANK3=0300h-03FFh \
  -ABANK4=0400h-04FFh -ABANK5=0500h-05FFh -ABANK6=0600h-06FFh \
  -ABANK7=0700h-07FFh -ABANK8=0800h-08FFh -ABANK9=0900h-09FFh \
  -ABANK10=0A00h-0AFFh -ABANK11=0B00h-0BFFh -ABANK12=0C00h-0CFFh \
  -ABANK13=0D00h-0DFFh -ABANK14=0E00h-0E87h \
  -ASFR=0E8Dh-0EFFh,0F00h-0F5Fh,0F60h-0FFFh -ABIGSFR=0E8Dh-0FFFh \
  -ACONFIG=0300000h-030000Bh -AIDLOC=0200000h-020000Fh \
  -AEEDATA=0310000h-03103FFh -peeprom_data=EEDATA \
  -preset_vec=00h,intcode=08h,intcodelo,powerup,init -pramtop=0F00h \
  -psmallconst=SMALLCONST -pmediumconst=MEDIUMCONST -pconst=CONST \
  -AFARRAM=00h-00h \
  -prdata=COMRAM,nvrram=COMRAM,nvbit=COMRAM,rbss=COMRAM,rbit=COMRAM \
  -pfarbss=FARRAM,fardata=FARRAM,nvFARRAM=FARRAM \
  -pintsave_regs=BIGRAM,bigbss=BIGRAM,bigdata=BIGRAM -pbss=RAM \
  -pidata=CODE,irdata=CODE,ibigdata=CODE,ifardata=CODE -prparam=COMRAM \
  C:\Users\RAFAEL~1\AppData\Local\Temp\xcAsamg.o \
  dist/default/debug\MC50UNI.V.0.2.3.X.debug.o 

Object code version is 3.11

Machine type is 18F46K40



                Name                               Link     Load   Length Selector   Space Scale
C:\Users\RAFAEL~1\AppData\Local\Temp\xcAsamg.o
                idloc                            200000   200000       10        0       5
                config                           300000   300000        C        0       4
                init                                 9C       9C        4        4       0
                reset_vec                             0        0        6        0       0
dist/default/debug\MC50UNI.V.0.2.3.X.debug.o
                intcode                               8        8       94        4       0
                idloc                            200000   200000       10        0       5
                config                           300000   300000        C        0       4
                temp                                 50       50        1        1       1
                smallconst                          F00      F00       22      780       0
                text209                            9B12     9B12       22     4D44       0
                text208                            9E88     9E88        6     4D44       0
                text207                            9EC2     9EC2        2     4D44       0
                text206                            9E82     9E82        6     4D44       0
                text205                            7F3E     7F3E       9A      791       0
                text204                            96AE     96AE       32      791       0
                text203                            9EC0     9EC0        2     4D44       0
                text202                            4E50     4E50      276      791       0
                text201                            9A3C     9A3C       26      791       0
                text200                            9EBE     9EBE        2     4D44       0
                text199                            9B88     9B88       1C     4D44       0
                text198                            7B1E     7B1E       C6      791       0
                text197                            883A     883A       78      791       0
                text196                            5564     5564      222      791       0
                text195                            9528     9528       40      791       0
                text194                            9CCA     9CCA       16     4D44       0
                text193                            908E     908E       56      791       0
                text192                            9EBC     9EBC        2     4D44       0
                text191                            9978     9978       2A      791       0
                text190                            6402     6402      19A      791       0
                text189                            9D84     9D84        C     4D44       0
                text188                            83BE     83BE       86      791       0
                text187                            6BB8     6BB8      14E      791       0
                text185                            9E7C     9E7C        6     4D44       0
                text184                            9EB6     9EB6        4     4D44       0
                text183                            9EB2     9EB2        4     4D44       0
                text182                            9AF0     9AF0       22     4D44       0
                text181                            9EAE     9EAE        4     4D44       0
                text180                            9EAA     9EAA        4     4D44       0
                text179                            9EA6     9EA6        4     4D44       0
                text178                            9C0C     9C0C       1A     4D44       0
                text177                            8B5A     8B5A       6E      791       0
                text176                            9C86     9C86       18     4D44       0
                text175                            9922     9922       2C      791       0
                text174                            98F6     98F6       2C      791       0
                text173                            98CA     98CA       2C      791       0
                text172                            989E     989E       2C      791       0
                text171                            9872     9872       2C      791       0
                text170                            94E8     94E8       40      791       0
                text169                            9846     9846       2C      791       0
                text168                            981A     981A       2C      791       0
                text167                            97EE     97EE       2C      791       0
                text166                            94A8     94A8       40      791       0
                text165                            9EA2     9EA2        4     4D44       0
                text164                            9E9E     9E9E        4     4D44       0
                text163                            9E9A     9E9A        4     4D44       0
                text162                            9E76     9E76        6     4D44       0
                text161                            9E96     9E96        4     4D44       0
                text160                            9E70     9E70        6     4D44       0
                text159                            9E50     9E50        8     4D44       0
                text158                            9D78     9D78        C     4D44       0
                text157                            9E6A     9E6A        6     4D44       0
                text156                            8D64     8D64       5E      791       0
                text155                            9DFE     9DFE        A     4D44       0
                text154                            9D6A     9D6A        E     4D44       0
                text153                            9D5C     9D5C        E     4D44       0
                text152                            82AA     82AA       8C      791       0
                text151                            8748     8748       7A      791       0
                text150                            9DF4     9DF4        A     4D44       0
                text149                            9E48     9E48        8     4D44       0
                text148                            9E40     9E40        8     4D44       0
                text147                            9E38     9E38        8     4D44       0
                text146                            9E30     9E30        8     4D44       0
                text145                            9E28     9E28        8     4D44       0
                text144                            9E20     9E20        8     4D44       0
                text143                            9E18     9E18        8     4D44       0
                text142                            9DEA     9DEA        A     4D44       0
                text141                            9278     9278       4E      791       0
                text140                            90E4     90E4       54      791       0
                text139                            9E10     9E10        8     4D44       0
                text138                            9D3E     9D3E       10     4D44       0
                text137                            97C2     97C2       2C      791       0
                text136                            9E08     9E08        8     4D44       0
                text135                            9C6E     9C6E       18     4D44       0
                text134                            84C8     84C8       84      791       0
                text133                            9C56     9C56       18     4D44       0
                text132                            93E2     93E2       44      791       0
                text131                            8928     8928       74      791       0
                text130                            95DE     95DE       38      791       0
                text129                            8F30     8F30       5A      791       0
                text128                            7A58     7A58       C6      791       0
                text127                            9A16     9A16       26      791       0
                text126                            6268     6268      19A      791       0
                text125                            9138     9138       52      791       0
                text124                            74D4     74D4       FE      791       0
                text123                            99A2     99A2       28      791       0
                text122                            821E     821E       8C      791       0
                text121                            76CE     76CE       FA      791       0
                text120                            9358     9358       46      791       0
                text119                            6A44     6A44      174      791       0
                text118                            708A     708A      124      791       0
                text117                            9568     9568       3C      791       0
                text116                            9D4E     9D4E        E     4D44       0
                text115                            8102     8102       90      791       0
                text114                            45AA     45AA      324      791       0
                text113                            87C2     87C2       78      791       0
                text112                            531A     531A      24A      791       0
                text111                            9D2E     9D2E       10     4D44       0
                text110                            91DA     91DA       50      791       0
                text109                            9DE0     9DE0        A     4D44       0
                text108                            9DD6     9DD6        A     4D44       0
                text107                            9DCC     9DCC        A     4D44       0
                text106                            9DC2     9DC2        A     4D44       0
                text105                            9DB8     9DB8        A     4D44       0
                text104                            864E     864E       7E      791       0
                text103                            9D08     9D08       14     4D44       0
                text102                            9E92     9E92        4     4D44       0
                text101                            9CB4     9CB4       16     4D44       0
                text100                            7FD8     7FD8       98      791       0
                text99                             9B6C     9B6C       1C     4D44       0
                text98                             9DAE     9DAE        A     4D44       0
                text97                             9ACE     9ACE       22     4D44       0
                text96                             9DA4     9DA4        A     4D44       0
                text95                             9426     9426       42      791       0
                text94                             9D9A     9D9A        A     4D44       0
                text93                             9796     9796       2C      791       0
                text92                             9D90     9D90        A     4D44       0
                text91                             9710     9710       2E      791       0
                text90                             9BF2     9BF2       1A     4D44       0
                text89                             8C9C     8C9C       66      791       0
                text88                             9E8E     9E8E        4     4D44       0
                text87                             9B50     9B50       1C     4D44       0
                text86                             88B2     88B2       76      791       0
                text85                             8A7C     8A7C       70      791       0
                text84                             85CE     85CE       80      791       0
                text83                             8070     8070       92      791       0
                text82                             967C     967C       32      791       0
                text81                             8ED6     8ED6       5A      791       0
                text80                             9468     9468       40      791       0
                text79                             976A     976A       2C      791       0
                text78                             28D8     28D8      5C8      791       0
                text77                             8A0C     8A0C       70      791       0
                text76                             60CC     60CC      19C      791       0
                text75                             2EA0     2EA0      5A4      791       0
                text74                             1886     1886      944      791       0
                text73                             9C3E     9C3E       18     4D44       0
                text72                             8E7A     8E7A       5C      791       0
                text71                             6732     6732      18A      791       0
                text70                             5F2C     5F2C      1A0      791       0
                text69                             6E34     6E34      12E      791       0
                text68                             73CC     73CC      108      791       0
                text67                             8192     8192       8C      791       0
                text66                             964A     964A       32      791       0
                text65                             9C9E     9C9E       16     4D44       0
                text64                             6D06     6D06      12E      791       0
                text63                             8336     8336       88      791       0
                text62                             798C     798C       CC      791       0
                text61                             9AAC     9AAC       22     4D44       0
                text60                             72BE     72BE      10E      791       0
                text59                             8F8A     8F8A       58      791       0
                text58                             9616     9616       34      791       0
                text57                             5B92     5B92      1D2      791       0
                text56                             659C     659C      196      791       0
                text55                             9310     9310       48      791       0
                text54                             918A     918A       50      791       0
                text53                             8BC8     8BC8       6C      791       0
                text52                             9CF4     9CF4       14     4D44       0
                text51                             95A4     95A4       3A      791       0
                text50                             5D64     5D64      1C8      791       0
                text49                             973E     973E       2C      791       0
                text48                             7E98     7E98       A6      791       0
                text47                             9CE0     9CE0       14     4D44       0
                text46                             8E1E     8E1E       5C      791       0
                text45                             9D1C     9D1C       12     4D44       0
                text44                             8DC2     8DC2       5C      791       0
                text43                             8AEC     8AEC       6E      791       0
                text42                             9BD8     9BD8       1A     4D44       0
                text41                             99F0     99F0       26      791       0
                text40                             899C     899C       70      791       0
                text39                             7D48     7D48       AA      791       0
                text38                             7DF2     7DF2       A6      791       0
                text37                             9B34     9B34       1C     4D44       0
                text36                             9038     9038       56      791       0
                text35                             77C8     77C8       E8      791       0
                text34                             6F62     6F62      128      791       0
                text33                             4BC4     4BC4      28C      791       0
                text32                             99CA     99CA       26      791       0
                text31                             9A88     9A88       24     4D44       0
                text30                             59A4     59A4      1EE      791       0
                text29                             9C26     9C26       18     4D44       0
                text28                             92C6     92C6       4A      791       0
                text27                             71AE     71AE      110      791       0
                text26                             5786     5786      21E      791       0
                text25                             78B0     78B0       DC      791       0
                text24                             50C6     50C6      254      791       0
                text23                             8D02     8D02       62      791       0
                text22                             86CC     86CC       7C      791       0
                text21                             939E     939E       44      791       0
                text20                             8FE2     8FE2       56      791       0
                text19                             8C34     8C34       68      791       0
                text18                             21CA     21CA      70E      791       0
                text17                             4260     4260      34A      791       0
                text16                             854C     854C       82      791       0
                text15                             75D2     75D2       FC      791       0
                text14                             96E0     96E0       30      791       0
                text13                             9E64     9E64        6     4D44       0
                text12                             9BBE     9BBE       1A     4D44       0
                text11                             8444     8444       84      791       0
                text10                             994E     994E       2A      791       0
                text9                              7BE4     7BE4       B4      791       0
                text8                              922A     922A       4E      791       0
                text7                              9E5E     9E5E        6     4D44       0
                text6                              3E7E     3E7E      3E2      791       0
                text5                              9BA4     9BA4       1A     4D44       0
                text4                              48CE     48CE      2F6      791       0
                text3                              3444     3444      532      791       0
                text2                               F22      F22      964      791       0
                text1                              3976     3976      508      791       0
                text0                              68BC     68BC      188      791       0
                cstackCOMRAM                          1        1       3A        1       1
                cstackBANK0                          D8       D8       24       60       1
                cstackBANK2                         2ED      2ED        7      200       1
                dataBANK3                           3D2      3D2       25      300       1
                bssBANK3                            300      300       D2      300       1
                dataBANK2                           2F4      2F4        6      200       1
                bssBANK2                            200      200       DB      200       1
                dataBANK1                           1FF      1FF        1      100       1
                bssBANK1                            100      100       FE      100       1
                dataBANK0                            FC       FC        2       60       1
                bssBANK0                             60       60       78       60       1
                bssCOMRAM                            3B       3B       15        1       1
                cinit                              7C98     7C98       B0      791       0
                nvBANK2                             2DB      2DB       12      200       1
                nvBANK1                             1FE      1FE        1      100       1
                idataBANK3                         9A62     9A62       25      791       0
                idataBANK2                         9E58     9E58        6     4D44       0
                idataBANK1                         9EC4     9EC4        1     4D44       0
                idataBANK0                         9EBA     9EBA        2     4D44       0

TOTAL           Name                               Link     Load   Length     Space
        CLASS   CODE           
                intcode                               8        8       94         0
                init                                 9C       9C        4         0
                reset_vec                             0        0        6         0
                text209                            9B12     9B12       22         0
                text208                            9E88     9E88        6         0
                text207                            9EC2     9EC2        2         0
                text206                            9E82     9E82        6         0
                text205                            7F3E     7F3E       9A         0
                text204                            96AE     96AE       32         0
                text203                            9EC0     9EC0        2         0
                text202                            4E50     4E50      276         0
                text201                            9A3C     9A3C       26         0
                text200                            9EBE     9EBE        2         0
                text199                            9B88     9B88       1C         0
                text198                            7B1E     7B1E       C6         0
                text197                            883A     883A       78         0
                text196                            5564     5564      222         0
                text195                            9528     9528       40         0
                text194                            9CCA     9CCA       16         0
                text193                            908E     908E       56         0
                text192                            9EBC     9EBC        2         0
                text191                            9978     9978       2A         0
                text190                            6402     6402      19A         0
                text189                            9D84     9D84        C         0
                text188                            83BE     83BE       86         0
                text187                            6BB8     6BB8      14E         0
                text185                            9E7C     9E7C        6         0
                text184                            9EB6     9EB6        4         0
                text183                            9EB2     9EB2        4         0
                text182                            9AF0     9AF0       22         0
                text181                            9EAE     9EAE        4         0
                text180                            9EAA     9EAA        4         0
                text179                            9EA6     9EA6        4         0
                text178                            9C0C     9C0C       1A         0
                text177                            8B5A     8B5A       6E         0
                text176                            9C86     9C86       18         0
                text175                            9922     9922       2C         0
                text174                            98F6     98F6       2C         0
                text173                            98CA     98CA       2C         0
                text172                            989E     989E       2C         0
                text171                            9872     9872       2C         0
                text170                            94E8     94E8       40         0
                text169                            9846     9846       2C         0
                text168                            981A     981A       2C         0
                text167                            97EE     97EE       2C         0
                text166                            94A8     94A8       40         0
                text165                            9EA2     9EA2        4         0
                text164                            9E9E     9E9E        4         0
                text163                            9E9A     9E9A        4         0
                text162                            9E76     9E76        6         0
                text161                            9E96     9E96        4         0
                text160                            9E70     9E70        6         0
                text159                            9E50     9E50        8         0
                text158                            9D78     9D78        C         0
                text157                            9E6A     9E6A        6         0
                text156                            8D64     8D64       5E         0
                text155                            9DFE     9DFE        A         0
                text154                            9D6A     9D6A        E         0
                text153                            9D5C     9D5C        E         0
                text152                            82AA     82AA       8C         0
                text151                            8748     8748       7A         0
                text150                            9DF4     9DF4        A         0
                text149                            9E48     9E48        8         0
                text148                            9E40     9E40        8         0
                text147                            9E38     9E38        8         0
                text146                            9E30     9E30        8         0
                text145                            9E28     9E28        8         0
                text144                            9E20     9E20        8         0
                text143                            9E18     9E18        8         0
                text142                            9DEA     9DEA        A         0
                text141                            9278     9278       4E         0
                text140                            90E4     90E4       54         0
                text139                            9E10     9E10        8         0
                text138                            9D3E     9D3E       10         0
                text137                            97C2     97C2       2C         0
                text136                            9E08     9E08        8         0
                text135                            9C6E     9C6E       18         0
                text134                            84C8     84C8       84         0
                text133                            9C56     9C56       18         0
                text132                            93E2     93E2       44         0
                text131                            8928     8928       74         0
                text130                            95DE     95DE       38         0
                text129                            8F30     8F30       5A         0
                text128                            7A58     7A58       C6         0
                text127                            9A16     9A16       26         0
                text126                            6268     6268      19A         0
                text125                            9138     9138       52         0
                text124                            74D4     74D4       FE         0
                text123                            99A2     99A2       28         0
                text122                            821E     821E       8C         0
                text121                            76CE     76CE       FA         0
                text120                            9358     9358       46         0
                text119                            6A44     6A44      174         0
                text118                            708A     708A      124         0
                text117                            9568     9568       3C         0
                text116                            9D4E     9D4E        E         0
                text115                            8102     8102       90         0
                text114                            45AA     45AA      324         0
                text113                            87C2     87C2       78         0
                text112                            531A     531A      24A         0
                text111                            9D2E     9D2E       10         0
                text110                            91DA     91DA       50         0
                text109                            9DE0     9DE0        A         0
                text108                            9DD6     9DD6        A         0
                text107                            9DCC     9DCC        A         0
                text106                            9DC2     9DC2        A         0
                text105                            9DB8     9DB8        A         0
                text104                            864E     864E       7E         0
                text103                            9D08     9D08       14         0
                text102                            9E92     9E92        4         0
                text101                            9CB4     9CB4       16         0
                text100                            7FD8     7FD8       98         0
                text99                             9B6C     9B6C       1C         0
                text98                             9DAE     9DAE        A         0
                text97                             9ACE     9ACE       22         0
                text96                             9DA4     9DA4        A         0
                text95                             9426     9426       42         0
                text94                             9D9A     9D9A        A         0
                text93                             9796     9796       2C         0
                text92                             9D90     9D90        A         0
                text91                             9710     9710       2E         0
                text90                             9BF2     9BF2       1A         0
                text89                             8C9C     8C9C       66         0
                text88                             9E8E     9E8E        4         0
                text87                             9B50     9B50       1C         0
                text86                             88B2     88B2       76         0
                text85                             8A7C     8A7C       70         0
                text84                             85CE     85CE       80         0
                text83                             8070     8070       92         0
                text82                             967C     967C       32         0
                text81                             8ED6     8ED6       5A         0
                text80                             9468     9468       40         0
                text79                             976A     976A       2C         0
                text78                             28D8     28D8      5C8         0
                text77                             8A0C     8A0C       70         0
                text76                             60CC     60CC      19C         0
                text75                             2EA0     2EA0      5A4         0
                text74                             1886     1886      944         0
                text73                             9C3E     9C3E       18         0
                text72                             8E7A     8E7A       5C         0
                text71                             6732     6732      18A         0
                text70                             5F2C     5F2C      1A0         0
                text69                             6E34     6E34      12E         0
                text68                             73CC     73CC      108         0
                text67                             8192     8192       8C         0
                text66                             964A     964A       32         0
                text65                             9C9E     9C9E       16         0
                text64                             6D06     6D06      12E         0
                text63                             8336     8336       88         0
                text62                             798C     798C       CC         0
                text61                             9AAC     9AAC       22         0
                text60                             72BE     72BE      10E         0
                text59                             8F8A     8F8A       58         0
                text58                             9616     9616       34         0
                text57                             5B92     5B92      1D2         0
                text56                             659C     659C      196         0
                text55                             9310     9310       48         0
                text54                             918A     918A       50         0
                text53                             8BC8     8BC8       6C         0
                text52                             9CF4     9CF4       14         0
                text51                             95A4     95A4       3A         0
                text50                             5D64     5D64      1C8         0
                text49                             973E     973E       2C         0
                text48                             7E98     7E98       A6         0
                text47                             9CE0     9CE0       14         0
                text46                             8E1E     8E1E       5C         0
                text45                             9D1C     9D1C       12         0
                text44                             8DC2     8DC2       5C         0
                text43                             8AEC     8AEC       6E         0
                text42                             9BD8     9BD8       1A         0
                text41                             99F0     99F0       26         0
                text40                             899C     899C       70         0
                text39                             7D48     7D48       AA         0
                text38                             7DF2     7DF2       A6         0
                text37                             9B34     9B34       1C         0
                text36                             9038     9038       56         0
                text35                             77C8     77C8       E8         0
                text34                             6F62     6F62      128         0
                text33                             4BC4     4BC4      28C         0
                text32                             99CA     99CA       26         0
                text31                             9A88     9A88       24         0
                text30                             59A4     59A4      1EE         0
                text29                             9C26     9C26       18         0
                text28                             92C6     92C6       4A         0
                text27                             71AE     71AE      110         0
                text26                             5786     5786      21E         0
                text25                             78B0     78B0       DC         0
                text24                             50C6     50C6      254         0
                text23                             8D02     8D02       62         0
                text22                             86CC     86CC       7C         0
                text21                             939E     939E       44         0
                text20                             8FE2     8FE2       56         0
                text19                             8C34     8C34       68         0
                text18                             21CA     21CA      70E         0
                text17                             4260     4260      34A         0
                text16                             854C     854C       82         0
                text15                             75D2     75D2       FC         0
                text14                             96E0     96E0       30         0
                text13                             9E64     9E64        6         0
                text12                             9BBE     9BBE       1A         0
                text11                             8444     8444       84         0
                text10                             994E     994E       2A         0
                text9                              7BE4     7BE4       B4         0
                text8                              922A     922A       4E         0
                text7                              9E5E     9E5E        6         0
                text6                              3E7E     3E7E      3E2         0
                text5                              9BA4     9BA4       1A         0
                text4                              48CE     48CE      2F6         0
                text3                              3444     3444      532         0
                text2                               F22      F22      964         0
                text1                              3976     3976      508         0
                text0                              68BC     68BC      188         0
                cinit                              7C98     7C98       B0         0
                idataBANK3                         9A62     9A62       25         0
                idataBANK2                         9E58     9E58        6         0
                idataBANK1                         9EC4     9EC4        1         0
                idataBANK0                         9EBA     9EBA        2         0

        CLASS   CONST          

        CLASS   SMALLCONST     
                smallconst                          F00      F00       22         0

        CLASS   MEDIUMCONST    

        CLASS   COMRAM         
                temp                                 50       50        1         1
                cstackCOMRAM                          1        1       3A         1
                bssCOMRAM                            3B       3B       15         1

        CLASS   ABS1           

        CLASS   BIGRAM         

        CLASS   RAM            

        CLASS   BANK0          
                cstackBANK0                          D8       D8       24         1
                dataBANK0                            FC       FC        2         1
                bssBANK0                             60       60       78         1

        CLASS   BANK1          
                dataBANK1                           1FF      1FF        1         1
                bssBANK1                            100      100       FE         1
                nvBANK1                             1FE      1FE        1         1

        CLASS   BANK2          
                cstackBANK2                         2ED      2ED        7         1
                dataBANK2                           2F4      2F4        6         1
                bssBANK2                            200      200       DB         1
                nvBANK2                             2DB      2DB       12         1

        CLASS   BANK3          
                dataBANK3                           3D2      3D2       25         1
                bssBANK3                            300      300       D2         1

        CLASS   BANK4          

        CLASS   BANK5          

        CLASS   BANK6          

        CLASS   BANK7          

        CLASS   BANK8          

        CLASS   BANK9          

        CLASS   BANK10         

        CLASS   BANK11         

        CLASS   BANK12         

        CLASS   BANK13         

        CLASS   BANK14         

        CLASS   SFR            

        CLASS   BIGSFR         

        CLASS   CONFIG         
                config                           300000   300000        C         4

        CLASS   IDLOC          
                idloc                            200000   200000       10         5

        CLASS   EEDATA         

        CLASS   FARRAM         

        CLASS   HEAP           

        CLASS   STACK          



SEGMENTS        Name                           Load    Length   Top    Selector   Space  Class

                reset_vec                      000000  000006  000006         0       0  CODE    
                cstackCOMRAM                   000001  000050  000051         1       1  COMRAM  
                intcode                        000008  000098  0000A0         4       0  CODE    
                bssBANK0                       000060  00009E  0000FE        60       1  BANK0   
                bssBANK1                       000100  000100  000200       100       1  BANK1   
                bssBANK2                       000200  0000FA  0002FA       200       1  BANK2   
                bssBANK3                       000300  0000F7  0003F7       300       1  BANK3   
                smallconst                     000F00  000022  000F22       780       0  SMALLCON
                text2                          000F22  008B65  009A87       791       0  CODE    
                text31                         009A88  00043D  009EC5      4D44       0  CODE    


UNUSED ADDRESS RANGES

        Name                Unused          Largest block    Delta
        BANK0            0000FE-0000FF                2
        BANK10           000A00-000AFF              100
        BANK11           000B00-000BFF              100
        BANK12           000C00-000CFF              100
        BANK13           000D00-000DFF              100
        BANK14           000E00-000E87               88
        BANK2            0002FA-0002FF                6
        BANK3            0003F7-0003FF                9
        BANK4            000400-0004FF              100
        BANK5            000500-0005FF              100
        BANK6            000600-0006FF              100
        BANK7            000700-0007FF              100
        BANK8            000800-0008FF              100
        BANK9            000900-0009FF              100
        BIGRAM           000051-00005F                F
                         0000FE-0000FF                2
                         0002FA-0002FF                6
                         0003F7-000E87              A91
        BIGSFR           000E8D-000FFF              173
        CODE             000006-000007                2
                         0000A0-000EFF              E60
                         009A87-009A87                1
                         009EC5-00FFFF             613B
        COMRAM           000051-00005F                F
        CONST            000006-000007                2
                         0000A0-000EFF              E60
                         009A87-009A87                1
                         009EC5-00FFFF             613B
        EEDATA           310000-3103FF              400
        MEDIUMCONST      009A87-009A87                1
                         009EC5-00FFFF             613B
        RAM              0000FE-0000FF                2
                         0002FA-0002FF                6
                         0003F7-000E87              100
        SFR              000E8D-000FFF               73
        SMALLCONST       009A87-009A87                1
                         009EC5-00FFFF              100

                                  Symbol Table

?___awdiv                                                 cstackCOMRAM 000014
?___lldiv                                                 cstackCOMRAM 000010
?___lmul                                                  cstackCOMRAM 00001D
?___lwdiv                                                 cstackCOMRAM 000010
?___wmul                                                  cstackCOMRAM 000010
?_calculateMean                                           cstackCOMRAM 000010
?_getCurrentComparator                                    cstackCOMRAM 000016
?_getHopCode                                              cstackCOMRAM 000016
?_getTimeDecelaration                                     cstackCOMRAM 000029
?_read_package                                            cstackCOMRAM 000011
?_sm_get_current_state                                    cstackCOMRAM 000010
?_sumEnergyADC                                            cstackCOMRAM 000010
?_sumHIST                                                 cstackCOMRAM 000010
ADCC_GetSingleConversion@channel                          cstackCOMRAM 000001
ControlMotor@stateMotor                                   cstackCOMRAM 000018
DecCHK@data                                               cstackCOMRAM 000010
Decrypt@Buffer                                            cstackCOMRAM 000022
Decrypt@aux                                               cstackCOMRAM 000021
Decrypt@i                                                 cstackCOMRAM 00001E
Decrypt@j                                                 cstackCOMRAM 00001F
Decrypt@key                                               cstackCOMRAM 00001D
Decrypt@p                                                 cstackCOMRAM 000020
Decrypt@packet                                            cstackCOMRAM 00001B
DecryptPacket_12BIT@classic_data                          cstackBANK0  0000E2
DecryptPacket_12BIT@commandType                           cstackBANK0  0000E4
DecryptPacket_12BIT@data                                  cstackBANK0  0000E0
EUSART1_Read@readValue                                    cstackCOMRAM 000010
EUSART1_SetErrorHandler@interruptHandler                  cstackCOMRAM 000010
EUSART1_SetFramingErrorHandler@interruptHandler           cstackCOMRAM 000010
EUSART1_SetOverrunErrorHandler@interruptHandler           cstackCOMRAM 000010
EUSART1_SetRxInterruptHandler@interruptHandler            cstackCOMRAM 000010
EUSART1_SetTxInterruptHandler@interruptHandler            cstackCOMRAM 000010
EUSART1_Write@txData                                      cstackCOMRAM 000010
GetMotorPower@defineatraso                                cstackCOMRAM 000013
HopCHK@data                                               cstackCOMRAM 000024
HopCHK@hopDiff                                            cstackCOMRAM 000026
I2C1_CallbackReturnReset@funPtr                           cstackCOMRAM 000019
I2C1_Close@returnValue                                    cstackCOMRAM 000010
I2C1_MasterOperation@read                                 cstackCOMRAM 000020
I2C1_MasterOperation@returnValue                          cstackCOMRAM 000021
I2C1_MasterSendTxData@data                                cstackCOMRAM 000010
I2C1_Open@address                                         cstackCOMRAM 000010
I2C1_Open@returnValue                                     cstackCOMRAM 000011
I2C1_Read1ByteRegister@address                            cstackCOMRAM 000023
I2C1_Read1ByteRegister@reg                                cstackCOMRAM 000022
I2C1_Read1ByteRegister@returnValue                        cstackCOMRAM 000024
I2C1_SetAddressNackCallback@cb                            cstackCOMRAM 000015
I2C1_SetAddressNackCallback@ptr                           cstackCOMRAM 000017
I2C1_SetBuffer@buffer                                     cstackCOMRAM 000010
I2C1_SetBuffer@bufferSize                                 cstackCOMRAM 000012
I2C1_SetCallback@cb                                       cstackCOMRAM 000010
I2C1_SetCallback@idx                                      cstackCOMRAM 000014
I2C1_SetCallback@ptr                                      cstackCOMRAM 000012
I2C1_SetDataCompleteCallback@cb                           cstackCOMRAM 000015
I2C1_SetDataCompleteCallback@ptr                          cstackCOMRAM 000017
NormalKeyGen@Buffer                                       cstackCOMRAM 000030
NormalKeyGen@HOPtemp                                      cstackCOMRAM 000028
NormalKeyGen@SEED                                         bssBANK2     0002D7
NormalKeyGen@SKEYtemp                                     cstackCOMRAM 00002C
NormalKeyGen@serial                                       cstackCOMRAM 000026
OpenWalkOrder@diffTime                                    cstackCOMRAM 00001A
RGB_Set@value                                             cstackCOMRAM 000010
ReadSerial@cmdType                                        cstackCOMRAM 000032
ReadSerial@position                                       cstackCOMRAM 00002F
ReadSerial@tempSerial                                     cstackCOMRAM 00002E
RemoveSerial@cmdType                                      cstackBANK0  0000DA
RemoveSerial@position                                     cstackCOMRAM 00003A
RemoveSerial@tempSerial                                   cstackBANK0  0000DB
ReqResync@CurrentHop                                      cstackCOMRAM 000010
ResetDefaultMemory@type                                   cstackCOMRAM 00003A
SaveNVM_VarSystem@page                                    cstackBANK0  0000D8
SaveNVM_VarSystem@point                                   cstackBANK0  0000DB
SaveNVM_VarSystem@tempAdd                                 cstackBANK0  0000D9
Segments_Set@value                                        cstackCOMRAM 000001
SetSegmentValue@d1                                        cstackCOMRAM 00001D
SetSegmentValue@d2                                        cstackCOMRAM 00001C
SetSegmentValueIntermitent@d1                             cstackCOMRAM 000013
SetSegmentValueIntermitent@d2                             cstackCOMRAM 000010
SetSegmentValueIntermitent@time                           cstackCOMRAM 000011
SetSegmentValueIntermitentMain@d1                         cstackCOMRAM 00001F
SetSegmentValueIntermitentMain@d2                         cstackCOMRAM 00001C
SetSegmentValueIntermitentMain@time                       cstackCOMRAM 00001D
SetSegmentValueLearn@direction                            cstackCOMRAM 000012
SetSegmentValueMain@d1                                    cstackCOMRAM 00001D
SetSegmentValueMain@d2                                    cstackCOMRAM 00001C
TMR0_SetInterruptHandler@InterruptHandler                 cstackCOMRAM 000010
TMR1_SetInterruptHandler@InterruptHandler                 cstackCOMRAM 000010
TMR1_WriteTimer@timerVal                                  cstackCOMRAM 000001
TMR2_SetInterruptHandler@InterruptHandler                 cstackCOMRAM 000010
VerifyElectricalBrake@actualState                         cstackCOMRAM 000011
VerifyElectricalBrake@tempState                           cstackCOMRAM 000010
VerifyFollowMe@securityClose                              cstackCOMRAM 000010
WWDT_TimerClear@state                                     cstackCOMRAM 000010
_ADACCH                                                   (abs)        000F71
_ADACCL                                                   (abs)        000F70
_ADACQ                                                    (abs)        000F5C
_ADACT                                                    (abs)        000F56
_ADCAP                                                    (abs)        000F5D
_ADCC_GetSingleConversion                                 text194      009CCA
_ADCC_Initialize                                          text110      0091DA
_ADCLK                                                    (abs)        000F57
_ADCNT                                                    (abs)        000F67
_ADCON0                                                   (abs)        000F60
_ADCON0bits                                               (abs)        000F60
_ADCON1                                                   (abs)        000F59
_ADCON2                                                   (abs)        000F5A
_ADCON3                                                   (abs)        000F5B
_ADC_array                                                bssBANK2     000200
_ADC_zero_array                                           bssBANK3     000396
_ADERRH                                                   (abs)        000F6F
_ADERRL                                                   (abs)        000F6E
_ADFLTRH                                                  (abs)        000F73
_ADFLTRL                                                  (abs)        000F72
_ADLTHH                                                   (abs)        000F6B
_ADLTHL                                                   (abs)        000F6A
_ADPCH                                                    (abs)        000F5F
_ADPRE                                                    (abs)        000F5E
_ADPREVH                                                  (abs)        000F62
_ADPREVL                                                  (abs)        000F61
_ADREF                                                    (abs)        000F58
_ADRESH                                                   (abs)        000F64
_ADRESL                                                   (abs)        000F63
_ADRPT                                                    (abs)        000F66
_ADSTAT                                                   (abs)        000F65
_ADSTPTH                                                  (abs)        000F69
_ADSTPTL                                                  (abs)        000F68
_ADUTHH                                                   (abs)        000F6D
_ADUTHL                                                   (abs)        000F6C
_ANSELA                                                   (abs)        000F11
_ANSELB                                                   (abs)        000F19
_ANSELC                                                   (abs)        000F21
_ANSELD                                                   (abs)        000F26
_ANSELE                                                   (abs)        000F2E
_Abertura_pedonal                                         bssBANK1     000192
_BAUD1CON                                                 (abs)        000F9F
_BitCount                                                 bssBANK0     00008C
_Bptr                                                     bssBANK0     00008D
_BufferRF                                                 bssBANK2     0002C6
_BufferRF_12BIT                                           bssBANK1     00018B
_ClearFlag_rfCMD                                          text13       009E64
_CloseOrder                                               text32       0099CA
_ControlCounterMoves                                      text129      008F30
_ControlCurrent                                           text119      006A44
_ControlDecelarationFactor                                text29       009C26
_ControlInputs                                            text118      00708A
_ControlLights                                            text114      0045AA
_ControlMotor                                             text112      00531A
_Counterchoose                                            bssBANK0     000092
_DKEY                                                     bssBANK2     0002CF
_DecCHK                                                   text66       00964A
_Decrypt                                                  text62       00798C
_DecryptPacket_12BIT                                      text67       008192
_DispTable                                                dataBANK3    0003D2
_EHop                                                     bssBANK2     00028C
_EUSART1_DefaultErrorHandler                              text208      009E88
_EUSART1_DefaultFramingErrorHandler                       text207      009EC2
_EUSART1_DefaultOverrunErrorHandler                       text206      009E82
_EUSART1_ErrorHandler                                     nvBANK2      0002E3
_EUSART1_FramingErrorHandler                              nvBANK2      0002E7
_EUSART1_Initialize                                       text104      00864E
_EUSART1_OverrunErrorHandler                              nvBANK2      0002E5
_EUSART1_Read                                             text55       009310
_EUSART1_Receive_ISR                                      text205      007F3E
_EUSART1_RxDataHandler                                    text209      009B12
_EUSART1_RxDefaultInterruptHandler                        nvBANK2      0002E9
_EUSART1_SetErrorHandler                                  text109      009DE0
_EUSART1_SetFramingErrorHandler                           text108      009DD6
_EUSART1_SetOverrunErrorHandler                           text107      009DCC
_EUSART1_SetRxInterruptHandler                            text106      009DC2
_EUSART1_SetTxInterruptHandler                            text105      009DB8
_EUSART1_Transmit_ISR                                     text204      0096AE
_EUSART1_TxDefaultInterruptHandler                        nvBANK2      0002EB
_EUSART1_Write                                            text80       009468
_EUSART1_is_rx_ready                                      text111      009D2E
_F2Chance                                                 bssBANK1     00019A
_GIE                                                      (abs)        007F97
_GetMotorPower                                            text128      007A58
_GetOpenOrder                                             text50       005D64
_GetSecurityStateInClosing                                text38       007DF2
_GetSecurityStateInOpening                                text48       007E98
_Hop                                                      bssBANK0     00007C
_HopCHK                                                   text63       008336
_I2C1_CallbackReturnReset                                 text164      009E9E
_I2C1_CallbackReturnStop                                  text165      009EA2
_I2C1_Close                                               text182      009AF0
_I2C1_DO_ADDRESS_NACK                                     text141      009278
_I2C1_DO_IDLE                                             text155      009DFE
_I2C1_DO_RCEN                                             text150      009DF4
_I2C1_DO_RESET                                            text142      009DEA
_I2C1_DO_RX                                               text151      008748
_I2C1_DO_RX_ACK                                           text145      009E28
_I2C1_DO_RX_NACK_RESTART                                  text143      009E18
_I2C1_DO_RX_NACK_STOP                                     text144      009E20
_I2C1_DO_SEND_ADR_READ                                    text154      009D6A
_I2C1_DO_SEND_ADR_WRITE                                   text153      009D5C
_I2C1_DO_SEND_RESTART                                     text147      009E38
_I2C1_DO_SEND_RESTART_READ                                text149      009E48
_I2C1_DO_SEND_RESTART_WRITE                               text148      009E40
_I2C1_DO_SEND_STOP                                        text146      009E30
_I2C1_DO_TX                                               text152      0082AA
_I2C1_DO_TX_EMPTY                                         text156      008D64
_I2C1_Initialize                                          text103      009D08
_I2C1_MasterClearIrq                                      text185      009E7C
_I2C1_MasterClose                                         text184      009EB6
_I2C1_MasterDisableIrq                                    text183      009EB2
_I2C1_MasterEnableRestart                                 text180      009EAA
_I2C1_MasterFsm                                           text140      0090E4
_I2C1_MasterGetRxData                                     text161      009E96
_I2C1_MasterIsNack                                        text158      009D78
_I2C1_MasterOpen                                          text135      009C6E
_I2C1_MasterOperation                                     text137      0097C2
_I2C1_MasterSendAck                                       text160      009E70
_I2C1_MasterSendNack                                      text162      009E76
_I2C1_MasterSendTxData                                    text159      009E50
_I2C1_MasterSetIrq                                        text157      009E6A
_I2C1_MasterStart                                         text181      009EAE
_I2C1_MasterStartRx                                       text163      009E9A
_I2C1_MasterStop                                          text179      009EA6
_I2C1_MasterWaitForEvent                                  text139      009E10
_I2C1_MasterWrite                                         text136      009E08
_I2C1_Open                                                text134      0084C8
_I2C1_Poller                                              text138      009D3E
_I2C1_Read1ByteRegister                                   text72       008E7A
_I2C1_SetAddressNackCallback                              text133      009C56
_I2C1_SetBuffer                                           text178      009C0C
_I2C1_SetCallback                                         text177      008B5A
_I2C1_SetDataCompleteCallback                             text176      009C86
_I2C1_Status                                              bssBANK2     00023C
_INLVLA                                                   (abs)        000F0D
_INLVLB                                                   (abs)        000F15
_INLVLC                                                   (abs)        000F1D
_INLVLD                                                   (abs)        000F22
_INLVLE                                                   (abs)        000F2A
_INTCONbits                                               (abs)        000FF2
_INTERRUPT_Initialize                                     text102      009E92
_INTERRUPT_InterruptManager                               intcode      000008
_IOCBN3                                                   (abs)        00789B
_IOCBP3                                                   (abs)        0078A3
_InitFullAutoTime                                         text42       009BD8
_InitReceiver                                             text5        009BA4
_InitSoftStart                                            text46       008E1E
_InitSoftStop                                             text28       0092C6
_InitWalkAutoTime                                         text47       009CE0
_LATA                                                     (abs)        000F83
_LATAbits                                                 (abs)        000F83
_LATB                                                     (abs)        000F84
_LATC                                                     (abs)        000F85
_LATCbits                                                 (abs)        000F85
_LATD                                                     (abs)        000F86
_LATDbits                                                 (abs)        000F86
_LATE                                                     (abs)        000F87
_LATEbits                                                 (abs)        000F87
_LoadManufCode                                            text61       009AAC
_NextHop                                                  bssBANK1     000187
_NormalKeyGen                                             text60       0072BE
_ODCONA                                                   (abs)        000F0F
_ODCONB                                                   (abs)        000F17
_ODCONC                                                   (abs)        000F1F
_ODCOND                                                   (abs)        000F24
_ODCONE                                                   (abs)        000F2C
_OSCCON1                                                  (abs)        000ED8
_OSCCON3                                                  (abs)        000EDA
_OSCEN                                                    (abs)        000EDC
_OSCFRQ                                                   (abs)        000EDE
_OSCILLATOR_Initialize                                    text101      009CB4
_OSCTUNE                                                  (abs)        000EDD
_OpenFullOrder                                            text41       0099F0
_OpenWalkOrder                                            text43       008AEC
_PCON0bits                                                (abs)        000FD7
_PIE0bits                                                 (abs)        000EC2
_PIE3bits                                                 (abs)        000EC5
_PIE4bits                                                 (abs)        000EC6
_PIN_MANAGER_Initialize                                   text100      007FD8
_PIR0bits                                                 (abs)        000ECA
_PIR3bits                                                 (abs)        000ECD
_PIR4bits                                                 (abs)        000ECE
_PMD0                                                     (abs)        000EE1
_PMD1                                                     (abs)        000EE2
_PMD2                                                     (abs)        000EE3
_PMD3                                                     (abs)        000EE4
_PMD4                                                     (abs)        000EE5
_PMD5                                                     (abs)        000EE6
_PMD_Initialize                                           text99       009B6C
_PORTAbits                                                (abs)        000F8D
_PORTB                                                    (abs)        000F8E
_PORTBbits                                                (abs)        000F8E
_PORTEbits                                                (abs)        000F91
_RC1REG                                                   (abs)        000F99
_RC1STA                                                   (abs)        000F9D
_RC1STAbits                                               (abs)        000F9D
_RC3PPS                                                   (abs)        000EFA
_RC4PPS                                                   (abs)        000EFB
_RC7PPS                                                   (abs)        000EFE
_RFBit                                                    bssBANK0     000089
_RFFull                                                   bssBANK0     00008B
_RFFull_12BIT                                             bssBANK0     00008A
_RFcount                                                  bssBANK0     00007E
_RFstate                                                  bssBANK1     00019D
_RGB_Set                                                  text116      009D4E
_RX1PPS                                                   (abs)        000EB5
_ReadADC                                                  text193      00908E
_ReadSerial                                               text85       008A7C
_RemoveSerial                                             text84       0085CE
_ReqResync                                                text65       009C9E
_ResetDefaultMemory                                       text71       006732
_SLRCONA                                                  (abs)        000F0E
_SLRCONB                                                  (abs)        000F16
_SLRCONC                                                  (abs)        000F1E
_SLRCOND                                                  (abs)        000F23
_SLRCONE                                                  (abs)        000F2B
_SP1BRGH                                                  (abs)        000F9C
_SP1BRGL                                                  (abs)        000F9B
_SSP1ADD                                                  (abs)        000F93
_SSP1BUF                                                  (abs)        000F92
_SSP1CLKPPS                                               (abs)        000EB7
_SSP1CON1                                                 (abs)        000F96
_SSP1CON1bits                                             (abs)        000F96
_SSP1CON2                                                 (abs)        000F97
_SSP1CON2bits                                             (abs)        000F97
_SSP1DATPPS                                               (abs)        000EB8
_SSP1STAT                                                 (abs)        000F95
_SYSTEM_Initialize                                        text91       009710
_SaveNVM_VarSystem                                        text130      0095DE
_Segments_Set                                             text189      009D84
_SetSegmentValue                                          text90       009BF2
_SetSegmentValueIntermitent                               text49       00973E
_SetSegmentValueIntermitentMain                           text52       009CF4
_SetSegmentValueLearn                                     text15       0075D2
_SetSegmentValueMain                                      text12       009BBE
_ShowVersion                                              text89       008C9C
_StateTRIAC                                               bssBANK1     000195
_StopOrder                                                text37       009B34
_SumEnergyADCHist_array                                   bssBANK2     000260
_T0CON0                                                   (abs)        000FD5
_T0CON1                                                   (abs)        000FD6
_T1CLK                                                    (abs)        000FD2
_T1CON                                                    (abs)        000FCF
_T1CONbits                                                (abs)        000FCF
_T1GATE                                                   (abs)        000FD1
_T1GCON                                                   (abs)        000FD0
_T2CLKCON                                                 (abs)        000FBF
_T2CON                                                    (abs)        000FBD
_T2HLT                                                    (abs)        000FBE
_T2PR                                                     (abs)        000FBC
_T2RST                                                    (abs)        000FC0
_T2TMR                                                    (abs)        000FBB
_TMR0H                                                    (abs)        000FD4
_TMR0IE                                                   (abs)        007615
_TMR0IF                                                   (abs)        007655
_TMR0L                                                    (abs)        000FD3
_TMR0_DefaultInterruptHandler                             text203      009EC0
_TMR0_ISR                                                 text201      009A3C
_TMR0_Initialize                                          text97       009ACE
_TMR0_InterruptHandler                                    nvBANK2      0002E1
_TMR0_SetInterruptHandler                                 text98       009DAE
_TMR1H                                                    (abs)        000FCE
_TMR1L                                                    (abs)        000FCD
_TMR1_DefaultInterruptHandler                             text200      009EBE
_TMR1_ISR                                                 text195      009528
_TMR1_Initialize                                          text95       009426
_TMR1_InterruptHandler                                    nvBANK2      0002DD
_TMR1_SetInterruptHandler                                 text96       009DA4
_TMR1_WriteTimer                                          text199      009B88
_TMR2_DefaultInterruptHandler                             text192      009EBC
_TMR2_ISR                                                 text187      006BB8
_TMR2_Initialize                                          text93       009796
_TMR2_InterruptHandler                                    nvBANK2      0002DB
_TMR2_SetInterruptHandler                                 text94       009D9A
_TRISA                                                    (abs)        000F88
_TRISB                                                    (abs)        000F89
_TRISC                                                    (abs)        000F8A
_TRISD                                                    (abs)        000F8B
_TRISE                                                    (abs)        000F8C
_TX1REG                                                   (abs)        000F9A
_TX1STA                                                   (abs)        000F9E
_VerifyElectricalBrake                                    text113      0087C2
_VerifyFollowMe                                           text31       009A88
_WDTCON0                                                  (abs)        000ED2
_WDTCON0bits                                              (abs)        000ED2
_WDTCON1                                                  (abs)        000ED3
_WPUA                                                     (abs)        000F10
_WPUB                                                     (abs)        000F18
_WPUC                                                     (abs)        000F20
_WPUD                                                     (abs)        000F25
_WPUE                                                     (abs)        000F2D
_WWDT_Initialize                                          text92       009D90
_WWDT_SoftEnable                                          text88       009E8E
_WWDT_TimerClear                                          text87       009B50
_WaitPreFlash                                             text40       00899C
__HRAM                                                    (abs)        000000
__Habs1                                                   abs1         000000
__Hbank0                                                  bank0        000000
__Hbank1                                                  bank1        000000
__Hbank10                                                 bank10       000000
__Hbank11                                                 bank11       000000
__Hbank12                                                 bank12       000000
__Hbank13                                                 bank13       000000
__Hbank14                                                 bank14       000000
__Hbank2                                                  bank2        000000
__Hbank3                                                  bank3        000000
__Hbank4                                                  bank4        000000
__Hbank5                                                  bank5        000000
__Hbank6                                                  bank6        000000
__Hbank7                                                  bank7        000000
__Hbank8                                                  bank8        000000
__Hbank9                                                  bank9        000000
__Hbigbss                                                 bigbss       000000
__Hbigdata                                                bigdata      000000
__Hbigram                                                 bigram       000000
__Hbigsfr                                                 bigsfr       000000
__Hbss                                                    bss          000000
__HbssBANK0                                               bssBANK0     000000
__HbssBANK1                                               bssBANK1     000000
__HbssBANK2                                               bssBANK2     000000
__HbssBANK3                                               bssBANK3     000000
__HbssCOMRAM                                              bssCOMRAM    000000
__Hcinit                                                  cinit        000000
__Hclrtext                                                clrtext      000000
__Hcomram                                                 comram       000000
__Hconfig                                                 config       30000C
__Hconst                                                  const        000000
__HcstackBANK0                                            cstackBANK0  000000
__HcstackBANK2                                            cstackBANK2  000000
__HcstackCOMRAM                                           cstackCOMRAM 000000
__Hdata                                                   data         000000
__HdataBANK0                                              dataBANK0    000000
__HdataBANK1                                              dataBANK1    000000
__HdataBANK2                                              dataBANK2    000000
__HdataBANK3                                              dataBANK3    000000
__Heeprom_data                                            eeprom_data  000000
__Hfarbss                                                 farbss       000000
__Hfardata                                                fardata      000000
__Hheap                                                   heap         000000
__Hibigdata                                               ibigdata     000000
__Hidata                                                  idata        000000
__HidataBANK0                                             idataBANK0   000000
__HidataBANK1                                             idataBANK1   000000
__HidataBANK2                                             idataBANK2   000000
__HidataBANK3                                             idataBANK3   000000
__Hidloc                                                  idloc        200010
__Hifardata                                               ifardata     000000
__Hinit                                                   init         0000A0
__Hintcode                                                intcode      00009C
__Hintcode_body                                           intcode_body 000000
__Hintcodelo                                              intcodelo    00009C
__Hintentry                                               intentry     000000
__Hintret                                                 intret       000000
__Hintsave_regs                                           intsave_regs 000000
__Hirdata                                                 irdata       000000
__Hmediumconst                                            mediumconst  000000
__HnvBANK1                                                nvBANK1      000000
__HnvBANK2                                                nvBANK2      000000
__HnvFARRAM                                               nvFARRAM     000000
__Hnvbit                                                  nvbit        000000
__Hnvrram                                                 nvrram       000000
__Hparam                                                  rparam       000000
__Hpowerup                                                powerup      00009C
__Hram                                                    ram          000000
__Hramtop                                                 ramtop       000F00
__Hrbit                                                   rbit         000000
__Hrbss                                                   rbss         000000
__Hrdata                                                  rdata        000000
__Hreset_vec                                              reset_vec    000006
__Hrparam                                                 rparam       000000
__Hsfr                                                    sfr          000000
__Hsmallconst                                             smallconst   000F22
__Hspace_0                                                (abs)        009EC5
__Hspace_1                                                (abs)        0003F7
__Hspace_2                                                (abs)        000000
__Hspace_4                                                (abs)        60000C
__Hstack                                                  stack        000000
__Hstruct                                                 struct       000000
__Htemp                                                   temp         000051
__Htext                                                   text         000000
__Htext0                                                  text0        000000
__Htext1                                                  text1        000000
__Htext10                                                 text10       000000
__Htext100                                                text100      000000
__Htext101                                                text101      000000
__Htext102                                                text102      000000
__Htext103                                                text103      000000
__Htext104                                                text104      000000
__Htext105                                                text105      000000
__Htext106                                                text106      000000
__Htext107                                                text107      000000
__Htext108                                                text108      000000
__Htext109                                                text109      000000
__Htext11                                                 text11       000000
__Htext110                                                text110      000000
__Htext111                                                text111      000000
__Htext112                                                text112      000000
__Htext113                                                text113      000000
__Htext114                                                text114      000000
__Htext115                                                text115      000000
__Htext116                                                text116      000000
__Htext117                                                text117      000000
__Htext118                                                text118      000000
__Htext119                                                text119      000000
__Htext12                                                 text12       000000
__Htext120                                                text120      000000
__Htext121                                                text121      000000
__Htext122                                                text122      000000
__Htext123                                                text123      000000
__Htext124                                                text124      000000
__Htext125                                                text125      000000
__Htext126                                                text126      000000
__Htext127                                                text127      000000
__Htext128                                                text128      000000
__Htext129                                                text129      000000
__Htext13                                                 text13       000000
__Htext130                                                text130      000000
__Htext131                                                text131      000000
__Htext132                                                text132      000000
__Htext133                                                text133      000000
__Htext134                                                text134      000000
__Htext135                                                text135      000000
__Htext136                                                text136      000000
__Htext137                                                text137      000000
__Htext138                                                text138      000000
__Htext139                                                text139      000000
__Htext14                                                 text14       000000
__Htext140                                                text140      000000
__Htext141                                                text141      000000
__Htext142                                                text142      000000
__Htext143                                                text143      000000
__Htext144                                                text144      000000
__Htext145                                                text145      000000
__Htext146                                                text146      000000
__Htext147                                                text147      000000
__Htext148                                                text148      000000
__Htext149                                                text149      000000
__Htext15                                                 text15       000000
__Htext150                                                text150      000000
__Htext151                                                text151      000000
__Htext152                                                text152      000000
__Htext153                                                text153      000000
__Htext154                                                text154      000000
__Htext155                                                text155      000000
__Htext156                                                text156      000000
__Htext157                                                text157      000000
__Htext158                                                text158      000000
__Htext159                                                text159      000000
__Htext16                                                 text16       000000
__Htext160                                                text160      000000
__Htext161                                                text161      000000
__Htext162                                                text162      000000
__Htext163                                                text163      000000
__Htext164                                                text164      000000
__Htext165                                                text165      000000
__Htext166                                                text166      000000
__Htext167                                                text167      000000
__Htext168                                                text168      000000
__Htext169                                                text169      000000
__Htext17                                                 text17       000000
__Htext170                                                text170      000000
__Htext171                                                text171      000000
__Htext172                                                text172      000000
__Htext173                                                text173      000000
__Htext174                                                text174      000000
__Htext175                                                text175      000000
__Htext176                                                text176      000000
__Htext177                                                text177      000000
__Htext178                                                text178      000000
__Htext179                                                text179      000000
__Htext18                                                 text18       000000
__Htext180                                                text180      000000
__Htext181                                                text181      000000
__Htext182                                                text182      000000
__Htext183                                                text183      000000
__Htext184                                                text184      000000
__Htext185                                                text185      000000
__Htext187                                                text187      000000
__Htext188                                                text188      000000
__Htext189                                                text189      000000
__Htext19                                                 text19       000000
__Htext190                                                text190      000000
__Htext191                                                text191      000000
__Htext192                                                text192      000000
__Htext193                                                text193      000000
__Htext194                                                text194      000000
__Htext195                                                text195      000000
__Htext196                                                text196      000000
__Htext197                                                text197      000000
__Htext198                                                text198      000000
__Htext199                                                text199      000000
__Htext2                                                  text2        000000
__Htext20                                                 text20       000000
__Htext200                                                text200      000000
__Htext201                                                text201      000000
__Htext202                                                text202      000000
__Htext203                                                text203      000000
__Htext204                                                text204      000000
__Htext205                                                text205      000000
__Htext206                                                text206      000000
__Htext207                                                text207      000000
__Htext208                                                text208      000000
__Htext209                                                text209      000000
__Htext21                                                 text21       000000
__Htext210                                                text210      000000
__Htext22                                                 text22       000000
__Htext23                                                 text23       000000
__Htext24                                                 text24       000000
__Htext25                                                 text25       000000
__Htext26                                                 text26       000000
__Htext27                                                 text27       000000
__Htext28                                                 text28       000000
__Htext29                                                 text29       000000
__Htext3                                                  text3        000000
__Htext30                                                 text30       000000
__Htext31                                                 text31       000000
__Htext32                                                 text32       000000
__Htext33                                                 text33       000000
__Htext34                                                 text34       000000
__Htext35                                                 text35       000000
__Htext36                                                 text36       000000
__Htext37                                                 text37       000000
__Htext38                                                 text38       000000
__Htext39                                                 text39       000000
__Htext4                                                  text4        000000
__Htext40                                                 text40       000000
__Htext41                                                 text41       000000
__Htext42                                                 text42       000000
__Htext43                                                 text43       000000
__Htext44                                                 text44       000000
__Htext45                                                 text45       000000
__Htext46                                                 text46       000000
__Htext47                                                 text47       000000
__Htext48                                                 text48       000000
__Htext49                                                 text49       000000
__Htext5                                                  text5        000000
__Htext50                                                 text50       000000
__Htext51                                                 text51       000000
__Htext52                                                 text52       000000
__Htext53                                                 text53       000000
__Htext54                                                 text54       000000
__Htext55                                                 text55       000000
__Htext56                                                 text56       000000
__Htext57                                                 text57       000000
__Htext58                                                 text58       000000
__Htext59                                                 text59       000000
__Htext6                                                  text6        000000
__Htext60                                                 text60       000000
__Htext61                                                 text61       000000
__Htext62                                                 text62       000000
__Htext63                                                 text63       000000
__Htext64                                                 text64       000000
__Htext65                                                 text65       000000
__Htext66                                                 text66       000000
__Htext67                                                 text67       000000
__Htext68                                                 text68       000000
__Htext69                                                 text69       000000
__Htext7                                                  text7        000000
__Htext70                                                 text70       000000
__Htext71                                                 text71       000000
__Htext72                                                 text72       000000
__Htext73                                                 text73       000000
__Htext74                                                 text74       000000
__Htext75                                                 text75       000000
__Htext76                                                 text76       000000
__Htext77                                                 text77       000000
__Htext78                                                 text78       000000
__Htext79                                                 text79       000000
__Htext8                                                  text8        000000
__Htext80                                                 text80       000000
__Htext81                                                 text81       000000
__Htext82                                                 text82       000000
__Htext83                                                 text83       000000
__Htext84                                                 text84       000000
__Htext85                                                 text85       000000
__Htext86                                                 text86       000000
__Htext87                                                 text87       000000
__Htext88                                                 text88       000000
__Htext89                                                 text89       000000
__Htext9                                                  text9        000000
__Htext90                                                 text90       000000
__Htext91                                                 text91       000000
__Htext92                                                 text92       000000
__Htext93                                                 text93       000000
__Htext94                                                 text94       000000
__Htext95                                                 text95       000000
__Htext96                                                 text96       000000
__Htext97                                                 text97       000000
__Htext98                                                 text98       000000
__Htext99                                                 text99       000000
__LRAM                                                    (abs)        000001
__Labs1                                                   abs1         000000
__Lbank0                                                  bank0        000000
__Lbank1                                                  bank1        000000
__Lbank10                                                 bank10       000000
__Lbank11                                                 bank11       000000
__Lbank12                                                 bank12       000000
__Lbank13                                                 bank13       000000
__Lbank14                                                 bank14       000000
__Lbank2                                                  bank2        000000
__Lbank3                                                  bank3        000000
__Lbank4                                                  bank4        000000
__Lbank5                                                  bank5        000000
__Lbank6                                                  bank6        000000
__Lbank7                                                  bank7        000000
__Lbank8                                                  bank8        000000
__Lbank9                                                  bank9        000000
__Lbigbss                                                 bigbss       000000
__Lbigdata                                                bigdata      000000
__Lbigram                                                 bigram       000000
__Lbigsfr                                                 bigsfr       000000
__Lbss                                                    bss          000000
__LbssBANK0                                               bssBANK0     000000
__LbssBANK1                                               bssBANK1     000000
__LbssBANK2                                               bssBANK2     000000
__LbssBANK3                                               bssBANK3     000000
__LbssCOMRAM                                              bssCOMRAM    000000
__Lcinit                                                  cinit        000000
__Lclrtext                                                clrtext      000000
__Lcomram                                                 comram       000000
__Lconfig                                                 config       000000
__Lconst                                                  const        000000
__LcstackBANK0                                            cstackBANK0  000000
__LcstackBANK2                                            cstackBANK2  000000
__LcstackCOMRAM                                           cstackCOMRAM 000000
__Ldata                                                   data         000000
__LdataBANK0                                              dataBANK0    000000
__LdataBANK1                                              dataBANK1    000000
__LdataBANK2                                              dataBANK2    000000
__LdataBANK3                                              dataBANK3    000000
__Leeprom_data                                            eeprom_data  000000
__Lfarbss                                                 farbss       000000
__Lfardata                                                fardata      000000
__Lheap                                                   heap         000000
__Libigdata                                               ibigdata     000000
__Lidata                                                  idata        000000
__LidataBANK0                                             idataBANK0   000000
__LidataBANK1                                             idataBANK1   000000
__LidataBANK2                                             idataBANK2   000000
__LidataBANK3                                             idataBANK3   000000
__Lidloc                                                  idloc        000000
__Lifardata                                               ifardata     000000
__Linit                                                   init         00009C
__Lintcode                                                intcode      000008
__Lintcode_body                                           intcode_body 000000
__Lintcodelo                                              intcodelo    00009C
__Lintentry                                               intentry     000000
__Lintret                                                 intret       000000
__Lintsave_regs                                           intsave_regs 000000
__Lirdata                                                 irdata       000000
__Lmediumconst                                            mediumconst  000000
__LnvBANK1                                                nvBANK1      000000
__LnvBANK2                                                nvBANK2      000000
__LnvFARRAM                                               nvFARRAM     000000
__Lnvbit                                                  nvbit        000000
__Lnvrram                                                 nvrram       000000
__Lparam                                                  rparam       000000
__Lpowerup                                                powerup      00009C
__Lram                                                    ram          000000
__Lramtop                                                 ramtop       000F00
__Lrbit                                                   rbit         000000
__Lrbss                                                   rbss         000000
__Lrdata                                                  rdata        000000
__Lreset_vec                                              reset_vec    000000
__Lrparam                                                 rparam       000000
__Lsfr                                                    sfr          000000
__Lsmallconst                                             smallconst   000F00
__Lspace_0                                                (abs)        000000
__Lspace_1                                                (abs)        000000
__Lspace_2                                                (abs)        000000
__Lspace_4                                                (abs)        000000
__Lstack                                                  stack        000000
__Lstruct                                                 struct       000000
__Ltemp                                                   temp         000050
__Ltext                                                   text         000000
__Ltext0                                                  text0        000000
__Ltext1                                                  text1        000000
__Ltext10                                                 text10       000000
__Ltext100                                                text100      000000
__Ltext101                                                text101      000000
__Ltext102                                                text102      000000
__Ltext103                                                text103      000000
__Ltext104                                                text104      000000
__Ltext105                                                text105      000000
__Ltext106                                                text106      000000
__Ltext107                                                text107      000000
__Ltext108                                                text108      000000
__Ltext109                                                text109      000000
__Ltext11                                                 text11       000000
__Ltext110                                                text110      000000
__Ltext111                                                text111      000000
__Ltext112                                                text112      000000
__Ltext113                                                text113      000000
__Ltext114                                                text114      000000
__Ltext115                                                text115      000000
__Ltext116                                                text116      000000
__Ltext117                                                text117      000000
__Ltext118                                                text118      000000
__Ltext119                                                text119      000000
__Ltext12                                                 text12       000000
__Ltext120                                                text120      000000
__Ltext121                                                text121      000000
__Ltext122                                                text122      000000
__Ltext123                                                text123      000000
__Ltext124                                                text124      000000
__Ltext125                                                text125      000000
__Ltext126                                                text126      000000
__Ltext127                                                text127      000000
__Ltext128                                                text128      000000
__Ltext129                                                text129      000000
__Ltext13                                                 text13       000000
__Ltext130                                                text130      000000
__Ltext131                                                text131      000000
__Ltext132                                                text132      000000
__Ltext133                                                text133      000000
__Ltext134                                                text134      000000
__Ltext135                                                text135      000000
__Ltext136                                                text136      000000
__Ltext137                                                text137      000000
__Ltext138                                                text138      000000
__Ltext139                                                text139      000000
__Ltext14                                                 text14       000000
__Ltext140                                                text140      000000
__Ltext141                                                text141      000000
__Ltext142                                                text142      000000
__Ltext143                                                text143      000000
__Ltext144                                                text144      000000
__Ltext145                                                text145      000000
__Ltext146                                                text146      000000
__Ltext147                                                text147      000000
__Ltext148                                                text148      000000
__Ltext149                                                text149      000000
__Ltext15                                                 text15       000000
__Ltext150                                                text150      000000
__Ltext151                                                text151      000000
__Ltext152                                                text152      000000
__Ltext153                                                text153      000000
__Ltext154                                                text154      000000
__Ltext155                                                text155      000000
__Ltext156                                                text156      000000
__Ltext157                                                text157      000000
__Ltext158                                                text158      000000
__Ltext159                                                text159      000000
__Ltext16                                                 text16       000000
__Ltext160                                                text160      000000
__Ltext161                                                text161      000000
__Ltext162                                                text162      000000
__Ltext163                                                text163      000000
__Ltext164                                                text164      000000
__Ltext165                                                text165      000000
__Ltext166                                                text166      000000
__Ltext167                                                text167      000000
__Ltext168                                                text168      000000
__Ltext169                                                text169      000000
__Ltext17                                                 text17       000000
__Ltext170                                                text170      000000
__Ltext171                                                text171      000000
__Ltext172                                                text172      000000
__Ltext173                                                text173      000000
__Ltext174                                                text174      000000
__Ltext175                                                text175      000000
__Ltext176                                                text176      000000
__Ltext177                                                text177      000000
__Ltext178                                                text178      000000
__Ltext179                                                text179      000000
__Ltext18                                                 text18       000000
__Ltext180                                                text180      000000
__Ltext181                                                text181      000000
__Ltext182                                                text182      000000
__Ltext183                                                text183      000000
__Ltext184                                                text184      000000
__Ltext185                                                text185      000000
__Ltext187                                                text187      000000
__Ltext188                                                text188      000000
__Ltext189                                                text189      000000
__Ltext19                                                 text19       000000
__Ltext190                                                text190      000000
__Ltext191                                                text191      000000
__Ltext192                                                text192      000000
__Ltext193                                                text193      000000
__Ltext194                                                text194      000000
__Ltext195                                                text195      000000
__Ltext196                                                text196      000000
__Ltext197                                                text197      000000
__Ltext198                                                text198      000000
__Ltext199                                                text199      000000
__Ltext2                                                  text2        000000
__Ltext20                                                 text20       000000
__Ltext200                                                text200      000000
__Ltext201                                                text201      000000
__Ltext202                                                text202      000000
__Ltext203                                                text203      000000
__Ltext204                                                text204      000000
__Ltext205                                                text205      000000
__Ltext206                                                text206      000000
__Ltext207                                                text207      000000
__Ltext208                                                text208      000000
__Ltext209                                                text209      000000
__Ltext21                                                 text21       000000
__Ltext210                                                text210      000000
__Ltext22                                                 text22       000000
__Ltext23                                                 text23       000000
__Ltext24                                                 text24       000000
__Ltext25                                                 text25       000000
__Ltext26                                                 text26       000000
__Ltext27                                                 text27       000000
__Ltext28                                                 text28       000000
__Ltext29                                                 text29       000000
__Ltext3                                                  text3        000000
__Ltext30                                                 text30       000000
__Ltext31                                                 text31       000000
__Ltext32                                                 text32       000000
__Ltext33                                                 text33       000000
__Ltext34                                                 text34       000000
__Ltext35                                                 text35       000000
__Ltext36                                                 text36       000000
__Ltext37                                                 text37       000000
__Ltext38                                                 text38       000000
__Ltext39                                                 text39       000000
__Ltext4                                                  text4        000000
__Ltext40                                                 text40       000000
__Ltext41                                                 text41       000000
__Ltext42                                                 text42       000000
__Ltext43                                                 text43       000000
__Ltext44                                                 text44       000000
__Ltext45                                                 text45       000000
__Ltext46                                                 text46       000000
__Ltext47                                                 text47       000000
__Ltext48                                                 text48       000000
__Ltext49                                                 text49       000000
__Ltext5                                                  text5        000000
__Ltext50                                                 text50       000000
__Ltext51                                                 text51       000000
__Ltext52                                                 text52       000000
__Ltext53                                                 text53       000000
__Ltext54                                                 text54       000000
__Ltext55                                                 text55       000000
__Ltext56                                                 text56       000000
__Ltext57                                                 text57       000000
__Ltext58                                                 text58       000000
__Ltext59                                                 text59       000000
__Ltext6                                                  text6        000000
__Ltext60                                                 text60       000000
__Ltext61                                                 text61       000000
__Ltext62                                                 text62       000000
__Ltext63                                                 text63       000000
__Ltext64                                                 text64       000000
__Ltext65                                                 text65       000000
__Ltext66                                                 text66       000000
__Ltext67                                                 text67       000000
__Ltext68                                                 text68       000000
__Ltext69                                                 text69       000000
__Ltext7                                                  text7        000000
__Ltext70                                                 text70       000000
__Ltext71                                                 text71       000000
__Ltext72                                                 text72       000000
__Ltext73                                                 text73       000000
__Ltext74                                                 text74       000000
__Ltext75                                                 text75       000000
__Ltext76                                                 text76       000000
__Ltext77                                                 text77       000000
__Ltext78                                                 text78       000000
__Ltext79                                                 text79       000000
__Ltext8                                                  text8        000000
__Ltext80                                                 text80       000000
__Ltext81                                                 text81       000000
__Ltext82                                                 text82       000000
__Ltext83                                                 text83       000000
__Ltext84                                                 text84       000000
__Ltext85                                                 text85       000000
__Ltext86                                                 text86       000000
__Ltext87                                                 text87       000000
__Ltext88                                                 text88       000000
__Ltext89                                                 text89       000000
__Ltext9                                                  text9        000000
__Ltext90                                                 text90       000000
__Ltext91                                                 text91       000000
__Ltext92                                                 text92       000000
__Ltext93                                                 text93       000000
__Ltext94                                                 text94       000000
__Ltext95                                                 text95       000000
__Ltext96                                                 text96       000000
__Ltext97                                                 text97       000000
__Ltext98                                                 text98       000000
__Ltext99                                                 text99       000000
__S0                                                      (abs)        009EC5
__S1                                                      (abs)        0003F7
__S4                                                      (abs)        000000
__S5                                                      (abs)        000000
___awdiv                                                  text11       008444
___awdiv@counter                                          cstackCOMRAM 000018
___awdiv@dividend                                         cstackCOMRAM 000014
___awdiv@divisor                                          cstackCOMRAM 000016
___awdiv@quotient                                         cstackCOMRAM 00001A
___awdiv@sign                                             cstackCOMRAM 000019
___heap_hi                                                (abs)        000000
___heap_lo                                                (abs)        000000
___inthi_sp                                               stack        000000
___intlo_sp                                               stack        000000
___lbdiv                                                  text51       0095A4
___lbdiv@counter                                          cstackCOMRAM 000012
___lbdiv@dividend                                         cstackCOMRAM 000011
___lbdiv@divisor                                          cstackCOMRAM 000010
___lbdiv@quotient                                         cstackCOMRAM 000013
___lbmod                                                  text10       00994E
___lbmod@counter                                          cstackCOMRAM 000012
___lbmod@dividend                                         cstackCOMRAM 000011
___lbmod@divisor                                          cstackCOMRAM 000010
___lbmod@rem                                              cstackCOMRAM 000013
___lldiv                                                  text16       00854C
___lldiv@counter                                          cstackCOMRAM 00001C
___lldiv@dividend                                         cstackCOMRAM 000010
___lldiv@divisor                                          cstackCOMRAM 000014
___lldiv@quotient                                         cstackCOMRAM 000018
___lmul                                                   text36       009038
___lmul@multiplicand                                      cstackCOMRAM 000021
___lmul@multiplier                                        cstackCOMRAM 00001D
___lmul@product                                           cstackCOMRAM 000025
___lwdiv                                                  text125      009138
___lwdiv@counter                                          cstackCOMRAM 000014
___lwdiv@dividend                                         cstackCOMRAM 000010
___lwdiv@divisor                                          cstackCOMRAM 000012
___lwdiv@quotient                                         cstackCOMRAM 000015
___param_bank                                             (abs)        000000
___rparam_used                                            (abs)        000001
___sp                                                     stack        000000
___wmul                                                   text127      009A16
___wmul@multiplicand                                      cstackCOMRAM 000012
___wmul@multiplier                                        cstackCOMRAM 000010
___wmul@product                                           cstackCOMRAM 000014
__accesstop                                               (abs)        000060
__activetblptr                                            (abs)        000003
__end_of_ADCC_GetSingleConversion                         text194      009CE0
__end_of_ADCC_Initialize                                  text110      00922A
__end_of_ClearFlag_rfCMD                                  text13       009E6A
__end_of_CloseOrder                                       text32       0099F0
__end_of_ControlCounterMoves                              text129      008F8A
__end_of_ControlCurrent                                   text119      006BB8
__end_of_ControlDecelarationFactor                        text29       009C3E
__end_of_ControlInputs                                    text118      0071AE
__end_of_ControlLights                                    text114      0048CE
__end_of_ControlMotor                                     text112      005564
__end_of_DecCHK                                           text66       00967C
__end_of_Decrypt                                          text62       007A58
__end_of_DecryptPacket_12BIT                              text67       00821E
__end_of_EUSART1_DefaultErrorHandler                      text208      009E8E
__end_of_EUSART1_DefaultFramingErrorHandler               text207      009EC4
__end_of_EUSART1_DefaultOverrunErrorHandler               text206      009E88
__end_of_EUSART1_Initialize                               text104      0086CC
__end_of_EUSART1_Read                                     text55       009358
__end_of_EUSART1_Receive_ISR                              text205      007FD8
__end_of_EUSART1_RxDataHandler                            text209      009B34
__end_of_EUSART1_SetErrorHandler                          text109      009DEA
__end_of_EUSART1_SetFramingErrorHandler                   text108      009DE0
__end_of_EUSART1_SetOverrunErrorHandler                   text107      009DD6
__end_of_EUSART1_SetRxInterruptHandler                    text106      009DCC
__end_of_EUSART1_SetTxInterruptHandler                    text105      009DC2
__end_of_EUSART1_Transmit_ISR                             text204      0096E0
__end_of_EUSART1_Write                                    text80       0094A8
__end_of_EUSART1_is_rx_ready                              text111      009D3E
__end_of_GetMotorPower                                    text128      007B1E
__end_of_GetOpenOrder                                     text50       005F2C
__end_of_GetSecurityStateInClosing                        text38       007E98
__end_of_GetSecurityStateInOpening                        text48       007F3E
__end_of_HopCHK                                           text63       0083BE
__end_of_I2C1_CallbackReturnReset                         text164      009EA2
__end_of_I2C1_CallbackReturnStop                          text165      009EA6
__end_of_I2C1_Close                                       text182      009B12
__end_of_I2C1_DO_ADDRESS_NACK                             text141      0092C6
__end_of_I2C1_DO_IDLE                                     text155      009E08
__end_of_I2C1_DO_RCEN                                     text150      009DFE
__end_of_I2C1_DO_RESET                                    text142      009DF4
__end_of_I2C1_DO_RX                                       text151      0087C2
__end_of_I2C1_DO_RX_ACK                                   text145      009E30
__end_of_I2C1_DO_RX_NACK_RESTART                          text143      009E20
__end_of_I2C1_DO_RX_NACK_STOP                             text144      009E28
__end_of_I2C1_DO_SEND_ADR_READ                            text154      009D78
__end_of_I2C1_DO_SEND_ADR_WRITE                           text153      009D6A
__end_of_I2C1_DO_SEND_RESTART                             text147      009E40
__end_of_I2C1_DO_SEND_RESTART_READ                        text149      009E50
__end_of_I2C1_DO_SEND_RESTART_WRITE                       text148      009E48
__end_of_I2C1_DO_SEND_STOP                                text146      009E38
__end_of_I2C1_DO_TX                                       text152      008336
__end_of_I2C1_DO_TX_EMPTY                                 text156      008DC2
__end_of_I2C1_Initialize                                  text103      009D1C
__end_of_I2C1_MasterClearIrq                              text185      009E82
__end_of_I2C1_MasterClose                                 text184      009EBA
__end_of_I2C1_MasterDisableIrq                            text183      009EB6
__end_of_I2C1_MasterEnableRestart                         text180      009EAE
__end_of_I2C1_MasterFsm                                   text140      009138
__end_of_I2C1_MasterGetRxData                             text161      009E9A
__end_of_I2C1_MasterIsNack                                text158      009D84
__end_of_I2C1_MasterOpen                                  text135      009C86
__end_of_I2C1_MasterOperation                             text137      0097EE
__end_of_I2C1_MasterSendAck                               text160      009E76
__end_of_I2C1_MasterSendNack                              text162      009E7C
__end_of_I2C1_MasterSendTxData                            text159      009E58
__end_of_I2C1_MasterSetIrq                                text157      009E70
__end_of_I2C1_MasterStart                                 text181      009EB2
__end_of_I2C1_MasterStartRx                               text163      009E9E
__end_of_I2C1_MasterStop                                  text179      009EAA
__end_of_I2C1_MasterWaitForEvent                          text139      009E18
__end_of_I2C1_MasterWrite                                 text136      009E10
__end_of_I2C1_Open                                        text134      00854C
__end_of_I2C1_Poller                                      text138      009D4E
__end_of_I2C1_Read1ByteRegister                           text72       008ED6
__end_of_I2C1_SetAddressNackCallback                      text133      009C6E
__end_of_I2C1_SetBuffer                                   text178      009C26
__end_of_I2C1_SetCallback                                 text177      008BC8
__end_of_I2C1_SetDataCompleteCallback                     text176      009C9E
__end_of_INTERRUPT_Initialize                             text102      009E96
__end_of_INTERRUPT_InterruptManager                       intcode      00009C
__end_of_InitFullAutoTime                                 text42       009BF2
__end_of_InitReceiver                                     text5        009BBE
__end_of_InitSoftStart                                    text46       008E7A
__end_of_InitSoftStop                                     text28       009310
__end_of_InitWalkAutoTime                                 text47       009CF4
__end_of_LoadManufCode                                    text61       009ACE
__end_of_NormalKeyGen                                     text60       0073CC
__end_of_OSCILLATOR_Initialize                            text101      009CCA
__end_of_OpenFullOrder                                    text41       009A16
__end_of_OpenWalkOrder                                    text43       008B5A
__end_of_PIN_MANAGER_Initialize                           text100      008070
__end_of_PMD_Initialize                                   text99       009B88
__end_of_RGB_Set                                          text116      009D5C
__end_of_ReadADC                                          text193      0090E4
__end_of_ReadSerial                                       text85       008AEC
__end_of_RemoveSerial                                     text84       00864E
__end_of_ReqResync                                        text65       009CB4
__end_of_ResetDefaultMemory                               text71       0068BC
__end_of_SYSTEM_Initialize                                text91       00973E
__end_of_SaveNVM_VarSystem                                text130      009616
__end_of_Segments_Set                                     text189      009D90
__end_of_SetSegmentValue                                  text90       009C0C
__end_of_SetSegmentValueIntermitent                       text49       00976A
__end_of_SetSegmentValueIntermitentMain                   text52       009D08
__end_of_SetSegmentValueLearn                             text15       0076CE
__end_of_SetSegmentValueMain                              text12       009BD8
__end_of_ShowVersion                                      text89       008D02
__end_of_StopOrder                                        text37       009B50
__end_of_TMR0_DefaultInterruptHandler                     text203      009EC2
__end_of_TMR0_ISR                                         text201      009A62
__end_of_TMR0_Initialize                                  text97       009AF0
__end_of_TMR0_SetInterruptHandler                         text98       009DB8
__end_of_TMR1_DefaultInterruptHandler                     text200      009EC0
__end_of_TMR1_ISR                                         text195      009568
__end_of_TMR1_Initialize                                  text95       009468
__end_of_TMR1_SetInterruptHandler                         text96       009DAE
__end_of_TMR1_WriteTimer                                  text199      009BA4
__end_of_TMR2_DefaultInterruptHandler                     text192      009EBE
__end_of_TMR2_ISR                                         text187      006D06
__end_of_TMR2_Initialize                                  text93       0097C2
__end_of_TMR2_SetInterruptHandler                         text94       009DA4
__end_of_VerifyElectricalBrake                            text113      00883A
__end_of_VerifyFollowMe                                   text31       009AAC
__end_of_WWDT_Initialize                                  text92       009D9A
__end_of_WWDT_SoftEnable                                  text88       009E92
__end_of_WWDT_TimerClear                                  text87       009B6C
__end_of_WaitPreFlash                                     text40       008A0C
__end_of___awdiv                                          text11       0084C8
__end_of___lbdiv                                          text51       0095DE
__end_of___lbmod                                          text10       009978
__end_of___lldiv                                          text16       0085CE
__end_of___lmul                                           text36       00908E
__end_of___lwdiv                                          text125      00918A
__end_of___wmul                                           text127      009A3C
__end_of__initialization                                  cinit        007D3E
__end_of_actionZone_Closed                                text39       007DF2
__end_of_actionZone_Closing                               text33       004E50
__end_of_actionZone_Opened                                text30       005B92
__end_of_actionZone_Opening                               text24       00531A
__end_of_calculateMean                                    text23       008D64
__end_of_checkNVM_VarSystem                               text70       0060CC
__end_of_clearLearningValue                               text22       008748
__end_of_cmdMemoryIsEmpty                                 text83       008102
__end_of_confirmpackage                                   text81       008F30
__end_of_controlLearnDigit                                text14       009710
__end_of_controlMotorForce                                text196      005786
__end_of_controlSaveRemote                                text9        007C98
__end_of_controlSelectRemote                              text6        004260
__end_of_controlTimeslots                                 text190      00659C
__end_of_controlVelocity                                  text26       0059A4
__end_of_decrementTimeslot                                text191      0099A2
__end_of_eusartparser                                     text74       0021CA
__end_of_generateErrorLearnig                             text19       008C9C
__end_of_getCurrentComparator                             text126      006402
__end_of_getHopCode                                       text64       006E34
__end_of_getKeyPressed                                    text73       009C56
__end_of_getSerialCmd                                     text8        009278
__end_of_getStateOpenPosition                             text27       0072BE
__end_of_getTimeDecelaration                              text35       0078B0
__end_of_getTypeRemote                                    text7        009E64
__end_of_i2c1_fsmStateTable                               smallconst   000F21
__end_of_i2c_readDataBlock                                text86       008928
__end_of_i2c_writeNBytes                                  text131      00899C
__end_of_init_package                                     text82       0096AE
__end_of_keeloqDecryptPacket                              text57       005D64
__end_of_keeloq_classic_decrypt_packet                    text59       008FE2
__end_of_loadNVM_VarSystem                                text69       006F62
__end_of_load_New_Menu                                    text4        004BC4
__end_of_main                                             text0        006A44
__end_of_memcpy                                           text132      009426
__end_of_rd1RegCompleteHandler                            text173      0098F6
__end_of_rd1RegCompleteHandler@i2c1_master_example$F500   text169      009872
__end_of_rd2RegCompleteHandler                            text172      0098CA
__end_of_rd2RegCompleteHandler@i2c1_master_example$F511   text168      009846
__end_of_rdBlkRegCompleteHandler                          text170      009528
__end_of_rdBlkRegCompleteHandler@i2c1_master_example$F535 text166      0094E8
__end_of_readInputs                                       text68       0074D4
__end_of_readRFButtons                                    text56       006732
__end_of_read_eusartparser                                text78       002EA0
__end_of_read_package                                     text54       0091DA
__end_of_readbutton                                       text53       008C34
__end_of_refreshADCZeroOffset                             text124      0075D2
__end_of_refreshCurrent                                   text120      00939E
__end_of_refreshSegment                                   text188      008444
__end_of_rxi                                              text202      0050C6
__end_of_saveEnergyADCHist                                text123      0099CA
__end_of_saveNewSerial                                    text77       008A7C
__end_of_setFlashLigth_ON                                 text117      0095A4
__end_of_setPositionInvertionInClosing                    text34       00708A
__end_of_setPositionInvertionInOpening                    text25       00798C
__end_of_setRGB_ON                                        text115      008192
__end_of_setValueToEdit                                   text3        003976
__end_of_sm_execute_ControlGate                           text17       0045AA
__end_of_sm_execute_ControlLearning                       text18       0028D8
__end_of_sm_execute_main                                  text1        003E7E
__end_of_sm_execute_menuConfiguration                     text2        001886
__end_of_sm_get_current_state                             text45       009D2E
__end_of_sm_init                                          text20       009038
__end_of_sm_restart                                       text21       0093E2
__end_of_sm_send_event                                    text44       008E1E
__end_of_sumEnergyADC                                     text122      0082AA
__end_of_sumHIST                                          text121      0077C8
__end_of_validateRemoteSerialNumber                       text76       006268
__end_of_verifyProgramingMode                             text58       00964A
__end_of_wr1RegCompleteHandler                            text174      009922
__end_of_wr1RegCompleteHandler@i2c1_master_example$F517   text167      00981A
__end_of_wr2RegCompleteHandler                            text171      00989E
__end_of_wr2RegCompleteHandler@i2c1_master_example$F523   text175      00994E
__end_of_write_eusartparser                               text75       003444
__end_of_write_package                                    text79       009796
__end_ofi2_GetMotorPower                                  text198      007BE4
__end_ofi2_VerifyElectricalBrake                          text197      0088B2
__initialization                                          cinit        007C98
__mediumconst                                             mediumconst  000000
__pbssBANK0                                               bssBANK0     000060
__pbssBANK1                                               bssBANK1     000100
__pbssBANK2                                               bssBANK2     000200
__pbssBANK3                                               bssBANK3     000300
__pbssCOMRAM                                              bssCOMRAM    00003B
__pcinit                                                  cinit        007C98
__pcstackBANK0                                            cstackBANK0  0000D8
__pcstackBANK2                                            cstackBANK2  0002ED
__pcstackCOMRAM                                           cstackCOMRAM 000001
__pdataBANK0                                              dataBANK0    0000FC
__pdataBANK1                                              dataBANK1    0001FF
__pdataBANK2                                              dataBANK2    0002F4
__pdataBANK3                                              dataBANK3    0003D2
__pidataBANK0                                             idataBANK0   009EBA
__pidataBANK1                                             idataBANK1   009EC4
__pidataBANK2                                             idataBANK2   009E58
__pidataBANK3                                             idataBANK3   009A62
__pintcode                                                intcode      000008
__pnvBANK1                                                nvBANK1      0001FE
__pnvBANK2                                                nvBANK2      0002DB
__psmallconst                                             smallconst   000F00
__ptext0                                                  text0        0068BC
__ptext1                                                  text1        003976
__ptext10                                                 text10       00994E
__ptext100                                                text100      007FD8
__ptext101                                                text101      009CB4
__ptext102                                                text102      009E92
__ptext103                                                text103      009D08
__ptext104                                                text104      00864E
__ptext105                                                text105      009DB8
__ptext106                                                text106      009DC2
__ptext107                                                text107      009DCC
__ptext108                                                text108      009DD6
__ptext109                                                text109      009DE0
__ptext11                                                 text11       008444
__ptext110                                                text110      0091DA
__ptext111                                                text111      009D2E
__ptext112                                                text112      00531A
__ptext113                                                text113      0087C2
__ptext114                                                text114      0045AA
__ptext115                                                text115      008102
__ptext116                                                text116      009D4E
__ptext117                                                text117      009568
__ptext118                                                text118      00708A
__ptext119                                                text119      006A44
__ptext12                                                 text12       009BBE
__ptext120                                                text120      009358
__ptext121                                                text121      0076CE
__ptext122                                                text122      00821E
__ptext123                                                text123      0099A2
__ptext124                                                text124      0074D4
__ptext125                                                text125      009138
__ptext126                                                text126      006268
__ptext127                                                text127      009A16
__ptext128                                                text128      007A58
__ptext129                                                text129      008F30
__ptext13                                                 text13       009E64
__ptext130                                                text130      0095DE
__ptext131                                                text131      008928
__ptext132                                                text132      0093E2
__ptext133                                                text133      009C56
__ptext134                                                text134      0084C8
__ptext135                                                text135      009C6E
__ptext136                                                text136      009E08
__ptext137                                                text137      0097C2
__ptext138                                                text138      009D3E
__ptext139                                                text139      009E10
__ptext14                                                 text14       0096E0
__ptext140                                                text140      0090E4
__ptext141                                                text141      009278
__ptext142                                                text142      009DEA
__ptext143                                                text143      009E18
__ptext144                                                text144      009E20
__ptext145                                                text145      009E28
__ptext146                                                text146      009E30
__ptext147                                                text147      009E38
__ptext148                                                text148      009E40
__ptext149                                                text149      009E48
__ptext15                                                 text15       0075D2
__ptext150                                                text150      009DF4
__ptext151                                                text151      008748
__ptext152                                                text152      0082AA
__ptext153                                                text153      009D5C
__ptext154                                                text154      009D6A
__ptext155                                                text155      009DFE
__ptext156                                                text156      008D64
__ptext157                                                text157      009E6A
__ptext158                                                text158      009D78
__ptext159                                                text159      009E50
__ptext16                                                 text16       00854C
__ptext160                                                text160      009E70
__ptext161                                                text161      009E96
__ptext162                                                text162      009E76
__ptext163                                                text163      009E9A
__ptext164                                                text164      009E9E
__ptext165                                                text165      009EA2
__ptext166                                                text166      0094A8
__ptext167                                                text167      0097EE
__ptext168                                                text168      00981A
__ptext169                                                text169      009846
__ptext17                                                 text17       004260
__ptext170                                                text170      0094E8
__ptext171                                                text171      009872
__ptext172                                                text172      00989E
__ptext173                                                text173      0098CA
__ptext174                                                text174      0098F6
__ptext175                                                text175      009922
__ptext176                                                text176      009C86
__ptext177                                                text177      008B5A
__ptext178                                                text178      009C0C
__ptext179                                                text179      009EA6
__ptext18                                                 text18       0021CA
__ptext180                                                text180      009EAA
__ptext181                                                text181      009EAE
__ptext182                                                text182      009AF0
__ptext183                                                text183      009EB2
__ptext184                                                text184      009EB6
__ptext185                                                text185      009E7C
__ptext187                                                text187      006BB8
__ptext188                                                text188      0083BE
__ptext189                                                text189      009D84
__ptext19                                                 text19       008C34
__ptext190                                                text190      006402
__ptext191                                                text191      009978
__ptext192                                                text192      009EBC
__ptext193                                                text193      00908E
__ptext194                                                text194      009CCA
__ptext195                                                text195      009528
__ptext196                                                text196      005564
__ptext197                                                text197      00883A
__ptext198                                                text198      007B1E
__ptext199                                                text199      009B88
__ptext2                                                  text2        000F22
__ptext20                                                 text20       008FE2
__ptext200                                                text200      009EBE
__ptext201                                                text201      009A3C
__ptext202                                                text202      004E50
__ptext203                                                text203      009EC0
__ptext204                                                text204      0096AE
__ptext205                                                text205      007F3E
__ptext206                                                text206      009E82
__ptext207                                                text207      009EC2
__ptext208                                                text208      009E88
__ptext209                                                text209      009B12
__ptext21                                                 text21       00939E
__ptext210                                                text210      000000
__ptext22                                                 text22       0086CC
__ptext23                                                 text23       008D02
__ptext24                                                 text24       0050C6
__ptext25                                                 text25       0078B0
__ptext26                                                 text26       005786
__ptext27                                                 text27       0071AE
__ptext28                                                 text28       0092C6
__ptext29                                                 text29       009C26
__ptext3                                                  text3        003444
__ptext30                                                 text30       0059A4
__ptext31                                                 text31       009A88
__ptext32                                                 text32       0099CA
__ptext33                                                 text33       004BC4
__ptext34                                                 text34       006F62
__ptext35                                                 text35       0077C8
__ptext36                                                 text36       009038
__ptext37                                                 text37       009B34
__ptext38                                                 text38       007DF2
__ptext39                                                 text39       007D48
__ptext4                                                  text4        0048CE
__ptext40                                                 text40       00899C
__ptext41                                                 text41       0099F0
__ptext42                                                 text42       009BD8
__ptext43                                                 text43       008AEC
__ptext44                                                 text44       008DC2
__ptext45                                                 text45       009D1C
__ptext46                                                 text46       008E1E
__ptext47                                                 text47       009CE0
__ptext48                                                 text48       007E98
__ptext49                                                 text49       00973E
__ptext5                                                  text5        009BA4
__ptext50                                                 text50       005D64
__ptext51                                                 text51       0095A4
__ptext52                                                 text52       009CF4
__ptext53                                                 text53       008BC8
__ptext54                                                 text54       00918A
__ptext55                                                 text55       009310
__ptext56                                                 text56       00659C
__ptext57                                                 text57       005B92
__ptext58                                                 text58       009616
__ptext59                                                 text59       008F8A
__ptext6                                                  text6        003E7E
__ptext60                                                 text60       0072BE
__ptext61                                                 text61       009AAC
__ptext62                                                 text62       00798C
__ptext63                                                 text63       008336
__ptext64                                                 text64       006D06
__ptext65                                                 text65       009C9E
__ptext66                                                 text66       00964A
__ptext67                                                 text67       008192
__ptext68                                                 text68       0073CC
__ptext69                                                 text69       006E34
__ptext7                                                  text7        009E5E
__ptext70                                                 text70       005F2C
__ptext71                                                 text71       006732
__ptext72                                                 text72       008E7A
__ptext73                                                 text73       009C3E
__ptext74                                                 text74       001886
__ptext75                                                 text75       002EA0
__ptext76                                                 text76       0060CC
__ptext77                                                 text77       008A0C
__ptext78                                                 text78       0028D8
__ptext79                                                 text79       00976A
__ptext8                                                  text8        00922A
__ptext80                                                 text80       009468
__ptext81                                                 text81       008ED6
__ptext82                                                 text82       00967C
__ptext83                                                 text83       008070
__ptext84                                                 text84       0085CE
__ptext85                                                 text85       008A7C
__ptext86                                                 text86       0088B2
__ptext87                                                 text87       009B50
__ptext88                                                 text88       009E8E
__ptext89                                                 text89       008C9C
__ptext9                                                  text9        007BE4
__ptext90                                                 text90       009BF2
__ptext91                                                 text91       009710
__ptext92                                                 text92       009D90
__ptext93                                                 text93       009796
__ptext94                                                 text94       009D9A
__ptext95                                                 text95       009426
__ptext96                                                 text96       009DA4
__ptext97                                                 text97       009ACE
__ptext98                                                 text98       009DAE
__ptext99                                                 text99       009B6C
__ramtop                                                  ramtop       000F00
__smallconst                                              smallconst   000F00
_actionZone_Closed                                        text39       007D48
_actionZone_Closing                                       text33       004BC4
_actionZone_Opened                                        text30       0059A4
_actionZone_Opening                                       text24       0050C6
_auxCounter                                               dataBANK0    0000FC
_aux_i                                                    bssBANK1     000191
_aux_in_auto_close                                        bssBANK1     000190
_brakeElectric_st                                         bssBANK0     000078
_button_struct                                            bssCOMRAM    00004C
_calculateMean                                            text23       008D02
_checkNVM_VarSystem                                       text70       005F2C
_classic_data                                             bssBANK2     000290
_clearLearningValue                                       text22       0086CC
_cmdMemoryIsEmpty                                         text83       008070
_confirmpackage                                           text81       008ED6
_controlGate_stateMachine                                 bssBANK1     0001E7
_controlLearnDigit                                        text14       0096E0
_controlLearning_stateMachine                             bssBANK2     0002B0
_controlMotorForce                                        text196      005564
_controlSaveRemote                                        text9        007BE4
_controlSelectRemote                                      text6        003E7E
_controlTimeslots                                         text190      006402
_controlVelocity                                          text26       005786
_control_limit_switch                                     bssBANK0     000081
_decrementTimeslot                                        text191      009978
_difTime                                                  bssBANK1     000194
_dispStruct                                               bssBANK0     000072
_edit_Param                                               bssCOMRAM    000046
_erroranterior                                            bssBANK1     00018D
_eusart1RxBuffer                                          bssBANK2     00027C
_eusart1RxCount                                           bssBANK0     000093
_eusart1RxHead                                            bssBANK0     000095
_eusart1RxLastError                                       bssBANK1     00019E
_eusart1RxStatusBuffer                                    bssBANK2     000274
_eusart1RxTail                                            bssBANK0     000094
_eusart1TxBuffer                                          bssBANK2     000284
_eusart1TxBufferRemaining                                 nvBANK1      0001FE
_eusart1TxHead                                            bssBANK0     000097
_eusart1TxTail                                            bssBANK0     000096
_eusartparser                                             text74       001886
_fimdecurso                                               bssBANK1     000175
_firstselectflag                                          dataBANK1    0001FF
_fullmotorPower                                           bssBANK0     000082
_generateErrorLearnig                                     text19       008C34
_getCurrentComparator                                     text126      006268
_getHopCode                                               text64       006D06
_getKeyPressed                                            text73       009C3E
_getSerialCmd                                             text8        00922A
_getStateOpenPosition                                     text27       0071AE
_getTimeDecelaration                                      text35       0077C8
_getTypeRemote                                            text7        009E5E
_i2c1_fsmStateTable                                       smallconst   000F01
_i2c_readDataBlock                                        text86       0088B2
_i2c_writeNBytes                                          text131      008928
_idxAdcAquisition                                         bssBANK0     000091
_idxAdcZeroAquisition                                     bssBANK0     00008F
_idxSaveEnergyADCHist                                     bssBANK0     000090
_init_package                                             text82       00967C
_keeloqDecryptPacket                                      text57       005B92
_keeloq_classic_decrypt_packet                            text59       008F8A
_lastKey                                                  bssBANK1     000199
_learn_st                                                 bssBANK0     000060
_listSyncValues                                           bssBANK3     000300
_loadNVM_VarSystem                                        text69       006E34
_load_New_Menu                                            text4        0048CE
_main                                                     text0        0068BC
_main_stateMachine                                        bssBANK1     0001F2
_memcpy                                                   text132      0093E2
_memoryTEMP                                               bssBANK2     0002A0
_menuConfiguration_stateMachine                           bssBANK2     0002BB
_menu_st                                                  bssBANK1     000151
_numberOfErrorCurrent                                     bssBANK0     00008E
_pointSync                                                bssBANK0     00007A
_powerControl_st                                          bssBANK1     00017B
_programmer_enable                                        bssBANK0     000085
_rd1RegCompleteHandler                                    text173      0098CA
_rd1RegCompleteHandler@i2c1_master_example$F500           text169      009846
_rd2RegCompleteHandler                                    text172      00989E
_rd2RegCompleteHandler@i2c1_master_example$F511           text168      00981A
_rdBlkRegCompleteHandler                                  text170      0094E8
_rdBlkRegCompleteHandler@i2c1_master_example$F535         text166      0094A8
_readInputs                                               text68       0073CC
_readRFButtons                                            text56       00659C
_read_eusartparser                                        text78       0028D8
_read_package                                             text54       00918A
_readbutton                                               text53       008BC8
_refreshADCZeroOffset                                     text124      0074D4
_refreshCurrent                                           text120      009358
_refreshSegment                                           text188      0083BE
_rfCMD                                                    bssCOMRAM    00003B
_rxi                                                      text202      004E50
_saveEnergyADCHist                                        text123      0099A2
_saveNewSerial                                            text77       008A0C
_security                                                 bssBANK1     00016A
_setFlashLigth_ON                                         text117      009568
_setPositionInvertionInClosing                            text34       006F62
_setPositionInvertionInOpening                            text25       0078B0
_setRGB_ON                                                text115      008102
_setValueToEdit                                           text3        003444
_sm_execute_ControlGate                                   text17       004260
_sm_execute_ControlLearning                               text18       0021CA
_sm_execute_main                                          text1        003976
_sm_execute_menuConfiguration                             text2        000F22
_sm_get_current_state                                     text45       009D1C
_sm_init                                                  text20       008FE2
_sm_restart                                               text21       00939E
_sm_send_event                                            text44       008DC2
_stateMotor                                               bssBANK0     000083
_sumEnergyADC                                             text122      00821E
_sumHIST                                                  text121      0076CE
_temp                                                     bssBANK0     000080
_tempCounter                                              dataBANK2    0002F4
_temppower                                                bssBANK1     000193
_timer0ReloadVal16bit                                     bssBANK2     00028E
_timer1ReloadVal                                          nvBANK2      0002DF
_ts_system                                                bssBANK1     00019F
_validateRemoteSerialNumber                               text76       0060CC
_var_sys                                                  bssBANK1     000100
_var_sys_NVM                                              bssBANK0     000098
_verifyProgramingMode                                     text58       009616
_waitZeroPeak                                             bssBANK1     000196
_wr1RegCompleteHandler                                    text174      0098F6
_wr1RegCompleteHandler@i2c1_master_example$F517           text167      0097EE
_wr2RegCompleteHandler                                    text171      009872
_wr2RegCompleteHandler@i2c1_master_example$F523           text175      009922
_write_eusartparser                                       text75       002EA0
_write_package                                            text79       00976A
_zeroCrossing                                             bssBANK1     000197
_zeroCrossingLength                                       bssBANK1     000198
_zeroCrossingWaitTime                                     dataBANK2    0002F8
_zeroCrossingWaitTimeIdx                                  bssBANK0     000084
actionZone_Closed@securityOpening                         cstackCOMRAM 000020
actionZone_Closed@typeOpenOrder                           cstackCOMRAM 000021
actionZone_Closing@securityClosing                        cstackCOMRAM 000032
actionZone_Closing@typeOpenOrder                          cstackCOMRAM 000033
actionZone_Opened@securityClosing                         cstackCOMRAM 000020
actionZone_Opened@typeOpenOrder                           cstackCOMRAM 000021
actionZone_Opening@securityClosing                        cstackBANK0  0000E4
actionZone_Opening@securityOpening                        cstackBANK0  0000E5
actionZone_Opening@typeOpenOrder                          cstackBANK0  0000E6
btemp                                                     temp         000050
calculateMean@meanValue                                   cstackCOMRAM 000010
calculateMean@newValue                                    cstackCOMRAM 000014
checkNVM_VarSystem@saveParam                              cstackCOMRAM 00003A
cmdMemoryIsEmpty@cmdType                                  cstackCOMRAM 000031
cmdMemoryIsEmpty@position                                 cstackCOMRAM 00002E
cmdMemoryIsEmpty@tempSerial                               cstackCOMRAM 000032
confirmpackage@confirm                                    cstackCOMRAM 000014
confirmpackage@package                                    cstackCOMRAM 000012
controlSelectRemote@pos                                   cstackBANK0  0000E2
controlSelectRemote@temp                                  cstackBANK0  0000E8
controlSelectRemote@tempSerial                            cstackBANK0  0000E4
controlSelectRemote@typeRemote                            cstackBANK0  0000E3
controlSelectRemote@validSerial                           cstackBANK0  0000E1
decrementTimeslot@ts                                      cstackCOMRAM 000001
end_of_initialization                                     cinit        007D3E
eusartparser@buffer                                       bssBANK1     000185
eusartparser@i                                            cstackBANK0  0000E8
eusartparser@i_7305                                       cstackBANK0  0000E9
eusartparser@i_7306                                       cstackBANK0  0000ED
eusartparser@i_7307                                       cstackBANK0  0000EE
eusartparser@i_7308                                       cstackBANK0  0000F1
eusartparser@i_7309                                       cstackBANK0  0000F2
eusartparser@i_7310                                       cstackBANK0  0000F3
eusartparser@i_7312                                       cstackBANK0  0000EA
eusartparser@i_7313                                       cstackBANK0  0000EB
eusartparser@i_7314                                       cstackBANK0  0000EF
eusartparser@i_7315                                       cstackBANK0  0000F0
eusartparser@i_7316                                       cstackBANK0  0000F4
eusartparser@i_7317                                       cstackBANK0  0000F5
eusartparser@i_7318                                       cstackBANK0  0000F6
eusartparser@package                                      cstackBANK0  0000E0
eusartparser@pos                                          cstackBANK0  0000EC
eusartparser@relcounter                                   cstackBANK0  0000F7
eusartparser@save_f                                       bssBANK1     00018F
eusartparser@serial                                       cstackBANK0  0000F8
getCurrentComparator@tempOffset                           cstackCOMRAM 000020
getCurrentComparator@x                                    cstackCOMRAM 000022
getHopCode@data                                           cstackCOMRAM 000016
getHopCode@i                                              cstackCOMRAM 000023
getHopCode@tempHop                                        cstackCOMRAM 000020
getHopCode@tempPos                                        cstackCOMRAM 000022
getKeyPressed@temp                                        cstackCOMRAM 000010
getSerialCmd@serial                                       cstackCOMRAM 00001B
getSerialCmd@temp                                         cstackCOMRAM 00001C
getStateOpenPosition@state                                cstackBANK0  0000D8
getStateOpenPosition@stateMotor                           cstackBANK0  0000D9
getTimeDecelaration@state                                 cstackCOMRAM 000031
i2GetMotorPower@defineatraso                              cstackCOMRAM 000004
i2VerifyElectricalBrake@actualState                       cstackCOMRAM 000002
i2VerifyElectricalBrake@tempState                         cstackCOMRAM 000001
i2_GetMotorPower                                          text198      007B1E
i2_VerifyElectricalBrake                                  text197      00883A
i2c_readDataBlock@address                                 cstackCOMRAM 000029
i2c_readDataBlock@d                                       cstackCOMRAM 00002A
i2c_readDataBlock@data                                    cstackCOMRAM 000024
i2c_readDataBlock@len                                     cstackCOMRAM 000026
i2c_readDataBlock@reg                                     cstackCOMRAM 000022
i2c_writeNBytes@address                                   cstackCOMRAM 000039
i2c_writeNBytes@dat                                       cstackCOMRAM 000028
i2c_writeNBytes@data                                      cstackCOMRAM 000024
i2c_writeNBytes@len                                       cstackCOMRAM 000025
i2c_writeNBytes@reg                                       cstackCOMRAM 000022
init_package@package                                      cstackCOMRAM 000010
int$flags                                                 temp         000050
intlevel0                                                 text         000000
intlevel1                                                 text         000000
intlevel2                                                 text         000000
intlevel3                                                 text         000000
isa$std                                                   (abs)        000001
isa$xinst                                                 (abs)        000000
keeloqDecryptPacket@classic_data                          cstackBANK0  0000E2
keeloqDecryptPacket@commandType                           cstackBANK0  0000E9
keeloqDecryptPacket@data                                  cstackBANK0  0000E0
keeloqDecryptPacket@hop_error                             cstackBANK0  0000E8
keeloq_classic_decrypt_packet@data                        cstackCOMRAM 000038
load_New_Menu@Menu                                        cstackCOMRAM 000022
load_New_Menu@i                                           cstackCOMRAM 000023
main@package                                              cstackBANK2  0002ED
memcpy@d                                                  cstackCOMRAM 000017
memcpy@d1                                                 cstackCOMRAM 000010
memcpy@n                                                  cstackCOMRAM 000014
memcpy@s                                                  cstackCOMRAM 000019
memcpy@s1                                                 cstackCOMRAM 000012
memcpy@tmp                                                cstackCOMRAM 000016
rd1RegCompleteHandler@i2c1_master_example$F500@ptr        cstackCOMRAM 000019
rd1RegCompleteHandler@p                                   cstackCOMRAM 000019
rd2RegCompleteHandler@i2c1_master_example$F511@ptr        cstackCOMRAM 000019
rd2RegCompleteHandler@p                                   cstackCOMRAM 000019
rdBlkRegCompleteHandler@i2c1_master_example$F535@ptr      cstackCOMRAM 000019
rdBlkRegCompleteHandler@p                                 cstackCOMRAM 000019
readRFButtons@key1                                        bssBANK0     000088
readRFButtons@keyType                                     bssBANK0     000087
readRFButtons@rollingCode                                 bssBANK1     000189
readRFButtons@serial                                      bssBANK1     000181
readRFButtons@typeRemote                                  bssBANK1     00019C
read_eusartparser@package                                 cstackCOMRAM 000018
read_package@package                                      cstackCOMRAM 000018
readbutton@key1                                           bssBANK0     000086
readbutton@key2                                           bssBANK1     00019B
refreshADCZeroOffset@i                                    cstackCOMRAM 000017
refreshADCZeroOffset@media                                cstackCOMRAM 000018
saveEnergyADCHist@valueToSave                             cstackCOMRAM 000010
saveNewSerial@cmdType                                     cstackCOMRAM 00003A
saveNewSerial@position                                    cstackBANK0  0000DC
saveNewSerial@tempSerial                                  cstackBANK0  0000D8
setFlashLigth_ON@Freq                                     cstackCOMRAM 000010
setRGB_ON@Freq                                            cstackCOMRAM 000011
setRGB_ON@RGBLigth                                        cstackCOMRAM 000015
setValueToEdit@ParameterSelected                          cstackCOMRAM 00003A
setValueToEdit@haveValueToEdit                            cstackBANK0  0000E1
setValueToEdit@menuType                                   cstackBANK0  0000DE
setValueToEdit@posindex                                   cstackBANK0  0000DF
setValueToEdit@posindex_6979                              cstackBANK0  0000E0
setValueToEdit@value                                      bssBANK1     0001FD
sm_execute_ControlGate@psm                                cstackBANK0  0000E7
sm_execute_ControlGate@typeOpenOrder                      cstackBANK0  0000EB
sm_execute_ControlLearning@psm                            cstackBANK0  0000DC
sm_execute_ControlLearning@typeOpenOrder                  cstackCOMRAM 00003A
sm_execute_main@psm                                       cstackBANK0  0000ED
sm_execute_menuConfiguration@psm                          cstackBANK0  0000E9
sm_get_current_state@psm                                  cstackCOMRAM 000010
sm_init@hist_mode                                         cstackCOMRAM 000016
sm_init@initial_state                                     cstackCOMRAM 000014
sm_init@psm                                               cstackCOMRAM 000012
sm_restart@psm                                            cstackCOMRAM 000010
sm_send_event@event                                       cstackCOMRAM 000014
sm_send_event@psm                                         cstackCOMRAM 000012
stackhi                                                   (abs)        000000
stacklo                                                   (abs)        000000
start                                                     init         00009C
start_initialization                                      cinit        007C98
sumEnergyADC@auxValue                                     cstackCOMRAM 000016
sumEnergyADC@i                                            cstackCOMRAM 000018
sumEnergyADC@sumE                                         cstackCOMRAM 000014
sumHIST@i                                                 cstackCOMRAM 000020
sumHIST@max                                               cstackCOMRAM 000018
sumHIST@min                                               cstackCOMRAM 00001A
sumHIST@sumH                                              cstackCOMRAM 00001C
ttemp5                                                    temp         000051
ttemp6                                                    temp         000054
ttemp7                                                    temp         000058
validateRemoteSerialNumber@VerifyOnlySerial               cstackCOMRAM 000032
validateRemoteSerialNumber@i                              cstackCOMRAM 00003A
validateRemoteSerialNumber@j                              cstackCOMRAM 000039
validateRemoteSerialNumber@mask                           cstackCOMRAM 000035
validateRemoteSerialNumber@position                       cstackCOMRAM 000033
validateRemoteSerialNumber@serial                         cstackCOMRAM 00002E
verifyProgramingMode@classic_data                         cstackCOMRAM 000010
wr1RegCompleteHandler@i2c1_master_example$F517@ptr        cstackCOMRAM 000019
wr1RegCompleteHandler@p                                   cstackCOMRAM 000019
wr2RegCompleteHandler@i2c1_master_example$F523@ptr        cstackCOMRAM 000019
wr2RegCompleteHandler@p                                   cstackCOMRAM 000019
write_eusartparser@debug                                  cstackCOMRAM 00001F
write_eusartparser@debug2                                 cstackCOMRAM 000021
write_eusartparser@package                                cstackCOMRAM 000010
write_package@package                                     cstackCOMRAM 000011
wtemp8                                                    temp         000051


MODULE INFORMATION

Module		Function		Class		Link	Load	Size
controlMemory_MC50.c
		_SaveNVM_VarSystem		CODE           	95DE	0000	56
		_validateRemoteSerialNumber		CODE           	60CC	0000	412
		_checkNVM_VarSystem		CODE           	5F2C	0000	416
		_saveNewSerial 		CODE           	8A0C	0000	112
		_ReadSerial    		CODE           	8A7C	0000	112
		_ControlCounterMoves		CODE           	8F30	0000	90
		_ResetDefaultMemory		CODE           	6732	0000	394
		_RemoveSerial  		CODE           	85CE	0000	128
		_loadNVM_VarSystem		CODE           	6E34	0000	302
		_cmdMemoryIsEmpty		CODE           	8070	0000	146

controlMemory_MC50.c estimated size: 2168

sm_ControlGate_MC50.c
		_setPositionInvertionInOpening		CODE           	78B0	0000	220
		_WaitPreFlash  		CODE           	899C	0000	112
		_actionZone_Opened		CODE           	59A4	0000	494
		_actionZone_Closed		CODE           	7D48	0000	170
		_InitFullAutoTime		CODE           	9BD8	0000	26
		_InitSoftStop  		CODE           	92C6	0000	74
		_InitWalkAutoTime		CODE           	9CE0	0000	20
		_StopOrder     		CODE           	9B34	0000	28
		_InitSoftStart 		CODE           	8E1E	0000	92
		_actionZone_Opening		CODE           	50C6	0000	596
		_actionZone_Closing		CODE           	4BC4	0000	652
		_VerifyFollowMe		CODE           	9A88	0000	36
		_sm_execute_ControlGate		CODE           	4260	0000	842
		_CloseOrder    		CODE           	99CA	0000	38
		_setPositionInvertionInClosing		CODE           	6F62	0000	296
		_OpenFullOrder 		CODE           	99F0	0000	38
		_OpenWalkOrder 		CODE           	8AEC	0000	110

sm_ControlGate_MC50.c estimated size: 3844

mcc_generated_files/examples/i2c1_master_example.c
		_rdBlkRegCompleteHandler@i2c1_master_example$F535		CODE           	94A8	0000	64
		_rd1RegCompleteHandler@i2c1_master_example$F500		CODE           	9846	0000	44
		_rd2RegCompleteHandler@i2c1_master_example$F511		CODE           	981A	0000	44
		_wr1RegCompleteHandler@i2c1_master_example$F517		CODE           	97EE	0000	44
		_wr2RegCompleteHandler@i2c1_master_example$F523		CODE           	9922	0000	44
		_I2C1_Read1ByteRegister		CODE           	8E7A	0000	92

mcc_generated_files/examples/i2c1_master_example.c estimated size: 332

controlCurrent_MC50.c
		_refreshADCZeroOffset		CODE           	74D4	0000	254
		_getCurrentComparator		CODE           	6268	0000	410
		_ControlCurrent		CODE           	6A44	0000	372
		_refreshCurrent		CODE           	9358	0000	70
		_ReadADC       		CODE           	908E	0000	86
		_sumEnergyADC  		CODE           	821E	0000	140
		_sumHIST       		CODE           	76CE	0000	250
		_saveEnergyADCHist		CODE           	99A2	0000	40

controlCurrent_MC50.c estimated size: 1622

sm_Main_MC50.c
		_sm_execute_main		CODE           	3976	0000	1288

sm_Main_MC50.c estimated size: 1288

outputs_MC50.c
		_getTimeDecelaration		CODE           	77C8	0000	232
		_Segments_Set  		CODE           	9D84	0000	12
		_ControlMotor  		CODE           	531A	0000	586
		_SetSegmentValueMain		CODE           	9BBE	0000	26
		_GetMotorPower 		CODE           	7A58	0000	198
		_ControlLights 		CODE           	45AA	0000	804
		_RGB_Set       		CODE           	9D4E	0000	14
		_refreshSegment		CODE           	83BE	0000	134
		_setFlashLigth_ON		CODE           	9568	0000	60
		_getStateOpenPosition		CODE           	71AE	0000	272
		_controlMotorForce		CODE           	5564	0000	546
		_SetSegmentValueIntermitent		CODE           	973E	0000	44
		_SetSegmentValueLearn		CODE           	75D2	0000	252
		_SetSegmentValue		CODE           	9BF2	0000	26
		_VerifyElectricalBrake		CODE           	87C2	0000	120
		_SetSegmentValueIntermitentMain		CODE           	9CF4	0000	20
		_setRGB_ON     		CODE           	8102	0000	144
		_controlVelocity		CODE           	5786	0000	542
		_ControlDecelarationFactor		CODE           	9C26	0000	24

outputs_MC50.c estimated size: 4056

mcc_generated_files/i2c1_master.c
		_I2C1_DO_SEND_RESTART		CODE           	9E38	0000	8
		_I2C1_DO_TX_EMPTY		CODE           	8D64	0000	94
		_I2C1_DO_SEND_RESTART_READ		CODE           	9E48	0000	8
		_I2C1_CallbackReturnStop		CODE           	9EA2	0000	4
		_I2C1_DO_RX    		CODE           	8748	0000	122
		_I2C1_DO_TX    		CODE           	82AA	0000	140
		_I2C1_SetAddressNackCallback		CODE           	9C56	0000	24
		_I2C1_DO_IDLE  		CODE           	9DFE	0000	10
		_I2C1_MasterOpen		CODE           	9C6E	0000	24
		_I2C1_DO_RCEN  		CODE           	9DF4	0000	10
		_I2C1_MasterSendTxData		CODE           	9E50	0000	8
		_I2C1_MasterStop		CODE           	9EA6	0000	4
		_I2C1_CallbackReturnReset		CODE           	9E9E	0000	4
		_I2C1_DO_RESET 		CODE           	9DEA	0000	10
		_I2C1_MasterStartRx		CODE           	9E9A	0000	4
		_I2C1_Poller   		CODE           	9D3E	0000	16
		_I2C1_DO_RX_ACK		CODE           	9E28	0000	8
		_I2C1_MasterWaitForEvent		CODE           	9E10	0000	8
		_I2C1_MasterSendNack		CODE           	9E76	0000	6
		_I2C1_DO_RX_NACK_RESTART		CODE           	9E18	0000	8
		_I2C1_MasterDisableIrq		CODE           	9EB2	0000	4
		_I2C1_MasterOperation		CODE           	97C2	0000	44
		_I2C1_SetCallback		CODE           	8B5A	0000	110
		_I2C1_MasterEnableRestart		CODE           	9EAA	0000	4
		_I2C1_Open     		CODE           	84C8	0000	132
		_I2C1_DO_ADDRESS_NACK		CODE           	9278	0000	78
		_I2C1_SetBuffer		CODE           	9C0C	0000	26
		_I2C1_DO_SEND_RESTART_WRITE		CODE           	9E40	0000	8
		_I2C1_MasterClose		CODE           	9EB6	0000	4
		_I2C1_MasterWrite		CODE           	9E08	0000	8
		_I2C1_Initialize		CODE           	9D08	0000	20
		_I2C1_Close    		CODE           	9AF0	0000	34
		_I2C1_MasterIsNack		CODE           	9D78	0000	12
		_I2C1_MasterStart		CODE           	9EAE	0000	4
		_I2C1_DO_SEND_ADR_WRITE		CODE           	9D5C	0000	14
		_I2C1_MasterClearIrq		CODE           	9E7C	0000	6
		_I2C1_SetDataCompleteCallback		CODE           	9C86	0000	24
		_I2C1_DO_SEND_STOP		CODE           	9E30	0000	8
		_I2C1_MasterSendAck		CODE           	9E70	0000	6
		_I2C1_MasterFsm		CODE           	90E4	0000	84
		_I2C1_MasterGetRxData		CODE           	9E96	0000	4
		_I2C1_MasterSetIrq		CODE           	9E6A	0000	6
		_I2C1_DO_SEND_ADR_READ		CODE           	9D6A	0000	14
		_I2C1_DO_RX_NACK_STOP		CODE           	9E20	0000	8

mcc_generated_files/i2c1_master.c estimated size: 1182

eusartparser.c
		_read_eusartparser		CODE           	28D8	0000	1480
		_confirmpackage		CODE           	8ED6	0000	90
		_write_eusartparser		CODE           	2EA0	0000	1444
		_eusartparser  		CODE           	1886	0000	2372

eusartparser.c estimated size: 5386

mcc_generated_files/tmr2.c
		_TMR2_ISR      		CODE           	6BB8	0000	334
		_TMR2_Initialize		CODE           	9796	0000	44
		_TMR2_SetInterruptHandler		CODE           	9D9A	0000	10
		_TMR2_DefaultInterruptHandler		CODE           	9EBC	0000	2

mcc_generated_files/tmr2.c estimated size: 390

mcc_generated_files/interrupt_manager.c
		_INTERRUPT_Initialize		CODE           	9E92	0000	4
		_INTERRUPT_InterruptManager		CODE           	0008	0000	148

mcc_generated_files/interrupt_manager.c estimated size: 152

C:\Program Files\Microchip\xc8\v2.36\pic\sources\c99\common\Umul32.c
		___lmul        		CODE           	9038	0000	86

C:\Program Files\Microchip\xc8\v2.36\pic\sources\c99\common\Umul32.c estimated size: 86

inputs_MC50.c
		_ControlInputs 		CODE           	708A	0000	292
		_readbutton    		CODE           	8BC8	0000	108
		_ClearFlag_rfCMD		CODE           	9E64	0000	6
		_getSerialCmd  		CODE           	922A	0000	78
		_rxi           		CODE           	4E50	0000	630
		_GetSecurityStateInClosing		CODE           	7DF2	0000	166
		_getTypeRemote 		CODE           	9E5E	0000	6
		_GetOpenOrder  		CODE           	5D64	0000	456
		_readInputs    		CODE           	73CC	0000	264
		_InitReceiver  		CODE           	9BA4	0000	26
		_GetSecurityStateInOpening		CODE           	7E98	0000	166
		_getKeyPressed 		CODE           	9C3E	0000	24
		_readRFButtons 		CODE           	659C	0000	406

inputs_MC50.c estimated size: 2628

mcc_generated_files/tmr0.c
		_TMR0_SetInterruptHandler		CODE           	9DAE	0000	10
		_TMR0_DefaultInterruptHandler		CODE           	9EC0	0000	2
		_TMR0_ISR      		CODE           	9A3C	0000	38
		_TMR0_Initialize		CODE           	9ACE	0000	34

mcc_generated_files/tmr0.c estimated size: 84

sm_MenuConfiguration_MC50.c
		_load_New_Menu 		CODE           	48CE	0000	758
		_sm_execute_menuConfiguration		CODE           	0F22	0000	2404
		_controlSelectRemote		CODE           	3E7E	0000	994
		_setValueToEdit		CODE           	3444	0000	1330
		_controlSaveRemote		CODE           	7BE4	0000	180
		_controlLearnDigit		CODE           	96E0	0000	48

sm_MenuConfiguration_MC50.c estimated size: 5714

mcc_generated_files/pin_manager.c
		_PIN_MANAGER_Initialize		CODE           	7FD8	0000	152

mcc_generated_files/pin_manager.c estimated size: 152

main_MC50.c
		_decrementTimeslot		CODE           	9978	0000	42
		_ShowVersion   		CODE           	8C9C	0000	102
		_main          		CODE           	68BC	0000	392
		_controlTimeslots		CODE           	6402	0000	410

main_MC50.c estimated size: 946

C:\Program Files\Microchip\xc8\v2.36\pic\sources\c99\common\__lldiv.c
		___lldiv       		CODE           	854C	0000	130

C:\Program Files\Microchip\xc8\v2.36\pic\sources\c99\common\__lldiv.c estimated size: 130

mcc_generated_files/drivers/i2c_simple_master.c
		_i2c_readDataBlock		CODE           	88B2	0000	118
		_wr1RegCompleteHandler		CODE           	98F6	0000	44
		_wr2RegCompleteHandler		CODE           	9872	0000	44
		_i2c_writeNBytes		CODE           	8928	0000	116
		_rdBlkRegCompleteHandler		CODE           	94E8	0000	64
		_rd1RegCompleteHandler		CODE           	98CA	0000	44
		_rd2RegCompleteHandler		CODE           	989E	0000	44

mcc_generated_files/drivers/i2c_simple_master.c estimated size: 474

C:\Program Files\Microchip\xc8\v2.36\pic\sources\c99\common\lwdiv.c
		___lwdiv       		CODE           	9138	0000	82

C:\Program Files\Microchip\xc8\v2.36\pic\sources\c99\common\lwdiv.c estimated size: 82

C:\Program Files\Microchip\xc8\v2.36\pic\sources\c99\common\awdiv.c
		___awdiv       		CODE           	8444	0000	132

C:\Program Files\Microchip\xc8\v2.36\pic\sources\c99\common\awdiv.c estimated size: 132

C:\Program Files\Microchip\xc8\v2.36\pic\sources\c99\common\lbmod.c
		___lbmod       		CODE           	994E	0000	42

C:\Program Files\Microchip\xc8\v2.36\pic\sources\c99\common\lbmod.c estimated size: 42

shared
		i2_VerifyElectricalBrake		CODE           	883A	0000	120
		__initialization		CODE           	7C98	0000	166
		_i2c1_fsmStateTable		SMALLCONST     	0F01	0000	32
		i2_GetMotorPower		CODE           	7B1E	0000	198

shared estimated size: 516

mcc_generated_files/eusart1.c
		_EUSART1_SetRxInterruptHandler		CODE           	9DC2	0000	10
		_EUSART1_SetTxInterruptHandler		CODE           	9DB8	0000	10
		_EUSART1_is_rx_ready		CODE           	9D2E	0000	16
		_EUSART1_Initialize		CODE           	864E	0000	126
		_EUSART1_DefaultErrorHandler		CODE           	9E88	0000	6
		_EUSART1_SetFramingErrorHandler		CODE           	9DD6	0000	10
		_EUSART1_Read  		CODE           	9310	0000	72
		_EUSART1_SetOverrunErrorHandler		CODE           	9DCC	0000	10
		_EUSART1_SetErrorHandler		CODE           	9DE0	0000	10
		_EUSART1_Write 		CODE           	9468	0000	64
		_EUSART1_Receive_ISR		CODE           	7F3E	0000	154
		_EUSART1_RxDataHandler		CODE           	9B12	0000	34
		_EUSART1_DefaultOverrunErrorHandler		CODE           	9E82	0000	6
		_EUSART1_Transmit_ISR		CODE           	96AE	0000	50
		_EUSART1_DefaultFramingErrorHandler		CODE           	9EC2	0000	2

mcc_generated_files/eusart1.c estimated size: 580

mcc_generated_files/mcc.c
		_WWDT_TimerClear		CODE           	9B50	0000	28
		_PMD_Initialize		CODE           	9B6C	0000	28
		_OSCILLATOR_Initialize		CODE           	9CB4	0000	22
		_SYSTEM_Initialize		CODE           	9710	0000	46
		_WWDT_Initialize		CODE           	9D90	0000	10
		_WWDT_SoftEnable		CODE           	9E8E	0000	4

mcc_generated_files/mcc.c estimated size: 138

sm_common_MC50.c
		_sm_restart    		CODE           	939E	0000	68
		_sm_get_current_state		CODE           	9D1C	0000	18
		_sm_init       		CODE           	8FE2	0000	86
		_sm_send_event 		CODE           	8DC2	0000	92

sm_common_MC50.c estimated size: 264

mcc_generated_files/tmr1.c
		_TMR1_Initialize		CODE           	9426	0000	66
		_TMR1_SetInterruptHandler		CODE           	9DA4	0000	10
		_TMR1_DefaultInterruptHandler		CODE           	9EBE	0000	2
		_TMR1_WriteTimer		CODE           	9B88	0000	28
		_TMR1_ISR      		CODE           	9528	0000	64

mcc_generated_files/tmr1.c estimated size: 170

eusartpackage.c
		_write_package 		CODE           	976A	0000	44
		_init_package  		CODE           	967C	0000	50
		_read_package  		CODE           	918A	0000	80

eusartpackage.c estimated size: 174

keeloqDecrypt_MC50.c
		_NormalKeyGen  		CODE           	72BE	0000	270
		_keeloqDecryptPacket		CODE           	5B92	0000	466
		_DecCHK        		CODE           	964A	0000	50
		_Decrypt       		CODE           	798C	0000	204
		_ReqResync     		CODE           	9C9E	0000	22
		_getHopCode    		CODE           	6D06	0000	302
		_LoadManufCode 		CODE           	9AAC	0000	34
		_keeloq_classic_decrypt_packet		CODE           	8F8A	0000	88
		_DecryptPacket_12BIT		CODE           	8192	0000	140
		_verifyProgramingMode		CODE           	9616	0000	52
		_HopCHK        		CODE           	8336	0000	136

keeloqDecrypt_MC50.c estimated size: 1764

mcc_generated_files/adcc.c
		_ADCC_GetSingleConversion		CODE           	9CCA	0000	22
		_ADCC_Initialize		CODE           	91DA	0000	80

mcc_generated_files/adcc.c estimated size: 102

C:\Program Files\Microchip\xc8\v2.36\pic\sources\c99\common\memcpy.c
		_memcpy        		CODE           	93E2	0000	68

C:\Program Files\Microchip\xc8\v2.36\pic\sources\c99\common\memcpy.c estimated size: 68

C:\Program Files\Microchip\xc8\v2.36\pic\sources\c99\common\Umul16.c
		___wmul        		CODE           	9A16	0000	38

C:\Program Files\Microchip\xc8\v2.36\pic\sources\c99\common\Umul16.c estimated size: 38

C:\Program Files\Microchip\xc8\v2.36\pic\sources\c99\common\lbdiv.c
		___lbdiv       		CODE           	95A4	0000	58

C:\Program Files\Microchip\xc8\v2.36\pic\sources\c99\common\lbdiv.c estimated size: 58

sm_ControlLearning_MC50.c
		_sm_execute_ControlLearning		CODE           	21CA	0000	1806
		_calculateMean 		CODE           	8D02	0000	98
		_generateErrorLearnig		CODE           	8C34	0000	104
		_clearLearningValue		CODE           	86CC	0000	124

sm_ControlLearning_MC50.c estimated size: 2132

