Microchip MPLAB XC8 Compiler V2.36

Linker command line:

-W-3 --edf=C:\Program Files\Microchip\xc8\v2.36\pic\dat\en_msgs.txt -cn \
  -h+dist/default/debug\MC50UNI.V.0.2.3.X.debug.sym \
  --cmf=dist/default/debug\MC50UNI.V.0.2.3.X.debug.cmf -z -Q18F46K40 \
  -oC:\Users\RAFAEL~1\AppData\Local\Temp\xcAsa64.4 --defsym=__MPLAB_BUILD=1 \
  -Mdist/default/debug/MC50UNI.V.0.2.3.X.debug.map \
  --md=C:\Users\RAFAEL~1\AppData\Local\Temp\xcAsa64.dat -E1 \
  -ver=XC8 Compiler --acfsm=1493 -ACODE=00h-0FFFFh -ACONST=00h-0FFFFh \
  -ASMALLCONST=0F00h-0FFFhx241 -AMEDIUMCONST=0F00h-0FFFFh -ACOMRAM=01h-05Fh \
  -AABS1=00h-0E87h -ABIGRAM=01h-0E87h \
  -ARAM=060h-0FFh,0100h-01FFhx13,0E00h-0E87h -ABANK0=060h-0FFh \
  -ABANK1=0100h-01FFh -ABANK2=0200h-02FFh -ABANK3=0300h-03FFh \
  -ABANK4=0400h-04FFh -ABANK5=0500h-05FFh -ABANK6=0600h-06FFh \
  -ABANK7=0700h-07FFh -ABANK8=0800h-08FFh -ABANK9=0900h-09FFh \
  -ABANK10=0A00h-0AFFh -ABANK11=0B00h-0BFFh -ABANK12=0C00h-0CFFh \
  -ABANK13=0D00h-0DFFh -ABANK14=0E00h-0E87h \
  -ASFR=0E8Dh-0EFFh,0F00h-0F5Fh,0F60h-0FFFh -ABIGSFR=0E8Dh-0FFFh \
  -ACONFIG=0300000h-030000Bh -AIDLOC=0200000h-020000Fh \
  -AEEDATA=0310000h-03103FFh -peeprom_data=EEDATA \
  -preset_vec=00h,intcode=08h,intcodelo,powerup,init -pramtop=0F00h \
  -psmallconst=SMALLCONST -pmediumconst=MEDIUMCONST -pconst=CONST \
  -AFARRAM=00h-00h \
  -prdata=COMRAM,nvrram=COMRAM,nvbit=COMRAM,rbss=COMRAM,rbit=COMRAM \
  -pfarbss=FARRAM,fardata=FARRAM,nvFARRAM=FARRAM \
  -pintsave_regs=BIGRAM,bigbss=BIGRAM,bigdata=BIGRAM -pbss=RAM \
  -pidata=CODE,irdata=CODE,ibigdata=CODE,ifardata=CODE -prparam=COMRAM \
  C:\Users\RAFAEL~1\AppData\Local\Temp\xcAsa64.o \
  dist/default/debug\MC50UNI.V.0.2.3.X.debug.o 

Object code version is 3.11

Machine type is 18F46K40



                Name                               Link     Load   Length Selector   Space Scale
C:\Users\RAFAEL~1\AppData\Local\Temp\xcAsa64.o
                idloc                            200000   200000       10        0       5
                config                           300000   300000        C        0       4
                init                                 9C       9C        4        4       0
                reset_vec                             0        0        6        0       0
dist/default/debug\MC50UNI.V.0.2.3.X.debug.o
                intcode                               8        8       94        4       0
                idloc                            200000   200000       10        0       5
                config                           300000   300000        C        0       4
                temp                                 50       50        1        1       1
                smallconst                          F00      F00       22      780       0
                text210                            9C76     9C76       22     4DF6       0
                text209                            9FEE     9FEE        6     4DF6       0
                text208                            A028     A028        2     4DF6       0
                text207                            9FE8     9FE8        6     4DF6       0
                text206                            806E     806E       9A      791       0
                text205                            9812     9812       32      791       0
                text204                            A026     A026        2     4DF6       0
                text203                            4F80     4F80      276      791       0
                text202                            9BA0     9BA0       26      791       0
                text201                            A024     A024        2     4DF6       0
                text200                            9CEC     9CEC       1C     4DF6       0
                text199                            7C4E     7C4E       C6      791       0
                text198                            896C     896C       78      791       0
                text197                            5694     5694      222      791       0
                text196                            965A     965A       40      791       0
                text195                            9E30     9E30       16     4DF6       0
                text194                            91C0     91C0       56      791       0
                text193                            A022     A022        2     4DF6       0
                text192                            9ADC     9ADC       2A      791       0
                text191                            6532     6532      19A      791       0
                text190                            9EEA     9EEA        C     4DF6       0
                text189                            84F0     84F0       86      791       0
                text188                            6CE8     6CE8      14E      791       0
                text186                            9FE2     9FE2        6     4DF6       0
                text185                            A01C     A01C        4     4DF6       0
                text184                            A018     A018        4     4DF6       0
                text183                            9C54     9C54       22     4DF6       0
                text182                            A014     A014        4     4DF6       0
                text181                            A010     A010        4     4DF6       0
                text180                            A00C     A00C        4     4DF6       0
                text179                            9D70     9D70       1A     4DF6       0
                text178                            8C8C     8C8C       6E      791       0
                text177                            9E02     9E02       18     4DF6       0
                text176                            9A86     9A86       2C      791       0
                text175                            9A5A     9A5A       2C      791       0
                text174                            9A2E     9A2E       2C      791       0
                text173                            9A02     9A02       2C      791       0
                text172                            99D6     99D6       2C      791       0
                text171                            961A     961A       40      791       0
                text170                            99AA     99AA       2C      791       0
                text169                            997E     997E       2C      791       0
                text168                            9952     9952       2C      791       0
                text167                            95DA     95DA       40      791       0
                text166                            A008     A008        4     4DF6       0
                text165                            A004     A004        4     4DF6       0
                text164                            A000     A000        4     4DF6       0
                text163                            9FDC     9FDC        6     4DF6       0
                text162                            9FFC     9FFC        4     4DF6       0
                text161                            9FD6     9FD6        6     4DF6       0
                text160                            9FB6     9FB6        8     4DF6       0
                text159                            9EDE     9EDE        C     4DF6       0
                text158                            9FD0     9FD0        6     4DF6       0
                text157                            8E96     8E96       5E      791       0
                text156                            9F64     9F64        A     4DF6       0
                text155                            9ED0     9ED0        E     4DF6       0
                text154                            9EC2     9EC2        E     4DF6       0
                text153                            83DA     83DA       8C      791       0
                text152                            887A     887A       7A      791       0
                text151                            9F5A     9F5A        A     4DF6       0
                text150                            9FAE     9FAE        8     4DF6       0
                text149                            9FA6     9FA6        8     4DF6       0
                text148                            9F9E     9F9E        8     4DF6       0
                text147                            9F96     9F96        8     4DF6       0
                text146                            9F8E     9F8E        8     4DF6       0
                text145                            9F86     9F86        8     4DF6       0
                text144                            9F7E     9F7E        8     4DF6       0
                text143                            9F50     9F50        A     4DF6       0
                text142                            93AA     93AA       4E      791       0
                text141                            9216     9216       54      791       0
                text140                            9F76     9F76        8     4DF6       0
                text139                            9EA4     9EA4       10     4DF6       0
                text138                            9926     9926       2C      791       0
                text137                            9F6E     9F6E        8     4DF6       0
                text136                            9DEA     9DEA       18     4DF6       0
                text135                            85FA     85FA       84      791       0
                text134                            9DD2     9DD2       18     4DF6       0
                text133                            9514     9514       44      791       0
                text132                            8A5A     8A5A       74      791       0
                text131                            9710     9710       38      791       0
                text130                            9062     9062       5A      791       0
                text129                            7B88     7B88       C6      791       0
                text128                            9B7A     9B7A       26      791       0
                text127                            6398     6398      19A      791       0
                text126                            926A     926A       52      791       0
                text125                            7604     7604       FE      791       0
                text124                            9B06     9B06       28      791       0
                text123                            834E     834E       8C      791       0
                text122                            77FE     77FE       FA      791       0
                text121                            948A     948A       46      791       0
                text120                            6B74     6B74      174      791       0
                text119                            71BA     71BA      124      791       0
                text118                            969A     969A       3C      791       0
                text117                            9EB4     9EB4        E     4DF6       0
                text116                            8232     8232       90      791       0
                text115                            46DA     46DA      324      791       0
                text114                            88F4     88F4       78      791       0
                text113                            544A     544A      24A      791       0
                text112                            9E94     9E94       10     4DF6       0
                text111                            930C     930C       50      791       0
                text110                            9F46     9F46        A     4DF6       0
                text109                            9F3C     9F3C        A     4DF6       0
                text108                            9F32     9F32        A     4DF6       0
                text107                            9F28     9F28        A     4DF6       0
                text106                            9F1E     9F1E        A     4DF6       0
                text105                            8780     8780       7E      791       0
                text104                            9E6E     9E6E       14     4DF6       0
                text103                            9FF8     9FF8        4     4DF6       0
                text102                            9E1A     9E1A       16     4DF6       0
                text101                            8108     8108       98      791       0
                text100                            9CD0     9CD0       1C     4DF6       0
                text99                             9F14     9F14        A     4DF6       0
                text98                             9C32     9C32       22     4DF6       0
                text97                             9F0A     9F0A        A     4DF6       0
                text96                             9558     9558       42      791       0
                text95                             9F00     9F00        A     4DF6       0
                text94                             98FA     98FA       2C      791       0
                text93                             9EF6     9EF6        A     4DF6       0
                text92                             9874     9874       2E      791       0
                text91                             9D56     9D56       1A     4DF6       0
                text90                             8DCE     8DCE       66      791       0
                text89                             9FF4     9FF4        4     4DF6       0
                text88                             9CB4     9CB4       1C     4DF6       0
                text87                             89E4     89E4       76      791       0
                text86                             8BAE     8BAE       70      791       0
                text85                             8700     8700       80      791       0
                text84                             81A0     81A0       92      791       0
                text83                             97E0     97E0       32      791       0
                text82                             9008     9008       5A      791       0
                text81                             8B3E     8B3E       70      791       0
                text80                             959A     959A       40      791       0
                text79                             98CE     98CE       2C      791       0
                text78                             2938     2938      68C      791       0
                text77                             97AE     97AE       32      791       0
                text76                             61FC     61FC      19C      791       0
                text75                             2FC4     2FC4      5A4      791       0
                text74                              F22      F22      996      791       0
                text73                             9DBA     9DBA       18     4DF6       0
                text72                             8FAC     8FAC       5C      791       0
                text71                             6862     6862      18A      791       0
                text70                             605C     605C      1A0      791       0
                text69                             6F64     6F64      12E      791       0
                text68                             74FC     74FC      108      791       0
                text67                             82C2     82C2       8C      791       0
                text66                             977C     977C       32      791       0
                text65                             9DA2     9DA2       18     4DF6       0
                text64                             6E36     6E36      12E      791       0
                text63                             8466     8466       8A      791       0
                text62                             7ABC     7ABC       CC      791       0
                text61                             9C10     9C10       22     4DF6       0
                text60                             73EE     73EE      10E      791       0
                text59                             90BC     90BC       58      791       0
                text58                             9748     9748       34      791       0
                text57                             5CC2     5CC2      1D2      791       0
                text56                             66CC     66CC      196      791       0
                text55                             9442     9442       48      791       0
                text54                             92BC     92BC       50      791       0
                text53                             8CFA     8CFA       6C      791       0
                text52                             9E5A     9E5A       14     4DF6       0
                text51                             96D6     96D6       3A      791       0
                text50                             5E94     5E94      1C8      791       0
                text49                             98A2     98A2       2C      791       0
                text48                             7FC8     7FC8       A6      791       0
                text47                             9E46     9E46       14     4DF6       0
                text46                             8F50     8F50       5C      791       0
                text45                             9E82     9E82       12     4DF6       0
                text44                             8EF4     8EF4       5C      791       0
                text43                             8C1E     8C1E       6E      791       0
                text42                             9D3C     9D3C       1A     4DF6       0
                text41                             9B54     9B54       26      791       0
                text40                             8ACE     8ACE       70      791       0
                text39                             7E78     7E78       AA      791       0
                text38                             7F22     7F22       A6      791       0
                text37                             9C98     9C98       1C     4DF6       0
                text36                             916A     916A       56      791       0
                text35                             78F8     78F8       E8      791       0
                text34                             7092     7092      128      791       0
                text33                             4CF4     4CF4      28C      791       0
                text32                             9B2E     9B2E       26      791       0
                text31                             9BEC     9BEC       24     4DF6       0
                text30                             5AD4     5AD4      1EE      791       0
                text29                             9D8A     9D8A       18     4DF6       0
                text28                             93F8     93F8       4A      791       0
                text27                             72DE     72DE      110      791       0
                text26                             58B6     58B6      21E      791       0
                text25                             79E0     79E0       DC      791       0
                text24                             51F6     51F6      254      791       0
                text23                             8E34     8E34       62      791       0
                text22                             87FE     87FE       7C      791       0
                text21                             94D0     94D0       44      791       0
                text20                             9114     9114       56      791       0
                text19                             8D66     8D66       68      791       0
                text18                             2220     2220      718      791       0
                text17                             438E     438E      34C      791       0
                text16                             867E     867E       82      791       0
                text15                             7702     7702       FC      791       0
                text14                             9844     9844       30      791       0
                text13                             9FCA     9FCA        6     4DF6       0
                text12                             9D22     9D22       1A     4DF6       0
                text11                             8576     8576       84      791       0
                text10                             9AB2     9AB2       2A      791       0
                text9                              7D14     7D14       B4      791       0
                text8                              935C     935C       4E      791       0
                text7                              9FC4     9FC4        6     4DF6       0
                text6                              3FAC     3FAC      3E2      791       0
                text5                              9D08     9D08       1A     4DF6       0
                text4                              49FE     49FE      2F6      791       0
                text3                              3568     3568      532      791       0
                text2                              18B8     18B8      968      791       0
                text1                              3A9A     3A9A      512      791       0
                text0                              69EC     69EC      188      791       0
                cstackCOMRAM                          1        1       3A        1       1
                cstackBANK0                          D8       D8       24       60       1
                cstackBANK2                         2EF      2EF        7      200       1
                dataBANK3                           3D2      3D2       25      300       1
                bssBANK3                            300      300       D2      300       1
                dataBANK2                           2F6      2F6        6      200       1
                bssBANK2                            200      200       DD      200       1
                dataBANK1                           1FE      1FE        1      100       1
                bssBANK1                            100      100       FD      100       1
                dataBANK0                            FC       FC        2       60       1
                bssBANK0                             60       60       78       60       1
                bssCOMRAM                            3B       3B       15        1       1
                cinit                              7DC8     7DC8       B0      791       0
                nvBANK2                             2DD      2DD       12      200       1
                nvBANK1                             1FD      1FD        1      100       1
                idataBANK3                         9BC6     9BC6       25      791       0
                idataBANK2                         9FBE     9FBE        6     4DF6       0
                idataBANK1                         A02A     A02A        1     4DF6       0
                idataBANK0                         A020     A020        2     4DF6       0

TOTAL           Name                               Link     Load   Length     Space
        CLASS   CODE           
                intcode                               8        8       94         0
                init                                 9C       9C        4         0
                reset_vec                             0        0        6         0
                text210                            9C76     9C76       22         0
                text209                            9FEE     9FEE        6         0
                text208                            A028     A028        2         0
                text207                            9FE8     9FE8        6         0
                text206                            806E     806E       9A         0
                text205                            9812     9812       32         0
                text204                            A026     A026        2         0
                text203                            4F80     4F80      276         0
                text202                            9BA0     9BA0       26         0
                text201                            A024     A024        2         0
                text200                            9CEC     9CEC       1C         0
                text199                            7C4E     7C4E       C6         0
                text198                            896C     896C       78         0
                text197                            5694     5694      222         0
                text196                            965A     965A       40         0
                text195                            9E30     9E30       16         0
                text194                            91C0     91C0       56         0
                text193                            A022     A022        2         0
                text192                            9ADC     9ADC       2A         0
                text191                            6532     6532      19A         0
                text190                            9EEA     9EEA        C         0
                text189                            84F0     84F0       86         0
                text188                            6CE8     6CE8      14E         0
                text186                            9FE2     9FE2        6         0
                text185                            A01C     A01C        4         0
                text184                            A018     A018        4         0
                text183                            9C54     9C54       22         0
                text182                            A014     A014        4         0
                text181                            A010     A010        4         0
                text180                            A00C     A00C        4         0
                text179                            9D70     9D70       1A         0
                text178                            8C8C     8C8C       6E         0
                text177                            9E02     9E02       18         0
                text176                            9A86     9A86       2C         0
                text175                            9A5A     9A5A       2C         0
                text174                            9A2E     9A2E       2C         0
                text173                            9A02     9A02       2C         0
                text172                            99D6     99D6       2C         0
                text171                            961A     961A       40         0
                text170                            99AA     99AA       2C         0
                text169                            997E     997E       2C         0
                text168                            9952     9952       2C         0
                text167                            95DA     95DA       40         0
                text166                            A008     A008        4         0
                text165                            A004     A004        4         0
                text164                            A000     A000        4         0
                text163                            9FDC     9FDC        6         0
                text162                            9FFC     9FFC        4         0
                text161                            9FD6     9FD6        6         0
                text160                            9FB6     9FB6        8         0
                text159                            9EDE     9EDE        C         0
                text158                            9FD0     9FD0        6         0
                text157                            8E96     8E96       5E         0
                text156                            9F64     9F64        A         0
                text155                            9ED0     9ED0        E         0
                text154                            9EC2     9EC2        E         0
                text153                            83DA     83DA       8C         0
                text152                            887A     887A       7A         0
                text151                            9F5A     9F5A        A         0
                text150                            9FAE     9FAE        8         0
                text149                            9FA6     9FA6        8         0
                text148                            9F9E     9F9E        8         0
                text147                            9F96     9F96        8         0
                text146                            9F8E     9F8E        8         0
                text145                            9F86     9F86        8         0
                text144                            9F7E     9F7E        8         0
                text143                            9F50     9F50        A         0
                text142                            93AA     93AA       4E         0
                text141                            9216     9216       54         0
                text140                            9F76     9F76        8         0
                text139                            9EA4     9EA4       10         0
                text138                            9926     9926       2C         0
                text137                            9F6E     9F6E        8         0
                text136                            9DEA     9DEA       18         0
                text135                            85FA     85FA       84         0
                text134                            9DD2     9DD2       18         0
                text133                            9514     9514       44         0
                text132                            8A5A     8A5A       74         0
                text131                            9710     9710       38         0
                text130                            9062     9062       5A         0
                text129                            7B88     7B88       C6         0
                text128                            9B7A     9B7A       26         0
                text127                            6398     6398      19A         0
                text126                            926A     926A       52         0
                text125                            7604     7604       FE         0
                text124                            9B06     9B06       28         0
                text123                            834E     834E       8C         0
                text122                            77FE     77FE       FA         0
                text121                            948A     948A       46         0
                text120                            6B74     6B74      174         0
                text119                            71BA     71BA      124         0
                text118                            969A     969A       3C         0
                text117                            9EB4     9EB4        E         0
                text116                            8232     8232       90         0
                text115                            46DA     46DA      324         0
                text114                            88F4     88F4       78         0
                text113                            544A     544A      24A         0
                text112                            9E94     9E94       10         0
                text111                            930C     930C       50         0
                text110                            9F46     9F46        A         0
                text109                            9F3C     9F3C        A         0
                text108                            9F32     9F32        A         0
                text107                            9F28     9F28        A         0
                text106                            9F1E     9F1E        A         0
                text105                            8780     8780       7E         0
                text104                            9E6E     9E6E       14         0
                text103                            9FF8     9FF8        4         0
                text102                            9E1A     9E1A       16         0
                text101                            8108     8108       98         0
                text100                            9CD0     9CD0       1C         0
                text99                             9F14     9F14        A         0
                text98                             9C32     9C32       22         0
                text97                             9F0A     9F0A        A         0
                text96                             9558     9558       42         0
                text95                             9F00     9F00        A         0
                text94                             98FA     98FA       2C         0
                text93                             9EF6     9EF6        A         0
                text92                             9874     9874       2E         0
                text91                             9D56     9D56       1A         0
                text90                             8DCE     8DCE       66         0
                text89                             9FF4     9FF4        4         0
                text88                             9CB4     9CB4       1C         0
                text87                             89E4     89E4       76         0
                text86                             8BAE     8BAE       70         0
                text85                             8700     8700       80         0
                text84                             81A0     81A0       92         0
                text83                             97E0     97E0       32         0
                text82                             9008     9008       5A         0
                text81                             8B3E     8B3E       70         0
                text80                             959A     959A       40         0
                text79                             98CE     98CE       2C         0
                text78                             2938     2938      68C         0
                text77                             97AE     97AE       32         0
                text76                             61FC     61FC      19C         0
                text75                             2FC4     2FC4      5A4         0
                text74                              F22      F22      996         0
                text73                             9DBA     9DBA       18         0
                text72                             8FAC     8FAC       5C         0
                text71                             6862     6862      18A         0
                text70                             605C     605C      1A0         0
                text69                             6F64     6F64      12E         0
                text68                             74FC     74FC      108         0
                text67                             82C2     82C2       8C         0
                text66                             977C     977C       32         0
                text65                             9DA2     9DA2       18         0
                text64                             6E36     6E36      12E         0
                text63                             8466     8466       8A         0
                text62                             7ABC     7ABC       CC         0
                text61                             9C10     9C10       22         0
                text60                             73EE     73EE      10E         0
                text59                             90BC     90BC       58         0
                text58                             9748     9748       34         0
                text57                             5CC2     5CC2      1D2         0
                text56                             66CC     66CC      196         0
                text55                             9442     9442       48         0
                text54                             92BC     92BC       50         0
                text53                             8CFA     8CFA       6C         0
                text52                             9E5A     9E5A       14         0
                text51                             96D6     96D6       3A         0
                text50                             5E94     5E94      1C8         0
                text49                             98A2     98A2       2C         0
                text48                             7FC8     7FC8       A6         0
                text47                             9E46     9E46       14         0
                text46                             8F50     8F50       5C         0
                text45                             9E82     9E82       12         0
                text44                             8EF4     8EF4       5C         0
                text43                             8C1E     8C1E       6E         0
                text42                             9D3C     9D3C       1A         0
                text41                             9B54     9B54       26         0
                text40                             8ACE     8ACE       70         0
                text39                             7E78     7E78       AA         0
                text38                             7F22     7F22       A6         0
                text37                             9C98     9C98       1C         0
                text36                             916A     916A       56         0
                text35                             78F8     78F8       E8         0
                text34                             7092     7092      128         0
                text33                             4CF4     4CF4      28C         0
                text32                             9B2E     9B2E       26         0
                text31                             9BEC     9BEC       24         0
                text30                             5AD4     5AD4      1EE         0
                text29                             9D8A     9D8A       18         0
                text28                             93F8     93F8       4A         0
                text27                             72DE     72DE      110         0
                text26                             58B6     58B6      21E         0
                text25                             79E0     79E0       DC         0
                text24                             51F6     51F6      254         0
                text23                             8E34     8E34       62         0
                text22                             87FE     87FE       7C         0
                text21                             94D0     94D0       44         0
                text20                             9114     9114       56         0
                text19                             8D66     8D66       68         0
                text18                             2220     2220      718         0
                text17                             438E     438E      34C         0
                text16                             867E     867E       82         0
                text15                             7702     7702       FC         0
                text14                             9844     9844       30         0
                text13                             9FCA     9FCA        6         0
                text12                             9D22     9D22       1A         0
                text11                             8576     8576       84         0
                text10                             9AB2     9AB2       2A         0
                text9                              7D14     7D14       B4         0
                text8                              935C     935C       4E         0
                text7                              9FC4     9FC4        6         0
                text6                              3FAC     3FAC      3E2         0
                text5                              9D08     9D08       1A         0
                text4                              49FE     49FE      2F6         0
                text3                              3568     3568      532         0
                text2                              18B8     18B8      968         0
                text1                              3A9A     3A9A      512         0
                text0                              69EC     69EC      188         0
                cinit                              7DC8     7DC8       B0         0
                idataBANK3                         9BC6     9BC6       25         0
                idataBANK2                         9FBE     9FBE        6         0
                idataBANK1                         A02A     A02A        1         0
                idataBANK0                         A020     A020        2         0

        CLASS   CONST          

        CLASS   SMALLCONST     
                smallconst                          F00      F00       22         0

        CLASS   MEDIUMCONST    

        CLASS   COMRAM         
                temp                                 50       50        1         1
                cstackCOMRAM                          1        1       3A         1
                bssCOMRAM                            3B       3B       15         1

        CLASS   ABS1           

        CLASS   BIGRAM         

        CLASS   RAM            

        CLASS   BANK0          
                cstackBANK0                          D8       D8       24         1
                dataBANK0                            FC       FC        2         1
                bssBANK0                             60       60       78         1

        CLASS   BANK1          
                dataBANK1                           1FE      1FE        1         1
                bssBANK1                            100      100       FD         1
                nvBANK1                             1FD      1FD        1         1

        CLASS   BANK2          
                cstackBANK2                         2EF      2EF        7         1
                dataBANK2                           2F6      2F6        6         1
                bssBANK2                            200      200       DD         1
                nvBANK2                             2DD      2DD       12         1

        CLASS   BANK3          
                dataBANK3                           3D2      3D2       25         1
                bssBANK3                            300      300       D2         1

        CLASS   BANK4          

        CLASS   BANK5          

        CLASS   BANK6          

        CLASS   BANK7          

        CLASS   BANK8          

        CLASS   BANK9          

        CLASS   BANK10         

        CLASS   BANK11         

        CLASS   BANK12         

        CLASS   BANK13         

        CLASS   BANK14         

        CLASS   SFR            

        CLASS   BIGSFR         

        CLASS   CONFIG         
                config                           300000   300000        C         4

        CLASS   IDLOC          
                idloc                            200000   200000       10         5

        CLASS   EEDATA         

        CLASS   FARRAM         

        CLASS   HEAP           

        CLASS   STACK          



SEGMENTS        Name                           Load    Length   Top    Selector   Space  Class

                reset_vec                      000000  000006  000006         0       0  CODE    
                cstackCOMRAM                   000001  000050  000051         1       1  COMRAM  
                intcode                        000008  000098  0000A0         4       0  CODE    
                bssBANK0                       000060  00009E  0000FE        60       1  BANK0   
                bssBANK1                       000100  0000FF  0001FF       100       1  BANK1   
                bssBANK2                       000200  0000FC  0002FC       200       1  BANK2   
                bssBANK3                       000300  0000F7  0003F7       300       1  BANK3   
                smallconst                     000F00  000022  000F22       780       0  SMALLCON
                text74                         000F22  008CC9  009BEB       791       0  CODE    
                text31                         009BEC  00043F  00A02B      4DF6       0  CODE    


UNUSED ADDRESS RANGES

        Name                Unused          Largest block    Delta
        BANK0            0000FE-0000FF                2
        BANK1            0001FF-0001FF                1
        BANK10           000A00-000AFF              100
        BANK11           000B00-000BFF              100
        BANK12           000C00-000CFF              100
        BANK13           000D00-000DFF              100
        BANK14           000E00-000E87               88
        BANK2            0002FC-0002FF                4
        BANK3            0003F7-0003FF                9
        BANK4            000400-0004FF              100
        BANK5            000500-0005FF              100
        BANK6            000600-0006FF              100
        BANK7            000700-0007FF              100
        BANK8            000800-0008FF              100
        BANK9            000900-0009FF              100
        BIGRAM           000051-00005F                F
                         0000FE-0000FF                2
                         0001FF-0001FF                1
                         0002FC-0002FF                4
                         0003F7-000E87              A91
        BIGSFR           000E8D-000FFF              173
        CODE             000006-000007                2
                         0000A0-000EFF              E60
                         009BEB-009BEB                1
                         00A02B-00FFFF             5FD5
        COMRAM           000051-00005F                F
        CONST            000006-000007                2
                         0000A0-000EFF              E60
                         009BEB-009BEB                1
                         00A02B-00FFFF             5FD5
        EEDATA           310000-3103FF              400
        MEDIUMCONST      009BEB-009BEB                1
                         00A02B-00FFFF             5FD5
        RAM              0000FE-0000FF                2
                         0001FF-0001FF                1
                         0002FC-0002FF                4
                         0003F7-000E87              100
        SFR              000E8D-000FFF               73
        SMALLCONST       009BEB-009BEB                1
                         00A02B-00FFFF              100

                                  Symbol Table

?___awdiv                                                 cstackCOMRAM 000014
?___lldiv                                                 cstackCOMRAM 000010
?___lmul                                                  cstackCOMRAM 00001D
?___lwdiv                                                 cstackCOMRAM 000010
?___wmul                                                  cstackCOMRAM 000010
?_calculateMean                                           cstackCOMRAM 000010
?_getCurrentComparator                                    cstackCOMRAM 000016
?_getHopCode                                              cstackCOMRAM 000016
?_getTimeDecelaration                                     cstackCOMRAM 000029
?_read_package                                            cstackCOMRAM 000011
?_sm_get_current_state                                    cstackCOMRAM 000010
?_sumEnergyADC                                            cstackCOMRAM 000010
?_sumHIST                                                 cstackCOMRAM 000010
ADCC_GetSingleConversion@channel                          cstackCOMRAM 000001
ControlMotor@stateMotor                                   cstackCOMRAM 000018
DecCHK@data                                               cstackCOMRAM 000010
Decrypt@Buffer                                            cstackCOMRAM 000022
Decrypt@aux                                               cstackCOMRAM 000021
Decrypt@i                                                 cstackCOMRAM 00001E
Decrypt@j                                                 cstackCOMRAM 00001F
Decrypt@key                                               cstackCOMRAM 00001D
Decrypt@p                                                 cstackCOMRAM 000020
Decrypt@packet                                            cstackCOMRAM 00001B
DecryptPacket_12BIT@classic_data                          cstackBANK0  0000E2
DecryptPacket_12BIT@commandType                           cstackBANK0  0000E4
DecryptPacket_12BIT@data                                  cstackBANK0  0000E0
EUSART1_Read@readValue                                    cstackCOMRAM 000010
EUSART1_SetErrorHandler@interruptHandler                  cstackCOMRAM 000010
EUSART1_SetFramingErrorHandler@interruptHandler           cstackCOMRAM 000010
EUSART1_SetOverrunErrorHandler@interruptHandler           cstackCOMRAM 000010
EUSART1_SetRxInterruptHandler@interruptHandler            cstackCOMRAM 000010
EUSART1_SetTxInterruptHandler@interruptHandler            cstackCOMRAM 000010
EUSART1_Write@txData                                      cstackCOMRAM 000010
GetMotorPower@defineatraso                                cstackCOMRAM 000013
HopCHK@data                                               cstackCOMRAM 000024
HopCHK@hopDiff                                            cstackCOMRAM 000026
I2C1_CallbackReturnReset@funPtr                           cstackCOMRAM 000019
I2C1_Close@returnValue                                    cstackCOMRAM 000010
I2C1_MasterOperation@read                                 cstackCOMRAM 000020
I2C1_MasterOperation@returnValue                          cstackCOMRAM 000021
I2C1_MasterSendTxData@data                                cstackCOMRAM 000010
I2C1_Open@address                                         cstackCOMRAM 000010
I2C1_Open@returnValue                                     cstackCOMRAM 000011
I2C1_Read1ByteRegister@address                            cstackCOMRAM 000023
I2C1_Read1ByteRegister@reg                                cstackCOMRAM 000022
I2C1_Read1ByteRegister@returnValue                        cstackCOMRAM 000024
I2C1_SetAddressNackCallback@cb                            cstackCOMRAM 000015
I2C1_SetAddressNackCallback@ptr                           cstackCOMRAM 000017
I2C1_SetBuffer@buffer                                     cstackCOMRAM 000010
I2C1_SetBuffer@bufferSize                                 cstackCOMRAM 000012
I2C1_SetCallback@cb                                       cstackCOMRAM 000010
I2C1_SetCallback@idx                                      cstackCOMRAM 000014
I2C1_SetCallback@ptr                                      cstackCOMRAM 000012
I2C1_SetDataCompleteCallback@cb                           cstackCOMRAM 000015
I2C1_SetDataCompleteCallback@ptr                          cstackCOMRAM 000017
NormalKeyGen@Buffer                                       cstackCOMRAM 000030
NormalKeyGen@HOPtemp                                      cstackCOMRAM 000028
NormalKeyGen@SEED                                         bssBANK2     0002D9
NormalKeyGen@SKEYtemp                                     cstackCOMRAM 00002C
NormalKeyGen@serial                                       cstackCOMRAM 000026
OpenWalkOrder@diffTime                                    cstackCOMRAM 00001A
RGB_Set@value                                             cstackCOMRAM 000010
ReadSerial@cmdType                                        cstackCOMRAM 000032
ReadSerial@position                                       cstackCOMRAM 00002F
ReadSerial@tempSerial                                     cstackCOMRAM 00002E
RemoveSerial@cmdType                                      cstackBANK0  0000DA
RemoveSerial@position                                     cstackCOMRAM 00003A
RemoveSerial@tempSerial                                   cstackBANK0  0000DB
ReqResync@CurrentHop                                      cstackCOMRAM 000010
ResetDefaultMemory@type                                   cstackCOMRAM 00003A
SaveNVM_VarSystem@page                                    cstackBANK0  0000D8
SaveNVM_VarSystem@point                                   cstackBANK0  0000DB
SaveNVM_VarSystem@tempAdd                                 cstackBANK0  0000D9
Segments_Set@value                                        cstackCOMRAM 000001
SetSegmentValue@d1                                        cstackCOMRAM 00001D
SetSegmentValue@d2                                        cstackCOMRAM 00001C
SetSegmentValueIntermitent@d1                             cstackCOMRAM 000013
SetSegmentValueIntermitent@d2                             cstackCOMRAM 000010
SetSegmentValueIntermitent@time                           cstackCOMRAM 000011
SetSegmentValueIntermitentMain@d1                         cstackCOMRAM 00001F
SetSegmentValueIntermitentMain@d2                         cstackCOMRAM 00001C
SetSegmentValueIntermitentMain@time                       cstackCOMRAM 00001D
SetSegmentValueLearn@direction                            cstackCOMRAM 000012
SetSegmentValueMain@d1                                    cstackCOMRAM 00001D
SetSegmentValueMain@d2                                    cstackCOMRAM 00001C
TMR0_SetInterruptHandler@InterruptHandler                 cstackCOMRAM 000010
TMR1_SetInterruptHandler@InterruptHandler                 cstackCOMRAM 000010
TMR1_WriteTimer@timerVal                                  cstackCOMRAM 000001
TMR2_SetInterruptHandler@InterruptHandler                 cstackCOMRAM 000010
VerifyElectricalBrake@actualState                         cstackCOMRAM 000011
VerifyElectricalBrake@tempState                           cstackCOMRAM 000010
VerifyFollowMe@securityClose                              cstackCOMRAM 000010
WWDT_TimerClear@state                                     cstackCOMRAM 000010
_ADACCH                                                   (abs)        000F71
_ADACCL                                                   (abs)        000F70
_ADACQ                                                    (abs)        000F5C
_ADACT                                                    (abs)        000F56
_ADCAP                                                    (abs)        000F5D
_ADCC_GetSingleConversion                                 text195      009E30
_ADCC_Initialize                                          text111      00930C
_ADCLK                                                    (abs)        000F57
_ADCNT                                                    (abs)        000F67
_ADCON0                                                   (abs)        000F60
_ADCON0bits                                               (abs)        000F60
_ADCON1                                                   (abs)        000F59
_ADCON2                                                   (abs)        000F5A
_ADCON3                                                   (abs)        000F5B
_ADC_array                                                bssBANK2     000200
_ADC_zero_array                                           bssBANK3     000396
_ADERRH                                                   (abs)        000F6F
_ADERRL                                                   (abs)        000F6E
_ADFLTRH                                                  (abs)        000F73
_ADFLTRL                                                  (abs)        000F72
_ADLTHH                                                   (abs)        000F6B
_ADLTHL                                                   (abs)        000F6A
_ADPCH                                                    (abs)        000F5F
_ADPRE                                                    (abs)        000F5E
_ADPREVH                                                  (abs)        000F62
_ADPREVL                                                  (abs)        000F61
_ADREF                                                    (abs)        000F58
_ADRESH                                                   (abs)        000F64
_ADRESL                                                   (abs)        000F63
_ADRPT                                                    (abs)        000F66
_ADSTAT                                                   (abs)        000F65
_ADSTPTH                                                  (abs)        000F69
_ADSTPTL                                                  (abs)        000F68
_ADUTHH                                                   (abs)        000F6D
_ADUTHL                                                   (abs)        000F6C
_ANSELA                                                   (abs)        000F11
_ANSELB                                                   (abs)        000F19
_ANSELC                                                   (abs)        000F21
_ANSELD                                                   (abs)        000F26
_ANSELE                                                   (abs)        000F2E
_Abertura_pedonal                                         bssBANK1     000191
_BAUD1CON                                                 (abs)        000F9F
_BitCount                                                 bssBANK0     00008C
_Bptr                                                     bssBANK0     00008D
_BufferRF                                                 bssBANK2     0002C8
_BufferRF_12BIT                                           bssBANK1     000189
_ClearFlag_rfCMD                                          text13       009FCA
_CloseOrder                                               text32       009B2E
_ControlCounterMoves                                      text130      009062
_ControlCurrent                                           text120      006B74
_ControlDecelarationFactor                                text29       009D8A
_ControlInputs                                            text119      0071BA
_ControlLights                                            text115      0046DA
_ControlMotor                                             text113      00544A
_Counterchoose                                            bssBANK0     000092
_DKEY                                                     bssBANK2     0002D1
_DecCHK                                                   text66       00977C
_Decrypt                                                  text62       007ABC
_DecryptPacket_12BIT                                      text67       0082C2
_DispTable                                                dataBANK3    0003D2
_EHop                                                     bssBANK2     00028C
_EUSART1_DefaultErrorHandler                              text209      009FEE
_EUSART1_DefaultFramingErrorHandler                       text208      00A028
_EUSART1_DefaultOverrunErrorHandler                       text207      009FE8
_EUSART1_ErrorHandler                                     nvBANK2      0002E5
_EUSART1_FramingErrorHandler                              nvBANK2      0002E9
_EUSART1_Initialize                                       text105      008780
_EUSART1_OverrunErrorHandler                              nvBANK2      0002E7
_EUSART1_Read                                             text55       009442
_EUSART1_Receive_ISR                                      text206      00806E
_EUSART1_RxDataHandler                                    text210      009C76
_EUSART1_RxDefaultInterruptHandler                        nvBANK2      0002EB
_EUSART1_SetErrorHandler                                  text110      009F46
_EUSART1_SetFramingErrorHandler                           text109      009F3C
_EUSART1_SetOverrunErrorHandler                           text108      009F32
_EUSART1_SetRxInterruptHandler                            text107      009F28
_EUSART1_SetTxInterruptHandler                            text106      009F1E
_EUSART1_Transmit_ISR                                     text205      009812
_EUSART1_TxDefaultInterruptHandler                        nvBANK2      0002ED
_EUSART1_Write                                            text80       00959A
_EUSART1_is_rx_ready                                      text112      009E94
_F2Chance                                                 bssBANK1     000199
_GIE                                                      (abs)        007F97
_GetMotorPower                                            text129      007B88
_GetOpenOrder                                             text50       005E94
_GetSecurityStateInClosing                                text38       007F22
_GetSecurityStateInOpening                                text48       007FC8
_Hop                                                      bssBANK0     00007C
_HopCHK                                                   text63       008466
_I2C1_CallbackReturnReset                                 text165      00A004
_I2C1_CallbackReturnStop                                  text166      00A008
_I2C1_Close                                               text183      009C54
_I2C1_DO_ADDRESS_NACK                                     text142      0093AA
_I2C1_DO_IDLE                                             text156      009F64
_I2C1_DO_RCEN                                             text151      009F5A
_I2C1_DO_RESET                                            text143      009F50
_I2C1_DO_RX                                               text152      00887A
_I2C1_DO_RX_ACK                                           text146      009F8E
_I2C1_DO_RX_NACK_RESTART                                  text144      009F7E
_I2C1_DO_RX_NACK_STOP                                     text145      009F86
_I2C1_DO_SEND_ADR_READ                                    text155      009ED0
_I2C1_DO_SEND_ADR_WRITE                                   text154      009EC2
_I2C1_DO_SEND_RESTART                                     text148      009F9E
_I2C1_DO_SEND_RESTART_READ                                text150      009FAE
_I2C1_DO_SEND_RESTART_WRITE                               text149      009FA6
_I2C1_DO_SEND_STOP                                        text147      009F96
_I2C1_DO_TX                                               text153      0083DA
_I2C1_DO_TX_EMPTY                                         text157      008E96
_I2C1_Initialize                                          text104      009E6E
_I2C1_MasterClearIrq                                      text186      009FE2
_I2C1_MasterClose                                         text185      00A01C
_I2C1_MasterDisableIrq                                    text184      00A018
_I2C1_MasterEnableRestart                                 text181      00A010
_I2C1_MasterFsm                                           text141      009216
_I2C1_MasterGetRxData                                     text162      009FFC
_I2C1_MasterIsNack                                        text159      009EDE
_I2C1_MasterOpen                                          text136      009DEA
_I2C1_MasterOperation                                     text138      009926
_I2C1_MasterSendAck                                       text161      009FD6
_I2C1_MasterSendNack                                      text163      009FDC
_I2C1_MasterSendTxData                                    text160      009FB6
_I2C1_MasterSetIrq                                        text158      009FD0
_I2C1_MasterStart                                         text182      00A014
_I2C1_MasterStartRx                                       text164      00A000
_I2C1_MasterStop                                          text180      00A00C
_I2C1_MasterWaitForEvent                                  text140      009F76
_I2C1_MasterWrite                                         text137      009F6E
_I2C1_Open                                                text135      0085FA
_I2C1_Poller                                              text139      009EA4
_I2C1_Read1ByteRegister                                   text72       008FAC
_I2C1_SetAddressNackCallback                              text134      009DD2
_I2C1_SetBuffer                                           text179      009D70
_I2C1_SetCallback                                         text178      008C8C
_I2C1_SetDataCompleteCallback                             text177      009E02
_I2C1_Status                                              bssBANK2     00023C
_INLVLA                                                   (abs)        000F0D
_INLVLB                                                   (abs)        000F15
_INLVLC                                                   (abs)        000F1D
_INLVLD                                                   (abs)        000F22
_INLVLE                                                   (abs)        000F2A
_INTCONbits                                               (abs)        000FF2
_INTERRUPT_Initialize                                     text103      009FF8
_INTERRUPT_InterruptManager                               intcode      000008
_IOCBN3                                                   (abs)        00789B
_IOCBP3                                                   (abs)        0078A3
_InitFullAutoTime                                         text42       009D3C
_InitReceiver                                             text5        009D08
_InitSoftStart                                            text46       008F50
_InitSoftStop                                             text28       0093F8
_InitWalkAutoTime                                         text47       009E46
_LATA                                                     (abs)        000F83
_LATAbits                                                 (abs)        000F83
_LATB                                                     (abs)        000F84
_LATC                                                     (abs)        000F85
_LATCbits                                                 (abs)        000F85
_LATD                                                     (abs)        000F86
_LATDbits                                                 (abs)        000F86
_LATE                                                     (abs)        000F87
_LATEbits                                                 (abs)        000F87
_LoadManufCode                                            text61       009C10
_NextHop                                                  bssBANK2     00028E
_NormalKeyGen                                             text60       0073EE
_ODCONA                                                   (abs)        000F0F
_ODCONB                                                   (abs)        000F17
_ODCONC                                                   (abs)        000F1F
_ODCOND                                                   (abs)        000F24
_ODCONE                                                   (abs)        000F2C
_OSCCON1                                                  (abs)        000ED8
_OSCCON3                                                  (abs)        000EDA
_OSCEN                                                    (abs)        000EDC
_OSCFRQ                                                   (abs)        000EDE
_OSCILLATOR_Initialize                                    text102      009E1A
_OSCTUNE                                                  (abs)        000EDD
_OpenFullOrder                                            text41       009B54
_OpenWalkOrder                                            text43       008C1E
_PCON0bits                                                (abs)        000FD7
_PIE0bits                                                 (abs)        000EC2
_PIE3bits                                                 (abs)        000EC5
_PIE4bits                                                 (abs)        000EC6
_PIN_MANAGER_Initialize                                   text101      008108
_PIR0bits                                                 (abs)        000ECA
_PIR3bits                                                 (abs)        000ECD
_PIR4bits                                                 (abs)        000ECE
_PMD0                                                     (abs)        000EE1
_PMD1                                                     (abs)        000EE2
_PMD2                                                     (abs)        000EE3
_PMD3                                                     (abs)        000EE4
_PMD4                                                     (abs)        000EE5
_PMD5                                                     (abs)        000EE6
_PMD_Initialize                                           text100      009CD0
_PORTAbits                                                (abs)        000F8D
_PORTB                                                    (abs)        000F8E
_PORTBbits                                                (abs)        000F8E
_PORTEbits                                                (abs)        000F91
_RC1REG                                                   (abs)        000F99
_RC1STA                                                   (abs)        000F9D
_RC1STAbits                                               (abs)        000F9D
_RC3PPS                                                   (abs)        000EFA
_RC4PPS                                                   (abs)        000EFB
_RC7PPS                                                   (abs)        000EFE
_RFBit                                                    bssBANK0     000089
_RFFull                                                   bssBANK0     00008B
_RFFull_12BIT                                             bssBANK0     00008A
_RFcount                                                  bssBANK0     00007E
_RFstate                                                  bssBANK1     00019C
_RGB_Set                                                  text117      009EB4
_RX1PPS                                                   (abs)        000EB5
_ReadADC                                                  text194      0091C0
_ReadSerial                                               text86       008BAE
_RemoveSerial                                             text85       008700
_ReqResync                                                text65       009DA2
_ResetDefaultMemory                                       text71       006862
_SLRCONA                                                  (abs)        000F0E
_SLRCONB                                                  (abs)        000F16
_SLRCONC                                                  (abs)        000F1E
_SLRCOND                                                  (abs)        000F23
_SLRCONE                                                  (abs)        000F2B
_SP1BRGH                                                  (abs)        000F9C
_SP1BRGL                                                  (abs)        000F9B
_SSP1ADD                                                  (abs)        000F93
_SSP1BUF                                                  (abs)        000F92
_SSP1CLKPPS                                               (abs)        000EB7
_SSP1CON1                                                 (abs)        000F96
_SSP1CON1bits                                             (abs)        000F96
_SSP1CON2                                                 (abs)        000F97
_SSP1CON2bits                                             (abs)        000F97
_SSP1DATPPS                                               (abs)        000EB8
_SSP1STAT                                                 (abs)        000F95
_SYSTEM_Initialize                                        text92       009874
_SaveNVM_VarSystem                                        text131      009710
_Segments_Set                                             text190      009EEA
_SetSegmentValue                                          text91       009D56
_SetSegmentValueIntermitent                               text49       0098A2
_SetSegmentValueIntermitentMain                           text52       009E5A
_SetSegmentValueLearn                                     text15       007702
_SetSegmentValueMain                                      text12       009D22
_ShowVersion                                              text90       008DCE
_StateTRIAC                                               bssBANK1     000194
_StopOrder                                                text37       009C98
_SumEnergyADCHist_array                                   bssBANK2     000260
_T0CON0                                                   (abs)        000FD5
_T0CON1                                                   (abs)        000FD6
_T1CLK                                                    (abs)        000FD2
_T1CON                                                    (abs)        000FCF
_T1CONbits                                                (abs)        000FCF
_T1GATE                                                   (abs)        000FD1
_T1GCON                                                   (abs)        000FD0
_T2CLKCON                                                 (abs)        000FBF
_T2CON                                                    (abs)        000FBD
_T2HLT                                                    (abs)        000FBE
_T2PR                                                     (abs)        000FBC
_T2RST                                                    (abs)        000FC0
_T2TMR                                                    (abs)        000FBB
_TMR0H                                                    (abs)        000FD4
_TMR0IE                                                   (abs)        007615
_TMR0IF                                                   (abs)        007655
_TMR0L                                                    (abs)        000FD3
_TMR0_DefaultInterruptHandler                             text204      00A026
_TMR0_ISR                                                 text202      009BA0
_TMR0_Initialize                                          text98       009C32
_TMR0_InterruptHandler                                    nvBANK2      0002E3
_TMR0_SetInterruptHandler                                 text99       009F14
_TMR1H                                                    (abs)        000FCE
_TMR1L                                                    (abs)        000FCD
_TMR1_DefaultInterruptHandler                             text201      00A024
_TMR1_ISR                                                 text196      00965A
_TMR1_Initialize                                          text96       009558
_TMR1_InterruptHandler                                    nvBANK2      0002DF
_TMR1_SetInterruptHandler                                 text97       009F0A
_TMR1_WriteTimer                                          text200      009CEC
_TMR2_DefaultInterruptHandler                             text193      00A022
_TMR2_ISR                                                 text188      006CE8
_TMR2_Initialize                                          text94       0098FA
_TMR2_InterruptHandler                                    nvBANK2      0002DD
_TMR2_SetInterruptHandler                                 text95       009F00
_TRISA                                                    (abs)        000F88
_TRISB                                                    (abs)        000F89
_TRISC                                                    (abs)        000F8A
_TRISD                                                    (abs)        000F8B
_TRISE                                                    (abs)        000F8C
_TX1REG                                                   (abs)        000F9A
_TX1STA                                                   (abs)        000F9E
_VerifyElectricalBrake                                    text114      0088F4
_VerifyFollowMe                                           text31       009BEC
_WDTCON0                                                  (abs)        000ED2
_WDTCON0bits                                              (abs)        000ED2
_WDTCON1                                                  (abs)        000ED3
_WPUA                                                     (abs)        000F10
_WPUB                                                     (abs)        000F18
_WPUC                                                     (abs)        000F20
_WPUD                                                     (abs)        000F25
_WPUE                                                     (abs)        000F2D
_WWDT_Initialize                                          text93       009EF6
_WWDT_SoftEnable                                          text89       009FF4
_WWDT_TimerClear                                          text88       009CB4
_WaitPreFlash                                             text40       008ACE
__HRAM                                                    (abs)        000000
__Habs1                                                   abs1         000000
__Hbank0                                                  bank0        000000
__Hbank1                                                  bank1        000000
__Hbank10                                                 bank10       000000
__Hbank11                                                 bank11       000000
__Hbank12                                                 bank12       000000
__Hbank13                                                 bank13       000000
__Hbank14                                                 bank14       000000
__Hbank2                                                  bank2        000000
__Hbank3                                                  bank3        000000
__Hbank4                                                  bank4        000000
__Hbank5                                                  bank5        000000
__Hbank6                                                  bank6        000000
__Hbank7                                                  bank7        000000
__Hbank8                                                  bank8        000000
__Hbank9                                                  bank9        000000
__Hbigbss                                                 bigbss       000000
__Hbigdata                                                bigdata      000000
__Hbigram                                                 bigram       000000
__Hbigsfr                                                 bigsfr       000000
__Hbss                                                    bss          000000
__HbssBANK0                                               bssBANK0     000000
__HbssBANK1                                               bssBANK1     000000
__HbssBANK2                                               bssBANK2     000000
__HbssBANK3                                               bssBANK3     000000
__HbssCOMRAM                                              bssCOMRAM    000000
__Hcinit                                                  cinit        000000
__Hclrtext                                                clrtext      000000
__Hcomram                                                 comram       000000
__Hconfig                                                 config       30000C
__Hconst                                                  const        000000
__HcstackBANK0                                            cstackBANK0  000000
__HcstackBANK2                                            cstackBANK2  000000
__HcstackCOMRAM                                           cstackCOMRAM 000000
__Hdata                                                   data         000000
__HdataBANK0                                              dataBANK0    000000
__HdataBANK1                                              dataBANK1    000000
__HdataBANK2                                              dataBANK2    000000
__HdataBANK3                                              dataBANK3    000000
__Heeprom_data                                            eeprom_data  000000
__Hfarbss                                                 farbss       000000
__Hfardata                                                fardata      000000
__Hheap                                                   heap         000000
__Hibigdata                                               ibigdata     000000
__Hidata                                                  idata        000000
__HidataBANK0                                             idataBANK0   000000
__HidataBANK1                                             idataBANK1   000000
__HidataBANK2                                             idataBANK2   000000
__HidataBANK3                                             idataBANK3   000000
__Hidloc                                                  idloc        200010
__Hifardata                                               ifardata     000000
__Hinit                                                   init         0000A0
__Hintcode                                                intcode      00009C
__Hintcode_body                                           intcode_body 000000
__Hintcodelo                                              intcodelo    00009C
__Hintentry                                               intentry     000000
__Hintret                                                 intret       000000
__Hintsave_regs                                           intsave_regs 000000
__Hirdata                                                 irdata       000000
__Hmediumconst                                            mediumconst  000000
__HnvBANK1                                                nvBANK1      000000
__HnvBANK2                                                nvBANK2      000000
__HnvFARRAM                                               nvFARRAM     000000
__Hnvbit                                                  nvbit        000000
__Hnvrram                                                 nvrram       000000
__Hparam                                                  rparam       000000
__Hpowerup                                                powerup      00009C
__Hram                                                    ram          000000
__Hramtop                                                 ramtop       000F00
__Hrbit                                                   rbit         000000
__Hrbss                                                   rbss         000000
__Hrdata                                                  rdata        000000
__Hreset_vec                                              reset_vec    000006
__Hrparam                                                 rparam       000000
__Hsfr                                                    sfr          000000
__Hsmallconst                                             smallconst   000F22
__Hspace_0                                                (abs)        00A02B
__Hspace_1                                                (abs)        0003F7
__Hspace_2                                                (abs)        000000
__Hspace_4                                                (abs)        60000C
__Hstack                                                  stack        000000
__Hstruct                                                 struct       000000
__Htemp                                                   temp         000051
__Htext                                                   text         000000
__Htext0                                                  text0        000000
__Htext1                                                  text1        000000
__Htext10                                                 text10       000000
__Htext100                                                text100      000000
__Htext101                                                text101      000000
__Htext102                                                text102      000000
__Htext103                                                text103      000000
__Htext104                                                text104      000000
__Htext105                                                text105      000000
__Htext106                                                text106      000000
__Htext107                                                text107      000000
__Htext108                                                text108      000000
__Htext109                                                text109      000000
__Htext11                                                 text11       000000
__Htext110                                                text110      000000
__Htext111                                                text111      000000
__Htext112                                                text112      000000
__Htext113                                                text113      000000
__Htext114                                                text114      000000
__Htext115                                                text115      000000
__Htext116                                                text116      000000
__Htext117                                                text117      000000
__Htext118                                                text118      000000
__Htext119                                                text119      000000
__Htext12                                                 text12       000000
__Htext120                                                text120      000000
__Htext121                                                text121      000000
__Htext122                                                text122      000000
__Htext123                                                text123      000000
__Htext124                                                text124      000000
__Htext125                                                text125      000000
__Htext126                                                text126      000000
__Htext127                                                text127      000000
__Htext128                                                text128      000000
__Htext129                                                text129      000000
__Htext13                                                 text13       000000
__Htext130                                                text130      000000
__Htext131                                                text131      000000
__Htext132                                                text132      000000
__Htext133                                                text133      000000
__Htext134                                                text134      000000
__Htext135                                                text135      000000
__Htext136                                                text136      000000
__Htext137                                                text137      000000
__Htext138                                                text138      000000
__Htext139                                                text139      000000
__Htext14                                                 text14       000000
__Htext140                                                text140      000000
__Htext141                                                text141      000000
__Htext142                                                text142      000000
__Htext143                                                text143      000000
__Htext144                                                text144      000000
__Htext145                                                text145      000000
__Htext146                                                text146      000000
__Htext147                                                text147      000000
__Htext148                                                text148      000000
__Htext149                                                text149      000000
__Htext15                                                 text15       000000
__Htext150                                                text150      000000
__Htext151                                                text151      000000
__Htext152                                                text152      000000
__Htext153                                                text153      000000
__Htext154                                                text154      000000
__Htext155                                                text155      000000
__Htext156                                                text156      000000
__Htext157                                                text157      000000
__Htext158                                                text158      000000
__Htext159                                                text159      000000
__Htext16                                                 text16       000000
__Htext160                                                text160      000000
__Htext161                                                text161      000000
__Htext162                                                text162      000000
__Htext163                                                text163      000000
__Htext164                                                text164      000000
__Htext165                                                text165      000000
__Htext166                                                text166      000000
__Htext167                                                text167      000000
__Htext168                                                text168      000000
__Htext169                                                text169      000000
__Htext17                                                 text17       000000
__Htext170                                                text170      000000
__Htext171                                                text171      000000
__Htext172                                                text172      000000
__Htext173                                                text173      000000
__Htext174                                                text174      000000
__Htext175                                                text175      000000
__Htext176                                                text176      000000
__Htext177                                                text177      000000
__Htext178                                                text178      000000
__Htext179                                                text179      000000
__Htext18                                                 text18       000000
__Htext180                                                text180      000000
__Htext181                                                text181      000000
__Htext182                                                text182      000000
__Htext183                                                text183      000000
__Htext184                                                text184      000000
__Htext185                                                text185      000000
__Htext186                                                text186      000000
__Htext188                                                text188      000000
__Htext189                                                text189      000000
__Htext19                                                 text19       000000
__Htext190                                                text190      000000
__Htext191                                                text191      000000
__Htext192                                                text192      000000
__Htext193                                                text193      000000
__Htext194                                                text194      000000
__Htext195                                                text195      000000
__Htext196                                                text196      000000
__Htext197                                                text197      000000
__Htext198                                                text198      000000
__Htext199                                                text199      000000
__Htext2                                                  text2        000000
__Htext20                                                 text20       000000
__Htext200                                                text200      000000
__Htext201                                                text201      000000
__Htext202                                                text202      000000
__Htext203                                                text203      000000
__Htext204                                                text204      000000
__Htext205                                                text205      000000
__Htext206                                                text206      000000
__Htext207                                                text207      000000
__Htext208                                                text208      000000
__Htext209                                                text209      000000
__Htext21                                                 text21       000000
__Htext210                                                text210      000000
__Htext211                                                text211      000000
__Htext22                                                 text22       000000
__Htext23                                                 text23       000000
__Htext24                                                 text24       000000
__Htext25                                                 text25       000000
__Htext26                                                 text26       000000
__Htext27                                                 text27       000000
__Htext28                                                 text28       000000
__Htext29                                                 text29       000000
__Htext3                                                  text3        000000
__Htext30                                                 text30       000000
__Htext31                                                 text31       000000
__Htext32                                                 text32       000000
__Htext33                                                 text33       000000
__Htext34                                                 text34       000000
__Htext35                                                 text35       000000
__Htext36                                                 text36       000000
__Htext37                                                 text37       000000
__Htext38                                                 text38       000000
__Htext39                                                 text39       000000
__Htext4                                                  text4        000000
__Htext40                                                 text40       000000
__Htext41                                                 text41       000000
__Htext42                                                 text42       000000
__Htext43                                                 text43       000000
__Htext44                                                 text44       000000
__Htext45                                                 text45       000000
__Htext46                                                 text46       000000
__Htext47                                                 text47       000000
__Htext48                                                 text48       000000
__Htext49                                                 text49       000000
__Htext5                                                  text5        000000
__Htext50                                                 text50       000000
__Htext51                                                 text51       000000
__Htext52                                                 text52       000000
__Htext53                                                 text53       000000
__Htext54                                                 text54       000000
__Htext55                                                 text55       000000
__Htext56                                                 text56       000000
__Htext57                                                 text57       000000
__Htext58                                                 text58       000000
__Htext59                                                 text59       000000
__Htext6                                                  text6        000000
__Htext60                                                 text60       000000
__Htext61                                                 text61       000000
__Htext62                                                 text62       000000
__Htext63                                                 text63       000000
__Htext64                                                 text64       000000
__Htext65                                                 text65       000000
__Htext66                                                 text66       000000
__Htext67                                                 text67       000000
__Htext68                                                 text68       000000
__Htext69                                                 text69       000000
__Htext7                                                  text7        000000
__Htext70                                                 text70       000000
__Htext71                                                 text71       000000
__Htext72                                                 text72       000000
__Htext73                                                 text73       000000
__Htext74                                                 text74       000000
__Htext75                                                 text75       000000
__Htext76                                                 text76       000000
__Htext77                                                 text77       000000
__Htext78                                                 text78       000000
__Htext79                                                 text79       000000
__Htext8                                                  text8        000000
__Htext80                                                 text80       000000
__Htext81                                                 text81       000000
__Htext82                                                 text82       000000
__Htext83                                                 text83       000000
__Htext84                                                 text84       000000
__Htext85                                                 text85       000000
__Htext86                                                 text86       000000
__Htext87                                                 text87       000000
__Htext88                                                 text88       000000
__Htext89                                                 text89       000000
__Htext9                                                  text9        000000
__Htext90                                                 text90       000000
__Htext91                                                 text91       000000
__Htext92                                                 text92       000000
__Htext93                                                 text93       000000
__Htext94                                                 text94       000000
__Htext95                                                 text95       000000
__Htext96                                                 text96       000000
__Htext97                                                 text97       000000
__Htext98                                                 text98       000000
__Htext99                                                 text99       000000
__LRAM                                                    (abs)        000001
__Labs1                                                   abs1         000000
__Lbank0                                                  bank0        000000
__Lbank1                                                  bank1        000000
__Lbank10                                                 bank10       000000
__Lbank11                                                 bank11       000000
__Lbank12                                                 bank12       000000
__Lbank13                                                 bank13       000000
__Lbank14                                                 bank14       000000
__Lbank2                                                  bank2        000000
__Lbank3                                                  bank3        000000
__Lbank4                                                  bank4        000000
__Lbank5                                                  bank5        000000
__Lbank6                                                  bank6        000000
__Lbank7                                                  bank7        000000
__Lbank8                                                  bank8        000000
__Lbank9                                                  bank9        000000
__Lbigbss                                                 bigbss       000000
__Lbigdata                                                bigdata      000000
__Lbigram                                                 bigram       000000
__Lbigsfr                                                 bigsfr       000000
__Lbss                                                    bss          000000
__LbssBANK0                                               bssBANK0     000000
__LbssBANK1                                               bssBANK1     000000
__LbssBANK2                                               bssBANK2     000000
__LbssBANK3                                               bssBANK3     000000
__LbssCOMRAM                                              bssCOMRAM    000000
__Lcinit                                                  cinit        000000
__Lclrtext                                                clrtext      000000
__Lcomram                                                 comram       000000
__Lconfig                                                 config       000000
__Lconst                                                  const        000000
__LcstackBANK0                                            cstackBANK0  000000
__LcstackBANK2                                            cstackBANK2  000000
__LcstackCOMRAM                                           cstackCOMRAM 000000
__Ldata                                                   data         000000
__LdataBANK0                                              dataBANK0    000000
__LdataBANK1                                              dataBANK1    000000
__LdataBANK2                                              dataBANK2    000000
__LdataBANK3                                              dataBANK3    000000
__Leeprom_data                                            eeprom_data  000000
__Lfarbss                                                 farbss       000000
__Lfardata                                                fardata      000000
__Lheap                                                   heap         000000
__Libigdata                                               ibigdata     000000
__Lidata                                                  idata        000000
__LidataBANK0                                             idataBANK0   000000
__LidataBANK1                                             idataBANK1   000000
__LidataBANK2                                             idataBANK2   000000
__LidataBANK3                                             idataBANK3   000000
__Lidloc                                                  idloc        000000
__Lifardata                                               ifardata     000000
__Linit                                                   init         00009C
__Lintcode                                                intcode      000008
__Lintcode_body                                           intcode_body 000000
__Lintcodelo                                              intcodelo    00009C
__Lintentry                                               intentry     000000
__Lintret                                                 intret       000000
__Lintsave_regs                                           intsave_regs 000000
__Lirdata                                                 irdata       000000
__Lmediumconst                                            mediumconst  000000
__LnvBANK1                                                nvBANK1      000000
__LnvBANK2                                                nvBANK2      000000
__LnvFARRAM                                               nvFARRAM     000000
__Lnvbit                                                  nvbit        000000
__Lnvrram                                                 nvrram       000000
__Lparam                                                  rparam       000000
__Lpowerup                                                powerup      00009C
__Lram                                                    ram          000000
__Lramtop                                                 ramtop       000F00
__Lrbit                                                   rbit         000000
__Lrbss                                                   rbss         000000
__Lrdata                                                  rdata        000000
__Lreset_vec                                              reset_vec    000000
__Lrparam                                                 rparam       000000
__Lsfr                                                    sfr          000000
__Lsmallconst                                             smallconst   000F00
__Lspace_0                                                (abs)        000000
__Lspace_1                                                (abs)        000000
__Lspace_2                                                (abs)        000000
__Lspace_4                                                (abs)        000000
__Lstack                                                  stack        000000
__Lstruct                                                 struct       000000
__Ltemp                                                   temp         000050
__Ltext                                                   text         000000
__Ltext0                                                  text0        000000
__Ltext1                                                  text1        000000
__Ltext10                                                 text10       000000
__Ltext100                                                text100      000000
__Ltext101                                                text101      000000
__Ltext102                                                text102      000000
__Ltext103                                                text103      000000
__Ltext104                                                text104      000000
__Ltext105                                                text105      000000
__Ltext106                                                text106      000000
__Ltext107                                                text107      000000
__Ltext108                                                text108      000000
__Ltext109                                                text109      000000
__Ltext11                                                 text11       000000
__Ltext110                                                text110      000000
__Ltext111                                                text111      000000
__Ltext112                                                text112      000000
__Ltext113                                                text113      000000
__Ltext114                                                text114      000000
__Ltext115                                                text115      000000
__Ltext116                                                text116      000000
__Ltext117                                                text117      000000
__Ltext118                                                text118      000000
__Ltext119                                                text119      000000
__Ltext12                                                 text12       000000
__Ltext120                                                text120      000000
__Ltext121                                                text121      000000
__Ltext122                                                text122      000000
__Ltext123                                                text123      000000
__Ltext124                                                text124      000000
__Ltext125                                                text125      000000
__Ltext126                                                text126      000000
__Ltext127                                                text127      000000
__Ltext128                                                text128      000000
__Ltext129                                                text129      000000
__Ltext13                                                 text13       000000
__Ltext130                                                text130      000000
__Ltext131                                                text131      000000
__Ltext132                                                text132      000000
__Ltext133                                                text133      000000
__Ltext134                                                text134      000000
__Ltext135                                                text135      000000
__Ltext136                                                text136      000000
__Ltext137                                                text137      000000
__Ltext138                                                text138      000000
__Ltext139                                                text139      000000
__Ltext14                                                 text14       000000
__Ltext140                                                text140      000000
__Ltext141                                                text141      000000
__Ltext142                                                text142      000000
__Ltext143                                                text143      000000
__Ltext144                                                text144      000000
__Ltext145                                                text145      000000
__Ltext146                                                text146      000000
__Ltext147                                                text147      000000
__Ltext148                                                text148      000000
__Ltext149                                                text149      000000
__Ltext15                                                 text15       000000
__Ltext150                                                text150      000000
__Ltext151                                                text151      000000
__Ltext152                                                text152      000000
__Ltext153                                                text153      000000
__Ltext154                                                text154      000000
__Ltext155                                                text155      000000
__Ltext156                                                text156      000000
__Ltext157                                                text157      000000
__Ltext158                                                text158      000000
__Ltext159                                                text159      000000
__Ltext16                                                 text16       000000
__Ltext160                                                text160      000000
__Ltext161                                                text161      000000
__Ltext162                                                text162      000000
__Ltext163                                                text163      000000
__Ltext164                                                text164      000000
__Ltext165                                                text165      000000
__Ltext166                                                text166      000000
__Ltext167                                                text167      000000
__Ltext168                                                text168      000000
__Ltext169                                                text169      000000
__Ltext17                                                 text17       000000
__Ltext170                                                text170      000000
__Ltext171                                                text171      000000
__Ltext172                                                text172      000000
__Ltext173                                                text173      000000
__Ltext174                                                text174      000000
__Ltext175                                                text175      000000
__Ltext176                                                text176      000000
__Ltext177                                                text177      000000
__Ltext178                                                text178      000000
__Ltext179                                                text179      000000
__Ltext18                                                 text18       000000
__Ltext180                                                text180      000000
__Ltext181                                                text181      000000
__Ltext182                                                text182      000000
__Ltext183                                                text183      000000
__Ltext184                                                text184      000000
__Ltext185                                                text185      000000
__Ltext186                                                text186      000000
__Ltext188                                                text188      000000
__Ltext189                                                text189      000000
__Ltext19                                                 text19       000000
__Ltext190                                                text190      000000
__Ltext191                                                text191      000000
__Ltext192                                                text192      000000
__Ltext193                                                text193      000000
__Ltext194                                                text194      000000
__Ltext195                                                text195      000000
__Ltext196                                                text196      000000
__Ltext197                                                text197      000000
__Ltext198                                                text198      000000
__Ltext199                                                text199      000000
__Ltext2                                                  text2        000000
__Ltext20                                                 text20       000000
__Ltext200                                                text200      000000
__Ltext201                                                text201      000000
__Ltext202                                                text202      000000
__Ltext203                                                text203      000000
__Ltext204                                                text204      000000
__Ltext205                                                text205      000000
__Ltext206                                                text206      000000
__Ltext207                                                text207      000000
__Ltext208                                                text208      000000
__Ltext209                                                text209      000000
__Ltext21                                                 text21       000000
__Ltext210                                                text210      000000
__Ltext211                                                text211      000000
__Ltext22                                                 text22       000000
__Ltext23                                                 text23       000000
__Ltext24                                                 text24       000000
__Ltext25                                                 text25       000000
__Ltext26                                                 text26       000000
__Ltext27                                                 text27       000000
__Ltext28                                                 text28       000000
__Ltext29                                                 text29       000000
__Ltext3                                                  text3        000000
__Ltext30                                                 text30       000000
__Ltext31                                                 text31       000000
__Ltext32                                                 text32       000000
__Ltext33                                                 text33       000000
__Ltext34                                                 text34       000000
__Ltext35                                                 text35       000000
__Ltext36                                                 text36       000000
__Ltext37                                                 text37       000000
__Ltext38                                                 text38       000000
__Ltext39                                                 text39       000000
__Ltext4                                                  text4        000000
__Ltext40                                                 text40       000000
__Ltext41                                                 text41       000000
__Ltext42                                                 text42       000000
__Ltext43                                                 text43       000000
__Ltext44                                                 text44       000000
__Ltext45                                                 text45       000000
__Ltext46                                                 text46       000000
__Ltext47                                                 text47       000000
__Ltext48                                                 text48       000000
__Ltext49                                                 text49       000000
__Ltext5                                                  text5        000000
__Ltext50                                                 text50       000000
__Ltext51                                                 text51       000000
__Ltext52                                                 text52       000000
__Ltext53                                                 text53       000000
__Ltext54                                                 text54       000000
__Ltext55                                                 text55       000000
__Ltext56                                                 text56       000000
__Ltext57                                                 text57       000000
__Ltext58                                                 text58       000000
__Ltext59                                                 text59       000000
__Ltext6                                                  text6        000000
__Ltext60                                                 text60       000000
__Ltext61                                                 text61       000000
__Ltext62                                                 text62       000000
__Ltext63                                                 text63       000000
__Ltext64                                                 text64       000000
__Ltext65                                                 text65       000000
__Ltext66                                                 text66       000000
__Ltext67                                                 text67       000000
__Ltext68                                                 text68       000000
__Ltext69                                                 text69       000000
__Ltext7                                                  text7        000000
__Ltext70                                                 text70       000000
__Ltext71                                                 text71       000000
__Ltext72                                                 text72       000000
__Ltext73                                                 text73       000000
__Ltext74                                                 text74       000000
__Ltext75                                                 text75       000000
__Ltext76                                                 text76       000000
__Ltext77                                                 text77       000000
__Ltext78                                                 text78       000000
__Ltext79                                                 text79       000000
__Ltext8                                                  text8        000000
__Ltext80                                                 text80       000000
__Ltext81                                                 text81       000000
__Ltext82                                                 text82       000000
__Ltext83                                                 text83       000000
__Ltext84                                                 text84       000000
__Ltext85                                                 text85       000000
__Ltext86                                                 text86       000000
__Ltext87                                                 text87       000000
__Ltext88                                                 text88       000000
__Ltext89                                                 text89       000000
__Ltext9                                                  text9        000000
__Ltext90                                                 text90       000000
__Ltext91                                                 text91       000000
__Ltext92                                                 text92       000000
__Ltext93                                                 text93       000000
__Ltext94                                                 text94       000000
__Ltext95                                                 text95       000000
__Ltext96                                                 text96       000000
__Ltext97                                                 text97       000000
__Ltext98                                                 text98       000000
__Ltext99                                                 text99       000000
__S0                                                      (abs)        00A02B
__S1                                                      (abs)        0003F7
__S4                                                      (abs)        000000
__S5                                                      (abs)        000000
___awdiv                                                  text11       008576
___awdiv@counter                                          cstackCOMRAM 000018
___awdiv@dividend                                         cstackCOMRAM 000014
___awdiv@divisor                                          cstackCOMRAM 000016
___awdiv@quotient                                         cstackCOMRAM 00001A
___awdiv@sign                                             cstackCOMRAM 000019
___heap_hi                                                (abs)        000000
___heap_lo                                                (abs)        000000
___inthi_sp                                               stack        000000
___intlo_sp                                               stack        000000
___lbdiv                                                  text51       0096D6
___lbdiv@counter                                          cstackCOMRAM 000012
___lbdiv@dividend                                         cstackCOMRAM 000011
___lbdiv@divisor                                          cstackCOMRAM 000010
___lbdiv@quotient                                         cstackCOMRAM 000013
___lbmod                                                  text10       009AB2
___lbmod@counter                                          cstackCOMRAM 000012
___lbmod@dividend                                         cstackCOMRAM 000011
___lbmod@divisor                                          cstackCOMRAM 000010
___lbmod@rem                                              cstackCOMRAM 000013
___lldiv                                                  text16       00867E
___lldiv@counter                                          cstackCOMRAM 00001C
___lldiv@dividend                                         cstackCOMRAM 000010
___lldiv@divisor                                          cstackCOMRAM 000014
___lldiv@quotient                                         cstackCOMRAM 000018
___lmul                                                   text36       00916A
___lmul@multiplicand                                      cstackCOMRAM 000021
___lmul@multiplier                                        cstackCOMRAM 00001D
___lmul@product                                           cstackCOMRAM 000025
___lwdiv                                                  text126      00926A
___lwdiv@counter                                          cstackCOMRAM 000014
___lwdiv@dividend                                         cstackCOMRAM 000010
___lwdiv@divisor                                          cstackCOMRAM 000012
___lwdiv@quotient                                         cstackCOMRAM 000015
___param_bank                                             (abs)        000000
___rparam_used                                            (abs)        000001
___sp                                                     stack        000000
___wmul                                                   text128      009B7A
___wmul@multiplicand                                      cstackCOMRAM 000012
___wmul@multiplier                                        cstackCOMRAM 000010
___wmul@product                                           cstackCOMRAM 000014
__accesstop                                               (abs)        000060
__activetblptr                                            (abs)        000003
__end_of_ADCC_GetSingleConversion                         text195      009E46
__end_of_ADCC_Initialize                                  text111      00935C
__end_of_ClearFlag_rfCMD                                  text13       009FD0
__end_of_CloseOrder                                       text32       009B54
__end_of_ControlCounterMoves                              text130      0090BC
__end_of_ControlCurrent                                   text120      006CE8
__end_of_ControlDecelarationFactor                        text29       009DA2
__end_of_ControlInputs                                    text119      0072DE
__end_of_ControlLights                                    text115      0049FE
__end_of_ControlMotor                                     text113      005694
__end_of_DecCHK                                           text66       0097AE
__end_of_Decrypt                                          text62       007B88
__end_of_DecryptPacket_12BIT                              text67       00834E
__end_of_EUSART1_DefaultErrorHandler                      text209      009FF4
__end_of_EUSART1_DefaultFramingErrorHandler               text208      00A02A
__end_of_EUSART1_DefaultOverrunErrorHandler               text207      009FEE
__end_of_EUSART1_Initialize                               text105      0087FE
__end_of_EUSART1_Read                                     text55       00948A
__end_of_EUSART1_Receive_ISR                              text206      008108
__end_of_EUSART1_RxDataHandler                            text210      009C98
__end_of_EUSART1_SetErrorHandler                          text110      009F50
__end_of_EUSART1_SetFramingErrorHandler                   text109      009F46
__end_of_EUSART1_SetOverrunErrorHandler                   text108      009F3C
__end_of_EUSART1_SetRxInterruptHandler                    text107      009F32
__end_of_EUSART1_SetTxInterruptHandler                    text106      009F28
__end_of_EUSART1_Transmit_ISR                             text205      009844
__end_of_EUSART1_Write                                    text80       0095DA
__end_of_EUSART1_is_rx_ready                              text112      009EA4
__end_of_GetMotorPower                                    text129      007C4E
__end_of_GetOpenOrder                                     text50       00605C
__end_of_GetSecurityStateInClosing                        text38       007FC8
__end_of_GetSecurityStateInOpening                        text48       00806E
__end_of_HopCHK                                           text63       0084F0
__end_of_I2C1_CallbackReturnReset                         text165      00A008
__end_of_I2C1_CallbackReturnStop                          text166      00A00C
__end_of_I2C1_Close                                       text183      009C76
__end_of_I2C1_DO_ADDRESS_NACK                             text142      0093F8
__end_of_I2C1_DO_IDLE                                     text156      009F6E
__end_of_I2C1_DO_RCEN                                     text151      009F64
__end_of_I2C1_DO_RESET                                    text143      009F5A
__end_of_I2C1_DO_RX                                       text152      0088F4
__end_of_I2C1_DO_RX_ACK                                   text146      009F96
__end_of_I2C1_DO_RX_NACK_RESTART                          text144      009F86
__end_of_I2C1_DO_RX_NACK_STOP                             text145      009F8E
__end_of_I2C1_DO_SEND_ADR_READ                            text155      009EDE
__end_of_I2C1_DO_SEND_ADR_WRITE                           text154      009ED0
__end_of_I2C1_DO_SEND_RESTART                             text148      009FA6
__end_of_I2C1_DO_SEND_RESTART_READ                        text150      009FB6
__end_of_I2C1_DO_SEND_RESTART_WRITE                       text149      009FAE
__end_of_I2C1_DO_SEND_STOP                                text147      009F9E
__end_of_I2C1_DO_TX                                       text153      008466
__end_of_I2C1_DO_TX_EMPTY                                 text157      008EF4
__end_of_I2C1_Initialize                                  text104      009E82
__end_of_I2C1_MasterClearIrq                              text186      009FE8
__end_of_I2C1_MasterClose                                 text185      00A020
__end_of_I2C1_MasterDisableIrq                            text184      00A01C
__end_of_I2C1_MasterEnableRestart                         text181      00A014
__end_of_I2C1_MasterFsm                                   text141      00926A
__end_of_I2C1_MasterGetRxData                             text162      00A000
__end_of_I2C1_MasterIsNack                                text159      009EEA
__end_of_I2C1_MasterOpen                                  text136      009E02
__end_of_I2C1_MasterOperation                             text138      009952
__end_of_I2C1_MasterSendAck                               text161      009FDC
__end_of_I2C1_MasterSendNack                              text163      009FE2
__end_of_I2C1_MasterSendTxData                            text160      009FBE
__end_of_I2C1_MasterSetIrq                                text158      009FD6
__end_of_I2C1_MasterStart                                 text182      00A018
__end_of_I2C1_MasterStartRx                               text164      00A004
__end_of_I2C1_MasterStop                                  text180      00A010
__end_of_I2C1_MasterWaitForEvent                          text140      009F7E
__end_of_I2C1_MasterWrite                                 text137      009F76
__end_of_I2C1_Open                                        text135      00867E
__end_of_I2C1_Poller                                      text139      009EB4
__end_of_I2C1_Read1ByteRegister                           text72       009008
__end_of_I2C1_SetAddressNackCallback                      text134      009DEA
__end_of_I2C1_SetBuffer                                   text179      009D8A
__end_of_I2C1_SetCallback                                 text178      008CFA
__end_of_I2C1_SetDataCompleteCallback                     text177      009E1A
__end_of_INTERRUPT_Initialize                             text103      009FFC
__end_of_INTERRUPT_InterruptManager                       intcode      00009C
__end_of_InitFullAutoTime                                 text42       009D56
__end_of_InitReceiver                                     text5        009D22
__end_of_InitSoftStart                                    text46       008FAC
__end_of_InitSoftStop                                     text28       009442
__end_of_InitWalkAutoTime                                 text47       009E5A
__end_of_LoadManufCode                                    text61       009C32
__end_of_NormalKeyGen                                     text60       0074FC
__end_of_OSCILLATOR_Initialize                            text102      009E30
__end_of_OpenFullOrder                                    text41       009B7A
__end_of_OpenWalkOrder                                    text43       008C8C
__end_of_PIN_MANAGER_Initialize                           text101      0081A0
__end_of_PMD_Initialize                                   text100      009CEC
__end_of_RGB_Set                                          text117      009EC2
__end_of_ReadADC                                          text194      009216
__end_of_ReadSerial                                       text86       008C1E
__end_of_RemoveSerial                                     text85       008780
__end_of_ReqResync                                        text65       009DBA
__end_of_ResetDefaultMemory                               text71       0069EC
__end_of_SYSTEM_Initialize                                text92       0098A2
__end_of_SaveNVM_VarSystem                                text131      009748
__end_of_Segments_Set                                     text190      009EF6
__end_of_SetSegmentValue                                  text91       009D70
__end_of_SetSegmentValueIntermitent                       text49       0098CE
__end_of_SetSegmentValueIntermitentMain                   text52       009E6E
__end_of_SetSegmentValueLearn                             text15       0077FE
__end_of_SetSegmentValueMain                              text12       009D3C
__end_of_ShowVersion                                      text90       008E34
__end_of_StopOrder                                        text37       009CB4
__end_of_TMR0_DefaultInterruptHandler                     text204      00A028
__end_of_TMR0_ISR                                         text202      009BC6
__end_of_TMR0_Initialize                                  text98       009C54
__end_of_TMR0_SetInterruptHandler                         text99       009F1E
__end_of_TMR1_DefaultInterruptHandler                     text201      00A026
__end_of_TMR1_ISR                                         text196      00969A
__end_of_TMR1_Initialize                                  text96       00959A
__end_of_TMR1_SetInterruptHandler                         text97       009F14
__end_of_TMR1_WriteTimer                                  text200      009D08
__end_of_TMR2_DefaultInterruptHandler                     text193      00A024
__end_of_TMR2_ISR                                         text188      006E36
__end_of_TMR2_Initialize                                  text94       009926
__end_of_TMR2_SetInterruptHandler                         text95       009F0A
__end_of_VerifyElectricalBrake                            text114      00896C
__end_of_VerifyFollowMe                                   text31       009C10
__end_of_WWDT_Initialize                                  text93       009F00
__end_of_WWDT_SoftEnable                                  text89       009FF8
__end_of_WWDT_TimerClear                                  text88       009CD0
__end_of_WaitPreFlash                                     text40       008B3E
__end_of___awdiv                                          text11       0085FA
__end_of___lbdiv                                          text51       009710
__end_of___lbmod                                          text10       009ADC
__end_of___lldiv                                          text16       008700
__end_of___lmul                                           text36       0091C0
__end_of___lwdiv                                          text126      0092BC
__end_of___wmul                                           text128      009BA0
__end_of__initialization                                  cinit        007E6E
__end_of_actionZone_Closed                                text39       007F22
__end_of_actionZone_Closing                               text33       004F80
__end_of_actionZone_Opened                                text30       005CC2
__end_of_actionZone_Opening                               text24       00544A
__end_of_calculateMean                                    text23       008E96
__end_of_checkNVM_VarSystem                               text70       0061FC
__end_of_clearLearningValue                               text22       00887A
__end_of_cmdMemoryIsEmpty                                 text84       008232
__end_of_confirmpackage                                   text82       009062
__end_of_controlLearnDigit                                text14       009874
__end_of_controlMotorForce                                text197      0058B6
__end_of_controlSaveRemote                                text9        007DC8
__end_of_controlSelectRemote                              text6        00438E
__end_of_controlTimeslots                                 text191      0066CC
__end_of_controlVelocity                                  text26       005AD4
__end_of_decrementTimeslot                                text192      009B06
__end_of_eusartparser                                     text74       0018B8
__end_of_generateErrorLearnig                             text19       008DCE
__end_of_getCurrentComparator                             text127      006532
__end_of_getHopCode                                       text64       006F64
__end_of_getKeyPressed                                    text73       009DD2
__end_of_getSerialCmd                                     text8        0093AA
__end_of_getStateOpenPosition                             text27       0073EE
__end_of_getTimeDecelaration                              text35       0079E0
__end_of_getTypeRemote                                    text7        009FCA
__end_of_i2c1_fsmStateTable                               smallconst   000F21
__end_of_i2c_readDataBlock                                text87       008A5A
__end_of_i2c_writeNBytes                                  text132      008ACE
__end_of_init_package                                     text83       009812
__end_of_keeloqDecryptPacket                              text57       005E94
__end_of_keeloq_classic_decrypt_packet                    text59       009114
__end_of_loadNVM_VarSystem                                text69       007092
__end_of_load_New_Menu                                    text4        004CF4
__end_of_main                                             text0        006B74
__end_of_memcpy                                           text133      009558
__end_of_rd1RegCompleteHandler                            text174      009A5A
__end_of_rd1RegCompleteHandler@i2c1_master_example$F500   text170      0099D6
__end_of_rd2RegCompleteHandler                            text173      009A2E
__end_of_rd2RegCompleteHandler@i2c1_master_example$F511   text169      0099AA
__end_of_rdBlkRegCompleteHandler                          text171      00965A
__end_of_rdBlkRegCompleteHandler@i2c1_master_example$F535 text167      00961A
__end_of_readInputs                                       text68       007604
__end_of_readRFButtons                                    text56       006862
__end_of_read_eusartparser                                text78       002FC4
__end_of_read_package                                     text54       00930C
__end_of_readbutton                                       text53       008D66
__end_of_refreshADCZeroOffset                             text125      007702
__end_of_refreshCurrent                                   text121      0094D0
__end_of_refreshSegment                                   text189      008576
__end_of_rxi                                              text203      0051F6
__end_of_saveEnergyADCHist                                text124      009B2E
__end_of_saveNewSerial                                    text81       008BAE
__end_of_setFlashLigth_ON                                 text118      0096D6
__end_of_setPositionInvertionInClosing                    text34       0071BA
__end_of_setPositionInvertionInOpening                    text25       007ABC
__end_of_setRGB_ON                                        text116      0082C2
__end_of_setValueToEdit                                   text3        003A9A
__end_of_sm_execute_ControlGate                           text17       0046DA
__end_of_sm_execute_ControlLearning                       text18       002938
__end_of_sm_execute_main                                  text1        003FAC
__end_of_sm_execute_menuConfiguration                     text2        002220
__end_of_sm_get_current_state                             text45       009E94
__end_of_sm_init                                          text20       00916A
__end_of_sm_restart                                       text21       009514
__end_of_sm_send_event                                    text44       008F50
__end_of_sumEnergyADC                                     text123      0083DA
__end_of_sumHIST                                          text122      0078F8
__end_of_updateChangesToUart                              text77       0097E0
__end_of_validateRemoteSerialNumber                       text76       006398
__end_of_verifyProgramingMode                             text58       00977C
__end_of_wr1RegCompleteHandler                            text175      009A86
__end_of_wr1RegCompleteHandler@i2c1_master_example$F517   text168      00997E
__end_of_wr2RegCompleteHandler                            text172      009A02
__end_of_wr2RegCompleteHandler@i2c1_master_example$F523   text176      009AB2
__end_of_write_eusartparser                               text75       003568
__end_of_write_package                                    text79       0098FA
__end_ofi2_GetMotorPower                                  text199      007D14
__end_ofi2_VerifyElectricalBrake                          text198      0089E4
__initialization                                          cinit        007DC8
__mediumconst                                             mediumconst  000000
__pbssBANK0                                               bssBANK0     000060
__pbssBANK1                                               bssBANK1     000100
__pbssBANK2                                               bssBANK2     000200
__pbssBANK3                                               bssBANK3     000300
__pbssCOMRAM                                              bssCOMRAM    00003B
__pcinit                                                  cinit        007DC8
__pcstackBANK0                                            cstackBANK0  0000D8
__pcstackBANK2                                            cstackBANK2  0002EF
__pcstackCOMRAM                                           cstackCOMRAM 000001
__pdataBANK0                                              dataBANK0    0000FC
__pdataBANK1                                              dataBANK1    0001FE
__pdataBANK2                                              dataBANK2    0002F6
__pdataBANK3                                              dataBANK3    0003D2
__pidataBANK0                                             idataBANK0   00A020
__pidataBANK1                                             idataBANK1   00A02A
__pidataBANK2                                             idataBANK2   009FBE
__pidataBANK3                                             idataBANK3   009BC6
__pintcode                                                intcode      000008
__pnvBANK1                                                nvBANK1      0001FD
__pnvBANK2                                                nvBANK2      0002DD
__psmallconst                                             smallconst   000F00
__ptext0                                                  text0        0069EC
__ptext1                                                  text1        003A9A
__ptext10                                                 text10       009AB2
__ptext100                                                text100      009CD0
__ptext101                                                text101      008108
__ptext102                                                text102      009E1A
__ptext103                                                text103      009FF8
__ptext104                                                text104      009E6E
__ptext105                                                text105      008780
__ptext106                                                text106      009F1E
__ptext107                                                text107      009F28
__ptext108                                                text108      009F32
__ptext109                                                text109      009F3C
__ptext11                                                 text11       008576
__ptext110                                                text110      009F46
__ptext111                                                text111      00930C
__ptext112                                                text112      009E94
__ptext113                                                text113      00544A
__ptext114                                                text114      0088F4
__ptext115                                                text115      0046DA
__ptext116                                                text116      008232
__ptext117                                                text117      009EB4
__ptext118                                                text118      00969A
__ptext119                                                text119      0071BA
__ptext12                                                 text12       009D22
__ptext120                                                text120      006B74
__ptext121                                                text121      00948A
__ptext122                                                text122      0077FE
__ptext123                                                text123      00834E
__ptext124                                                text124      009B06
__ptext125                                                text125      007604
__ptext126                                                text126      00926A
__ptext127                                                text127      006398
__ptext128                                                text128      009B7A
__ptext129                                                text129      007B88
__ptext13                                                 text13       009FCA
__ptext130                                                text130      009062
__ptext131                                                text131      009710
__ptext132                                                text132      008A5A
__ptext133                                                text133      009514
__ptext134                                                text134      009DD2
__ptext135                                                text135      0085FA
__ptext136                                                text136      009DEA
__ptext137                                                text137      009F6E
__ptext138                                                text138      009926
__ptext139                                                text139      009EA4
__ptext14                                                 text14       009844
__ptext140                                                text140      009F76
__ptext141                                                text141      009216
__ptext142                                                text142      0093AA
__ptext143                                                text143      009F50
__ptext144                                                text144      009F7E
__ptext145                                                text145      009F86
__ptext146                                                text146      009F8E
__ptext147                                                text147      009F96
__ptext148                                                text148      009F9E
__ptext149                                                text149      009FA6
__ptext15                                                 text15       007702
__ptext150                                                text150      009FAE
__ptext151                                                text151      009F5A
__ptext152                                                text152      00887A
__ptext153                                                text153      0083DA
__ptext154                                                text154      009EC2
__ptext155                                                text155      009ED0
__ptext156                                                text156      009F64
__ptext157                                                text157      008E96
__ptext158                                                text158      009FD0
__ptext159                                                text159      009EDE
__ptext16                                                 text16       00867E
__ptext160                                                text160      009FB6
__ptext161                                                text161      009FD6
__ptext162                                                text162      009FFC
__ptext163                                                text163      009FDC
__ptext164                                                text164      00A000
__ptext165                                                text165      00A004
__ptext166                                                text166      00A008
__ptext167                                                text167      0095DA
__ptext168                                                text168      009952
__ptext169                                                text169      00997E
__ptext17                                                 text17       00438E
__ptext170                                                text170      0099AA
__ptext171                                                text171      00961A
__ptext172                                                text172      0099D6
__ptext173                                                text173      009A02
__ptext174                                                text174      009A2E
__ptext175                                                text175      009A5A
__ptext176                                                text176      009A86
__ptext177                                                text177      009E02
__ptext178                                                text178      008C8C
__ptext179                                                text179      009D70
__ptext18                                                 text18       002220
__ptext180                                                text180      00A00C
__ptext181                                                text181      00A010
__ptext182                                                text182      00A014
__ptext183                                                text183      009C54
__ptext184                                                text184      00A018
__ptext185                                                text185      00A01C
__ptext186                                                text186      009FE2
__ptext188                                                text188      006CE8
__ptext189                                                text189      0084F0
__ptext19                                                 text19       008D66
__ptext190                                                text190      009EEA
__ptext191                                                text191      006532
__ptext192                                                text192      009ADC
__ptext193                                                text193      00A022
__ptext194                                                text194      0091C0
__ptext195                                                text195      009E30
__ptext196                                                text196      00965A
__ptext197                                                text197      005694
__ptext198                                                text198      00896C
__ptext199                                                text199      007C4E
__ptext2                                                  text2        0018B8
__ptext20                                                 text20       009114
__ptext200                                                text200      009CEC
__ptext201                                                text201      00A024
__ptext202                                                text202      009BA0
__ptext203                                                text203      004F80
__ptext204                                                text204      00A026
__ptext205                                                text205      009812
__ptext206                                                text206      00806E
__ptext207                                                text207      009FE8
__ptext208                                                text208      00A028
__ptext209                                                text209      009FEE
__ptext21                                                 text21       0094D0
__ptext210                                                text210      009C76
__ptext211                                                text211      000000
__ptext22                                                 text22       0087FE
__ptext23                                                 text23       008E34
__ptext24                                                 text24       0051F6
__ptext25                                                 text25       0079E0
__ptext26                                                 text26       0058B6
__ptext27                                                 text27       0072DE
__ptext28                                                 text28       0093F8
__ptext29                                                 text29       009D8A
__ptext3                                                  text3        003568
__ptext30                                                 text30       005AD4
__ptext31                                                 text31       009BEC
__ptext32                                                 text32       009B2E
__ptext33                                                 text33       004CF4
__ptext34                                                 text34       007092
__ptext35                                                 text35       0078F8
__ptext36                                                 text36       00916A
__ptext37                                                 text37       009C98
__ptext38                                                 text38       007F22
__ptext39                                                 text39       007E78
__ptext4                                                  text4        0049FE
__ptext40                                                 text40       008ACE
__ptext41                                                 text41       009B54
__ptext42                                                 text42       009D3C
__ptext43                                                 text43       008C1E
__ptext44                                                 text44       008EF4
__ptext45                                                 text45       009E82
__ptext46                                                 text46       008F50
__ptext47                                                 text47       009E46
__ptext48                                                 text48       007FC8
__ptext49                                                 text49       0098A2
__ptext5                                                  text5        009D08
__ptext50                                                 text50       005E94
__ptext51                                                 text51       0096D6
__ptext52                                                 text52       009E5A
__ptext53                                                 text53       008CFA
__ptext54                                                 text54       0092BC
__ptext55                                                 text55       009442
__ptext56                                                 text56       0066CC
__ptext57                                                 text57       005CC2
__ptext58                                                 text58       009748
__ptext59                                                 text59       0090BC
__ptext6                                                  text6        003FAC
__ptext60                                                 text60       0073EE
__ptext61                                                 text61       009C10
__ptext62                                                 text62       007ABC
__ptext63                                                 text63       008466
__ptext64                                                 text64       006E36
__ptext65                                                 text65       009DA2
__ptext66                                                 text66       00977C
__ptext67                                                 text67       0082C2
__ptext68                                                 text68       0074FC
__ptext69                                                 text69       006F64
__ptext7                                                  text7        009FC4
__ptext70                                                 text70       00605C
__ptext71                                                 text71       006862
__ptext72                                                 text72       008FAC
__ptext73                                                 text73       009DBA
__ptext74                                                 text74       000F22
__ptext75                                                 text75       002FC4
__ptext76                                                 text76       0061FC
__ptext77                                                 text77       0097AE
__ptext78                                                 text78       002938
__ptext79                                                 text79       0098CE
__ptext8                                                  text8        00935C
__ptext80                                                 text80       00959A
__ptext81                                                 text81       008B3E
__ptext82                                                 text82       009008
__ptext83                                                 text83       0097E0
__ptext84                                                 text84       0081A0
__ptext85                                                 text85       008700
__ptext86                                                 text86       008BAE
__ptext87                                                 text87       0089E4
__ptext88                                                 text88       009CB4
__ptext89                                                 text89       009FF4
__ptext9                                                  text9        007D14
__ptext90                                                 text90       008DCE
__ptext91                                                 text91       009D56
__ptext92                                                 text92       009874
__ptext93                                                 text93       009EF6
__ptext94                                                 text94       0098FA
__ptext95                                                 text95       009F00
__ptext96                                                 text96       009558
__ptext97                                                 text97       009F0A
__ptext98                                                 text98       009C32
__ptext99                                                 text99       009F14
__ramtop                                                  ramtop       000F00
__smallconst                                              smallconst   000F00
_actionZone_Closed                                        text39       007E78
_actionZone_Closing                                       text33       004CF4
_actionZone_Opened                                        text30       005AD4
_actionZone_Opening                                       text24       0051F6
_auxCounter                                               dataBANK0    0000FC
_aux_i                                                    bssBANK1     000190
_aux_in_auto_close                                        bssBANK1     00018F
_brakeElectric_st                                         bssBANK0     000078
_button_struct                                            bssCOMRAM    00004C
_calculateMean                                            text23       008E34
_checkNVM_VarSystem                                       text70       00605C
_classic_data                                             bssBANK2     000292
_clearLearningValue                                       text22       0087FE
_cmdMemoryIsEmpty                                         text84       0081A0
_confirmpackage                                           text82       009008
_controlGate_stateMachine                                 bssBANK1     0001E6
_controlLearnDigit                                        text14       009844
_controlLearning_stateMachine                             bssBANK2     0002B2
_controlMotorForce                                        text197      005694
_controlSaveRemote                                        text9        007D14
_controlSelectRemote                                      text6        003FAC
_controlTimeslots                                         text191      006532
_controlVelocity                                          text26       0058B6
_control_limit_switch                                     bssBANK0     000081
_decrementTimeslot                                        text192      009ADC
_difTime                                                  bssBANK1     000193
_dispStruct                                               bssBANK0     000072
_done_changes                                             bssBANK1     00018E
_edit_Param                                               bssCOMRAM    000046
_erroranterior                                            bssBANK1     00018B
_eusart1RxBuffer                                          bssBANK2     00027C
_eusart1RxCount                                           bssBANK0     000093
_eusart1RxHead                                            bssBANK0     000095
_eusart1RxLastError                                       bssBANK1     00019D
_eusart1RxStatusBuffer                                    bssBANK2     000274
_eusart1RxTail                                            bssBANK0     000094
_eusart1TxBuffer                                          bssBANK2     000284
_eusart1TxBufferRemaining                                 nvBANK1      0001FD
_eusart1TxHead                                            bssBANK0     000097
_eusart1TxTail                                            bssBANK0     000096
_eusartparser                                             text74       000F22
_fimdecurso                                               bssBANK1     000175
_firstselectflag                                          dataBANK1    0001FE
_fullmotorPower                                           bssBANK0     000082
_generateErrorLearnig                                     text19       008D66
_getCurrentComparator                                     text127      006398
_getHopCode                                               text64       006E36
_getKeyPressed                                            text73       009DBA
_getSerialCmd                                             text8        00935C
_getStateOpenPosition                                     text27       0072DE
_getTimeDecelaration                                      text35       0078F8
_getTypeRemote                                            text7        009FC4
_i2c1_fsmStateTable                                       smallconst   000F01
_i2c_readDataBlock                                        text87       0089E4
_i2c_writeNBytes                                          text132      008A5A
_idxAdcAquisition                                         bssBANK0     000091
_idxAdcZeroAquisition                                     bssBANK0     00008F
_idxSaveEnergyADCHist                                     bssBANK0     000090
_init_package                                             text83       0097E0
_keeloqDecryptPacket                                      text57       005CC2
_keeloq_classic_decrypt_packet                            text59       0090BC
_lastKey                                                  bssBANK1     000198
_learn_st                                                 bssBANK0     000060
_listSyncValues                                           bssBANK3     000300
_loadNVM_VarSystem                                        text69       006F64
_load_New_Menu                                            text4        0049FE
_main                                                     text0        0069EC
_main_stateMachine                                        bssBANK1     0001F1
_memcpy                                                   text133      009514
_memoryTEMP                                               bssBANK2     0002A2
_menuConfiguration_stateMachine                           bssBANK2     0002BD
_menu_st                                                  bssBANK1     000151
_numberOfErrorCurrent                                     bssBANK0     00008E
_pointSync                                                bssBANK0     00007A
_powerControl_st                                          bssBANK1     00017B
_programmer_enable                                        bssBANK0     000085
_rd1RegCompleteHandler                                    text174      009A2E
_rd1RegCompleteHandler@i2c1_master_example$F500           text170      0099AA
_rd2RegCompleteHandler                                    text173      009A02
_rd2RegCompleteHandler@i2c1_master_example$F511           text169      00997E
_rdBlkRegCompleteHandler                                  text171      00961A
_rdBlkRegCompleteHandler@i2c1_master_example$F535         text167      0095DA
_readInputs                                               text68       0074FC
_readRFButtons                                            text56       0066CC
_read_eusartparser                                        text78       002938
_read_package                                             text54       0092BC
_readbutton                                               text53       008CFA
_refreshADCZeroOffset                                     text125      007604
_refreshCurrent                                           text121      00948A
_refreshSegment                                           text189      0084F0
_rfCMD                                                    bssCOMRAM    00003B
_rxi                                                      text203      004F80
_saveEnergyADCHist                                        text124      009B06
_saveNewSerial                                            text81       008B3E
_security                                                 bssBANK1     00016A
_setFlashLigth_ON                                         text118      00969A
_setPositionInvertionInClosing                            text34       007092
_setPositionInvertionInOpening                            text25       0079E0
_setRGB_ON                                                text116      008232
_setValueToEdit                                           text3        003568
_sm_execute_ControlGate                                   text17       00438E
_sm_execute_ControlLearning                               text18       002220
_sm_execute_main                                          text1        003A9A
_sm_execute_menuConfiguration                             text2        0018B8
_sm_get_current_state                                     text45       009E82
_sm_init                                                  text20       009114
_sm_restart                                               text21       0094D0
_sm_send_event                                            text44       008EF4
_stateMotor                                               bssBANK0     000083
_sumEnergyADC                                             text123      00834E
_sumHIST                                                  text122      0077FE
_temp                                                     bssBANK0     000080
_tempCounter                                              dataBANK2    0002F6
_temppower                                                bssBANK1     000192
_timer0ReloadVal16bit                                     bssBANK2     000290
_timer1ReloadVal                                          nvBANK2      0002E1
_ts_system                                                bssBANK1     00019E
_updateChangesToUart                                      text77       0097AE
_validateRemoteSerialNumber                               text76       0061FC
_var_sys                                                  bssBANK1     000100
_var_sys_NVM                                              bssBANK0     000098
_verifyProgramingMode                                     text58       009748
_waitZeroPeak                                             bssBANK1     000195
_wr1RegCompleteHandler                                    text175      009A5A
_wr1RegCompleteHandler@i2c1_master_example$F517           text168      009952
_wr2RegCompleteHandler                                    text172      0099D6
_wr2RegCompleteHandler@i2c1_master_example$F523           text176      009A86
_write_eusartparser                                       text75       002FC4
_write_package                                            text79       0098CE
_zeroCrossing                                             bssBANK1     000196
_zeroCrossingLength                                       bssBANK1     000197
_zeroCrossingWaitTime                                     dataBANK2    0002FA
_zeroCrossingWaitTimeIdx                                  bssBANK0     000084
actionZone_Closed@securityOpening                         cstackCOMRAM 000020
actionZone_Closed@typeOpenOrder                           cstackCOMRAM 000021
actionZone_Closing@securityClosing                        cstackCOMRAM 000032
actionZone_Closing@typeOpenOrder                          cstackCOMRAM 000033
actionZone_Opened@securityClosing                         cstackCOMRAM 000020
actionZone_Opened@typeOpenOrder                           cstackCOMRAM 000021
actionZone_Opening@securityClosing                        cstackBANK0  0000E4
actionZone_Opening@securityOpening                        cstackBANK0  0000E5
actionZone_Opening@typeOpenOrder                          cstackBANK0  0000E6
btemp                                                     temp         000050
calculateMean@meanValue                                   cstackCOMRAM 000010
calculateMean@newValue                                    cstackCOMRAM 000014
checkNVM_VarSystem@saveParam                              cstackCOMRAM 00003A
cmdMemoryIsEmpty@cmdType                                  cstackCOMRAM 000031
cmdMemoryIsEmpty@position                                 cstackCOMRAM 00002E
cmdMemoryIsEmpty@tempSerial                               cstackCOMRAM 000032
confirmpackage@confirm                                    cstackCOMRAM 000014
confirmpackage@package                                    cstackCOMRAM 000012
controlSelectRemote@pos                                   cstackBANK0  0000E2
controlSelectRemote@temp                                  cstackBANK0  0000E8
controlSelectRemote@tempSerial                            cstackBANK0  0000E4
controlSelectRemote@typeRemote                            cstackBANK0  0000E3
controlSelectRemote@validSerial                           cstackBANK0  0000E1
decrementTimeslot@ts                                      cstackCOMRAM 000001
end_of_initialization                                     cinit        007E6E
eusartparser@buffer                                       bssBANK1     000185
eusartparser@i                                            cstackBANK0  0000E8
eusartparser@i_7378                                       cstackBANK0  0000E9
eusartparser@i_7379                                       cstackBANK0  0000ED
eusartparser@i_7380                                       cstackBANK0  0000EE
eusartparser@i_7381                                       cstackBANK0  0000F1
eusartparser@i_7382                                       cstackBANK0  0000F2
eusartparser@i_7383                                       cstackBANK0  0000F3
eusartparser@i_7385                                       cstackBANK0  0000EA
eusartparser@i_7386                                       cstackBANK0  0000EB
eusartparser@i_7387                                       cstackBANK0  0000EF
eusartparser@i_7388                                       cstackBANK0  0000F0
eusartparser@i_7389                                       cstackBANK0  0000F4
eusartparser@i_7390                                       cstackBANK0  0000F5
eusartparser@i_7391                                       cstackBANK0  0000F6
eusartparser@package                                      cstackBANK0  0000E0
eusartparser@pos                                          cstackBANK0  0000EC
eusartparser@relcounter                                   cstackBANK0  0000F7
eusartparser@save_f                                       bssBANK1     00018D
eusartparser@serial                                       cstackBANK0  0000F8
getCurrentComparator@tempOffset                           cstackCOMRAM 000020
getCurrentComparator@x                                    cstackCOMRAM 000022
getHopCode@data                                           cstackCOMRAM 000016
getHopCode@i                                              cstackCOMRAM 000023
getHopCode@tempHop                                        cstackCOMRAM 000020
getHopCode@tempPos                                        cstackCOMRAM 000022
getKeyPressed@temp                                        cstackCOMRAM 000010
getSerialCmd@serial                                       cstackCOMRAM 00001B
getSerialCmd@temp                                         cstackCOMRAM 00001C
getStateOpenPosition@state                                cstackBANK0  0000D8
getStateOpenPosition@stateMotor                           cstackBANK0  0000D9
getTimeDecelaration@state                                 cstackCOMRAM 000031
i2GetMotorPower@defineatraso                              cstackCOMRAM 000004
i2VerifyElectricalBrake@actualState                       cstackCOMRAM 000002
i2VerifyElectricalBrake@tempState                         cstackCOMRAM 000001
i2_GetMotorPower                                          text199      007C4E
i2_VerifyElectricalBrake                                  text198      00896C
i2c_readDataBlock@address                                 cstackCOMRAM 000029
i2c_readDataBlock@d                                       cstackCOMRAM 00002A
i2c_readDataBlock@data                                    cstackCOMRAM 000024
i2c_readDataBlock@len                                     cstackCOMRAM 000026
i2c_readDataBlock@reg                                     cstackCOMRAM 000022
i2c_writeNBytes@address                                   cstackCOMRAM 000039
i2c_writeNBytes@dat                                       cstackCOMRAM 000028
i2c_writeNBytes@data                                      cstackCOMRAM 000024
i2c_writeNBytes@len                                       cstackCOMRAM 000025
i2c_writeNBytes@reg                                       cstackCOMRAM 000022
init_package@package                                      cstackCOMRAM 000010
int$flags                                                 temp         000050
intlevel0                                                 text         000000
intlevel1                                                 text         000000
intlevel2                                                 text         000000
intlevel3                                                 text         000000
isa$std                                                   (abs)        000001
isa$xinst                                                 (abs)        000000
keeloqDecryptPacket@classic_data                          cstackBANK0  0000E2
keeloqDecryptPacket@commandType                           cstackBANK0  0000E9
keeloqDecryptPacket@data                                  cstackBANK0  0000E0
keeloqDecryptPacket@hop_error                             cstackBANK0  0000E8
keeloq_classic_decrypt_packet@data                        cstackCOMRAM 000038
load_New_Menu@Menu                                        cstackCOMRAM 000022
load_New_Menu@i                                           cstackCOMRAM 000023
main@package                                              cstackBANK2  0002EF
memcpy@d                                                  cstackCOMRAM 000017
memcpy@d1                                                 cstackCOMRAM 000010
memcpy@n                                                  cstackCOMRAM 000014
memcpy@s                                                  cstackCOMRAM 000019
memcpy@s1                                                 cstackCOMRAM 000012
memcpy@tmp                                                cstackCOMRAM 000016
rd1RegCompleteHandler@i2c1_master_example$F500@ptr        cstackCOMRAM 000019
rd1RegCompleteHandler@p                                   cstackCOMRAM 000019
rd2RegCompleteHandler@i2c1_master_example$F511@ptr        cstackCOMRAM 000019
rd2RegCompleteHandler@p                                   cstackCOMRAM 000019
rdBlkRegCompleteHandler@i2c1_master_example$F535@ptr      cstackCOMRAM 000019
rdBlkRegCompleteHandler@p                                 cstackCOMRAM 000019
readRFButtons@key1                                        bssBANK0     000088
readRFButtons@keyType                                     bssBANK0     000087
readRFButtons@rollingCode                                 bssBANK1     000187
readRFButtons@serial                                      bssBANK1     000181
readRFButtons@typeRemote                                  bssBANK1     00019B
read_eusartparser@package                                 cstackCOMRAM 000018
read_package@package                                      cstackCOMRAM 000018
readbutton@key1                                           bssBANK0     000086
readbutton@key2                                           bssBANK1     00019A
refreshADCZeroOffset@i                                    cstackCOMRAM 000017
refreshADCZeroOffset@media                                cstackCOMRAM 000018
saveEnergyADCHist@valueToSave                             cstackCOMRAM 000010
saveNewSerial@cmdType                                     cstackCOMRAM 00003A
saveNewSerial@position                                    cstackBANK0  0000DC
saveNewSerial@tempSerial                                  cstackBANK0  0000D8
setFlashLigth_ON@Freq                                     cstackCOMRAM 000010
setRGB_ON@Freq                                            cstackCOMRAM 000011
setRGB_ON@RGBLigth                                        cstackCOMRAM 000015
setValueToEdit@ParameterSelected                          cstackCOMRAM 00003A
setValueToEdit@haveValueToEdit                            cstackBANK0  0000E1
setValueToEdit@menuType                                   cstackBANK0  0000DE
setValueToEdit@posindex                                   cstackBANK0  0000DF
setValueToEdit@posindex_6979                              cstackBANK0  0000E0
setValueToEdit@value                                      bssBANK1     0001FC
sm_execute_ControlGate@psm                                cstackBANK0  0000E7
sm_execute_ControlGate@typeOpenOrder                      cstackBANK0  0000EB
sm_execute_ControlLearning@psm                            cstackBANK0  0000DC
sm_execute_ControlLearning@typeOpenOrder                  cstackCOMRAM 00003A
sm_execute_main@psm                                       cstackBANK0  0000ED
sm_execute_menuConfiguration@psm                          cstackBANK0  0000E9
sm_get_current_state@psm                                  cstackCOMRAM 000010
sm_init@hist_mode                                         cstackCOMRAM 000016
sm_init@initial_state                                     cstackCOMRAM 000014
sm_init@psm                                               cstackCOMRAM 000012
sm_restart@psm                                            cstackCOMRAM 000010
sm_send_event@event                                       cstackCOMRAM 000014
sm_send_event@psm                                         cstackCOMRAM 000012
stackhi                                                   (abs)        000000
stacklo                                                   (abs)        000000
start                                                     init         00009C
start_initialization                                      cinit        007DC8
sumEnergyADC@auxValue                                     cstackCOMRAM 000016
sumEnergyADC@i                                            cstackCOMRAM 000018
sumEnergyADC@sumE                                         cstackCOMRAM 000014
sumHIST@i                                                 cstackCOMRAM 000020
sumHIST@max                                               cstackCOMRAM 000018
sumHIST@min                                               cstackCOMRAM 00001A
sumHIST@sumH                                              cstackCOMRAM 00001C
ttemp5                                                    temp         000051
ttemp6                                                    temp         000054
ttemp7                                                    temp         000058
updateChangesToUart@i                                     cstackCOMRAM 00001C
updateChangesToUart@package                               cstackCOMRAM 00001D
validateRemoteSerialNumber@VerifyOnlySerial               cstackCOMRAM 000032
validateRemoteSerialNumber@i                              cstackCOMRAM 00003A
validateRemoteSerialNumber@j                              cstackCOMRAM 000039
validateRemoteSerialNumber@mask                           cstackCOMRAM 000035
validateRemoteSerialNumber@position                       cstackCOMRAM 000033
validateRemoteSerialNumber@serial                         cstackCOMRAM 00002E
verifyProgramingMode@classic_data                         cstackCOMRAM 000010
wr1RegCompleteHandler@i2c1_master_example$F517@ptr        cstackCOMRAM 000019
wr1RegCompleteHandler@p                                   cstackCOMRAM 000019
wr2RegCompleteHandler@i2c1_master_example$F523@ptr        cstackCOMRAM 000019
wr2RegCompleteHandler@p                                   cstackCOMRAM 000019
write_eusartparser@debug                                  cstackCOMRAM 00001F
write_eusartparser@debug2                                 cstackCOMRAM 000021
write_eusartparser@package                                cstackCOMRAM 000010
write_package@package                                     cstackCOMRAM 000011
wtemp8                                                    temp         000051


MODULE INFORMATION

Module		Function		Class		Link	Load	Size
controlMemory_MC50.c
		_SaveNVM_VarSystem		CODE           	9710	0000	56
		_validateRemoteSerialNumber		CODE           	61FC	0000	412
		_checkNVM_VarSystem		CODE           	605C	0000	416
		_saveNewSerial 		CODE           	8B3E	0000	112
		_ReadSerial    		CODE           	8BAE	0000	112
		_ControlCounterMoves		CODE           	9062	0000	90
		_ResetDefaultMemory		CODE           	6862	0000	394
		_RemoveSerial  		CODE           	8700	0000	128
		_loadNVM_VarSystem		CODE           	6F64	0000	302
		_cmdMemoryIsEmpty		CODE           	81A0	0000	146

controlMemory_MC50.c estimated size: 2168

sm_ControlGate_MC50.c
		_setPositionInvertionInOpening		CODE           	79E0	0000	220
		_WaitPreFlash  		CODE           	8ACE	0000	112
		_actionZone_Opened		CODE           	5AD4	0000	494
		_actionZone_Closed		CODE           	7E78	0000	170
		_InitFullAutoTime		CODE           	9D3C	0000	26
		_InitSoftStop  		CODE           	93F8	0000	74
		_InitWalkAutoTime		CODE           	9E46	0000	20
		_StopOrder     		CODE           	9C98	0000	28
		_InitSoftStart 		CODE           	8F50	0000	92
		_actionZone_Opening		CODE           	51F6	0000	596
		_actionZone_Closing		CODE           	4CF4	0000	652
		_VerifyFollowMe		CODE           	9BEC	0000	36
		_sm_execute_ControlGate		CODE           	438E	0000	844
		_CloseOrder    		CODE           	9B2E	0000	38
		_setPositionInvertionInClosing		CODE           	7092	0000	296
		_OpenFullOrder 		CODE           	9B54	0000	38
		_OpenWalkOrder 		CODE           	8C1E	0000	110

sm_ControlGate_MC50.c estimated size: 3846

mcc_generated_files/examples/i2c1_master_example.c
		_rdBlkRegCompleteHandler@i2c1_master_example$F535		CODE           	95DA	0000	64
		_rd1RegCompleteHandler@i2c1_master_example$F500		CODE           	99AA	0000	44
		_rd2RegCompleteHandler@i2c1_master_example$F511		CODE           	997E	0000	44
		_wr1RegCompleteHandler@i2c1_master_example$F517		CODE           	9952	0000	44
		_wr2RegCompleteHandler@i2c1_master_example$F523		CODE           	9A86	0000	44
		_I2C1_Read1ByteRegister		CODE           	8FAC	0000	92

mcc_generated_files/examples/i2c1_master_example.c estimated size: 332

controlCurrent_MC50.c
		_refreshADCZeroOffset		CODE           	7604	0000	254
		_getCurrentComparator		CODE           	6398	0000	410
		_ControlCurrent		CODE           	6B74	0000	372
		_refreshCurrent		CODE           	948A	0000	70
		_ReadADC       		CODE           	91C0	0000	86
		_sumEnergyADC  		CODE           	834E	0000	140
		_sumHIST       		CODE           	77FE	0000	250
		_saveEnergyADCHist		CODE           	9B06	0000	40

controlCurrent_MC50.c estimated size: 1622

sm_Main_MC50.c
		_sm_execute_main		CODE           	3A9A	0000	1298

sm_Main_MC50.c estimated size: 1298

outputs_MC50.c
		_getTimeDecelaration		CODE           	78F8	0000	232
		_Segments_Set  		CODE           	9EEA	0000	12
		_ControlMotor  		CODE           	544A	0000	586
		_SetSegmentValueMain		CODE           	9D22	0000	26
		_GetMotorPower 		CODE           	7B88	0000	198
		_ControlLights 		CODE           	46DA	0000	804
		_RGB_Set       		CODE           	9EB4	0000	14
		_refreshSegment		CODE           	84F0	0000	134
		_setFlashLigth_ON		CODE           	969A	0000	60
		_getStateOpenPosition		CODE           	72DE	0000	272
		_controlMotorForce		CODE           	5694	0000	546
		_SetSegmentValueIntermitent		CODE           	98A2	0000	44
		_SetSegmentValueLearn		CODE           	7702	0000	252
		_SetSegmentValue		CODE           	9D56	0000	26
		_VerifyElectricalBrake		CODE           	88F4	0000	120
		_SetSegmentValueIntermitentMain		CODE           	9E5A	0000	20
		_setRGB_ON     		CODE           	8232	0000	144
		_controlVelocity		CODE           	58B6	0000	542
		_ControlDecelarationFactor		CODE           	9D8A	0000	24

outputs_MC50.c estimated size: 4056

mcc_generated_files/i2c1_master.c
		_I2C1_DO_SEND_RESTART		CODE           	9F9E	0000	8
		_I2C1_DO_TX_EMPTY		CODE           	8E96	0000	94
		_I2C1_DO_SEND_RESTART_READ		CODE           	9FAE	0000	8
		_I2C1_CallbackReturnStop		CODE           	A008	0000	4
		_I2C1_DO_RX    		CODE           	887A	0000	122
		_I2C1_DO_TX    		CODE           	83DA	0000	140
		_I2C1_SetAddressNackCallback		CODE           	9DD2	0000	24
		_I2C1_DO_IDLE  		CODE           	9F64	0000	10
		_I2C1_MasterOpen		CODE           	9DEA	0000	24
		_I2C1_DO_RCEN  		CODE           	9F5A	0000	10
		_I2C1_MasterSendTxData		CODE           	9FB6	0000	8
		_I2C1_MasterStop		CODE           	A00C	0000	4
		_I2C1_CallbackReturnReset		CODE           	A004	0000	4
		_I2C1_DO_RESET 		CODE           	9F50	0000	10
		_I2C1_MasterStartRx		CODE           	A000	0000	4
		_I2C1_Poller   		CODE           	9EA4	0000	16
		_I2C1_DO_RX_ACK		CODE           	9F8E	0000	8
		_I2C1_MasterWaitForEvent		CODE           	9F76	0000	8
		_I2C1_MasterSendNack		CODE           	9FDC	0000	6
		_I2C1_DO_RX_NACK_RESTART		CODE           	9F7E	0000	8
		_I2C1_MasterDisableIrq		CODE           	A018	0000	4
		_I2C1_MasterOperation		CODE           	9926	0000	44
		_I2C1_SetCallback		CODE           	8C8C	0000	110
		_I2C1_MasterEnableRestart		CODE           	A010	0000	4
		_I2C1_Open     		CODE           	85FA	0000	132
		_I2C1_DO_ADDRESS_NACK		CODE           	93AA	0000	78
		_I2C1_SetBuffer		CODE           	9D70	0000	26
		_I2C1_DO_SEND_RESTART_WRITE		CODE           	9FA6	0000	8
		_I2C1_MasterClose		CODE           	A01C	0000	4
		_I2C1_MasterWrite		CODE           	9F6E	0000	8
		_I2C1_Initialize		CODE           	9E6E	0000	20
		_I2C1_Close    		CODE           	9C54	0000	34
		_I2C1_MasterIsNack		CODE           	9EDE	0000	12
		_I2C1_MasterStart		CODE           	A014	0000	4
		_I2C1_DO_SEND_ADR_WRITE		CODE           	9EC2	0000	14
		_I2C1_MasterClearIrq		CODE           	9FE2	0000	6
		_I2C1_SetDataCompleteCallback		CODE           	9E02	0000	24
		_I2C1_DO_SEND_STOP		CODE           	9F96	0000	8
		_I2C1_MasterSendAck		CODE           	9FD6	0000	6
		_I2C1_MasterFsm		CODE           	9216	0000	84
		_I2C1_MasterGetRxData		CODE           	9FFC	0000	4
		_I2C1_MasterSetIrq		CODE           	9FD0	0000	6
		_I2C1_DO_SEND_ADR_READ		CODE           	9ED0	0000	14
		_I2C1_DO_RX_NACK_STOP		CODE           	9F86	0000	8

mcc_generated_files/i2c1_master.c estimated size: 1182

eusartparser.c
		_read_eusartparser		CODE           	2938	0000	1676
		_confirmpackage		CODE           	9008	0000	90
		_write_eusartparser		CODE           	2FC4	0000	1444
		_eusartparser  		CODE           	0F22	0000	2454
		_updateChangesToUart		CODE           	97AE	0000	50

eusartparser.c estimated size: 5714

mcc_generated_files/tmr2.c
		_TMR2_ISR      		CODE           	6CE8	0000	334
		_TMR2_Initialize		CODE           	98FA	0000	44
		_TMR2_SetInterruptHandler		CODE           	9F00	0000	10
		_TMR2_DefaultInterruptHandler		CODE           	A022	0000	2

mcc_generated_files/tmr2.c estimated size: 390

mcc_generated_files/interrupt_manager.c
		_INTERRUPT_Initialize		CODE           	9FF8	0000	4
		_INTERRUPT_InterruptManager		CODE           	0008	0000	148

mcc_generated_files/interrupt_manager.c estimated size: 152

C:\Program Files\Microchip\xc8\v2.36\pic\sources\c99\common\Umul32.c
		___lmul        		CODE           	916A	0000	86

C:\Program Files\Microchip\xc8\v2.36\pic\sources\c99\common\Umul32.c estimated size: 86

inputs_MC50.c
		_ControlInputs 		CODE           	71BA	0000	292
		_readbutton    		CODE           	8CFA	0000	108
		_ClearFlag_rfCMD		CODE           	9FCA	0000	6
		_getSerialCmd  		CODE           	935C	0000	78
		_rxi           		CODE           	4F80	0000	630
		_GetSecurityStateInClosing		CODE           	7F22	0000	166
		_getTypeRemote 		CODE           	9FC4	0000	6
		_GetOpenOrder  		CODE           	5E94	0000	456
		_readInputs    		CODE           	74FC	0000	264
		_InitReceiver  		CODE           	9D08	0000	26
		_GetSecurityStateInOpening		CODE           	7FC8	0000	166
		_getKeyPressed 		CODE           	9DBA	0000	24
		_readRFButtons 		CODE           	66CC	0000	406

inputs_MC50.c estimated size: 2628

mcc_generated_files/tmr0.c
		_TMR0_SetInterruptHandler		CODE           	9F14	0000	10
		_TMR0_DefaultInterruptHandler		CODE           	A026	0000	2
		_TMR0_ISR      		CODE           	9BA0	0000	38
		_TMR0_Initialize		CODE           	9C32	0000	34

mcc_generated_files/tmr0.c estimated size: 84

sm_MenuConfiguration_MC50.c
		_load_New_Menu 		CODE           	49FE	0000	758
		_sm_execute_menuConfiguration		CODE           	18B8	0000	2408
		_controlSelectRemote		CODE           	3FAC	0000	994
		_setValueToEdit		CODE           	3568	0000	1330
		_controlSaveRemote		CODE           	7D14	0000	180
		_controlLearnDigit		CODE           	9844	0000	48

sm_MenuConfiguration_MC50.c estimated size: 5718

mcc_generated_files/pin_manager.c
		_PIN_MANAGER_Initialize		CODE           	8108	0000	152

mcc_generated_files/pin_manager.c estimated size: 152

main_MC50.c
		_decrementTimeslot		CODE           	9ADC	0000	42
		_ShowVersion   		CODE           	8DCE	0000	102
		_main          		CODE           	69EC	0000	392
		_controlTimeslots		CODE           	6532	0000	410

main_MC50.c estimated size: 946

C:\Program Files\Microchip\xc8\v2.36\pic\sources\c99\common\__lldiv.c
		___lldiv       		CODE           	867E	0000	130

C:\Program Files\Microchip\xc8\v2.36\pic\sources\c99\common\__lldiv.c estimated size: 130

mcc_generated_files/drivers/i2c_simple_master.c
		_i2c_readDataBlock		CODE           	89E4	0000	118
		_wr1RegCompleteHandler		CODE           	9A5A	0000	44
		_wr2RegCompleteHandler		CODE           	99D6	0000	44
		_i2c_writeNBytes		CODE           	8A5A	0000	116
		_rdBlkRegCompleteHandler		CODE           	961A	0000	64
		_rd1RegCompleteHandler		CODE           	9A2E	0000	44
		_rd2RegCompleteHandler		CODE           	9A02	0000	44

mcc_generated_files/drivers/i2c_simple_master.c estimated size: 474

C:\Program Files\Microchip\xc8\v2.36\pic\sources\c99\common\lwdiv.c
		___lwdiv       		CODE           	926A	0000	82

C:\Program Files\Microchip\xc8\v2.36\pic\sources\c99\common\lwdiv.c estimated size: 82

C:\Program Files\Microchip\xc8\v2.36\pic\sources\c99\common\awdiv.c
		___awdiv       		CODE           	8576	0000	132

C:\Program Files\Microchip\xc8\v2.36\pic\sources\c99\common\awdiv.c estimated size: 132

C:\Program Files\Microchip\xc8\v2.36\pic\sources\c99\common\lbmod.c
		___lbmod       		CODE           	9AB2	0000	42

C:\Program Files\Microchip\xc8\v2.36\pic\sources\c99\common\lbmod.c estimated size: 42

shared
		i2_VerifyElectricalBrake		CODE           	896C	0000	120
		__initialization		CODE           	7DC8	0000	166
		_i2c1_fsmStateTable		SMALLCONST     	0F01	0000	32
		i2_GetMotorPower		CODE           	7C4E	0000	198

shared estimated size: 516

mcc_generated_files/eusart1.c
		_EUSART1_SetRxInterruptHandler		CODE           	9F28	0000	10
		_EUSART1_SetTxInterruptHandler		CODE           	9F1E	0000	10
		_EUSART1_is_rx_ready		CODE           	9E94	0000	16
		_EUSART1_Initialize		CODE           	8780	0000	126
		_EUSART1_DefaultErrorHandler		CODE           	9FEE	0000	6
		_EUSART1_SetFramingErrorHandler		CODE           	9F3C	0000	10
		_EUSART1_Read  		CODE           	9442	0000	72
		_EUSART1_SetOverrunErrorHandler		CODE           	9F32	0000	10
		_EUSART1_SetErrorHandler		CODE           	9F46	0000	10
		_EUSART1_Write 		CODE           	959A	0000	64
		_EUSART1_Receive_ISR		CODE           	806E	0000	154
		_EUSART1_RxDataHandler		CODE           	9C76	0000	34
		_EUSART1_DefaultOverrunErrorHandler		CODE           	9FE8	0000	6
		_EUSART1_Transmit_ISR		CODE           	9812	0000	50
		_EUSART1_DefaultFramingErrorHandler		CODE           	A028	0000	2

mcc_generated_files/eusart1.c estimated size: 580

mcc_generated_files/mcc.c
		_WWDT_TimerClear		CODE           	9CB4	0000	28
		_PMD_Initialize		CODE           	9CD0	0000	28
		_OSCILLATOR_Initialize		CODE           	9E1A	0000	22
		_SYSTEM_Initialize		CODE           	9874	0000	46
		_WWDT_Initialize		CODE           	9EF6	0000	10
		_WWDT_SoftEnable		CODE           	9FF4	0000	4

mcc_generated_files/mcc.c estimated size: 138

sm_common_MC50.c
		_sm_restart    		CODE           	94D0	0000	68
		_sm_get_current_state		CODE           	9E82	0000	18
		_sm_init       		CODE           	9114	0000	86
		_sm_send_event 		CODE           	8EF4	0000	92

sm_common_MC50.c estimated size: 264

mcc_generated_files/tmr1.c
		_TMR1_Initialize		CODE           	9558	0000	66
		_TMR1_SetInterruptHandler		CODE           	9F0A	0000	10
		_TMR1_DefaultInterruptHandler		CODE           	A024	0000	2
		_TMR1_WriteTimer		CODE           	9CEC	0000	28
		_TMR1_ISR      		CODE           	965A	0000	64

mcc_generated_files/tmr1.c estimated size: 170

eusartpackage.c
		_write_package 		CODE           	98CE	0000	44
		_init_package  		CODE           	97E0	0000	50
		_read_package  		CODE           	92BC	0000	80

eusartpackage.c estimated size: 174

keeloqDecrypt_MC50.c
		_NormalKeyGen  		CODE           	73EE	0000	270
		_keeloqDecryptPacket		CODE           	5CC2	0000	466
		_DecCHK        		CODE           	977C	0000	50
		_Decrypt       		CODE           	7ABC	0000	204
		_ReqResync     		CODE           	9DA2	0000	24
		_getHopCode    		CODE           	6E36	0000	302
		_LoadManufCode 		CODE           	9C10	0000	34
		_keeloq_classic_decrypt_packet		CODE           	90BC	0000	88
		_DecryptPacket_12BIT		CODE           	82C2	0000	140
		_verifyProgramingMode		CODE           	9748	0000	52
		_HopCHK        		CODE           	8466	0000	138

keeloqDecrypt_MC50.c estimated size: 1768

mcc_generated_files/adcc.c
		_ADCC_GetSingleConversion		CODE           	9E30	0000	22
		_ADCC_Initialize		CODE           	930C	0000	80

mcc_generated_files/adcc.c estimated size: 102

C:\Program Files\Microchip\xc8\v2.36\pic\sources\c99\common\memcpy.c
		_memcpy        		CODE           	9514	0000	68

C:\Program Files\Microchip\xc8\v2.36\pic\sources\c99\common\memcpy.c estimated size: 68

C:\Program Files\Microchip\xc8\v2.36\pic\sources\c99\common\Umul16.c
		___wmul        		CODE           	9B7A	0000	38

C:\Program Files\Microchip\xc8\v2.36\pic\sources\c99\common\Umul16.c estimated size: 38

C:\Program Files\Microchip\xc8\v2.36\pic\sources\c99\common\lbdiv.c
		___lbdiv       		CODE           	96D6	0000	58

C:\Program Files\Microchip\xc8\v2.36\pic\sources\c99\common\lbdiv.c estimated size: 58

sm_ControlLearning_MC50.c
		_sm_execute_ControlLearning		CODE           	2220	0000	1816
		_calculateMean 		CODE           	8E34	0000	98
		_generateErrorLearnig		CODE           	8D66	0000	104
		_clearLearningValue		CODE           	87FE	0000	124

sm_ControlLearning_MC50.c estimated size: 2142

