Microchip MPLAB XC8 Compiler V2.36

Linker command line:

-W-3 --edf=C:\Program Files\Microchip\xc8\v2.36\pic\dat\en_msgs.txt -cn \
  -h+dist/default/debug\MC50UNI.V.0.2.3.X.debug.sym \
  --cmf=dist/default/debug\MC50UNI.V.0.2.3.X.debug.cmf -z -Q18F46K40 \
  -oC:\Users\RAFAEL~1\AppData\Local\Temp\xcAsfa4.4 --defsym=__MPLAB_BUILD=1 \
  -Mdist/default/debug/MC50UNI.V.0.2.3.X.debug.map \
  --md=C:\Users\RAFAEL~1\AppData\Local\Temp\xcAsfa4.dat -E1 \
  -ver=XC8 Compiler --acfsm=1493 -ACODE=00h-0FFFFh -ACONST=00h-0FFFFh \
  -ASMALLCONST=0F00h-0FFFhx241 -AMEDIUMCONST=0F00h-0FFFFh -ACOMRAM=01h-05Fh \
  -AABS1=00h-0E87h -ABIGRAM=01h-0E87h \
  -ARAM=060h-0FFh,0100h-01FFhx13,0E00h-0E87h -ABANK0=060h-0FFh \
  -ABANK1=0100h-01FFh -ABANK2=0200h-02FFh -ABANK3=0300h-03FFh \
  -ABANK4=0400h-04FFh -ABANK5=0500h-05FFh -ABANK6=0600h-06FFh \
  -ABANK7=0700h-07FFh -ABANK8=0800h-08FFh -ABANK9=0900h-09FFh \
  -ABANK10=0A00h-0AFFh -ABANK11=0B00h-0BFFh -ABANK12=0C00h-0CFFh \
  -ABANK13=0D00h-0DFFh -ABANK14=0E00h-0E87h \
  -ASFR=0E8Dh-0EFFh,0F00h-0F5Fh,0F60h-0FFFh -ABIGSFR=0E8Dh-0FFFh \
  -ACONFIG=0300000h-030000Bh -AIDLOC=0200000h-020000Fh \
  -AEEDATA=0310000h-03103FFh -peeprom_data=EEDATA \
  -preset_vec=00h,intcode=08h,intcodelo,powerup,init -pramtop=0F00h \
  -psmallconst=SMALLCONST -pmediumconst=MEDIUMCONST -pconst=CONST \
  -AFARRAM=00h-00h \
  -prdata=COMRAM,nvrram=COMRAM,nvbit=COMRAM,rbss=COMRAM,rbit=COMRAM \
  -pfarbss=FARRAM,fardata=FARRAM,nvFARRAM=FARRAM \
  -pintsave_regs=BIGRAM,bigbss=BIGRAM,bigdata=BIGRAM -pbss=RAM \
  -pidata=CODE,irdata=CODE,ibigdata=CODE,ifardata=CODE -prparam=COMRAM \
  C:\Users\RAFAEL~1\AppData\Local\Temp\xcAsfa4.o \
  dist/default/debug\MC50UNI.V.0.2.3.X.debug.o 

Object code version is 3.11

Machine type is 18F46K40



                Name                               Link     Load   Length Selector   Space Scale
C:\Users\RAFAEL~1\AppData\Local\Temp\xcAsfa4.o
                idloc                            200000   200000       10        0       5
                config                           300000   300000        C        0       4
                init                                 9C       9C        4        4       0
                reset_vec                             0        0        6        0       0
dist/default/debug\MC50UNI.V.0.2.3.X.debug.o
                intcode                               8        8       94        4       0
                idloc                            200000   200000       10        0       5
                config                           300000   300000        C        0       4
                temp                                 50       50        1        1       1
                smallconst                          F00      F00       22      780       0
                text209                            9BEE     9BEE       22     4DB2       0
                text208                            9F64     9F64        6     4DB2       0
                text207                            9F9E     9F9E        2     4DB2       0
                text206                            9F5E     9F5E        6     4DB2       0
                text205                            801A     801A       9A      791       0
                text204                            978A     978A       32      791       0
                text203                            9F9C     9F9C        2     4DB2       0
                text202                            4F2C     4F2C      276      791       0
                text201                            9B18     9B18       26      791       0
                text200                            9F9A     9F9A        2     4DB2       0
                text199                            9C64     9C64       1C     4DB2       0
                text198                            7BFA     7BFA       C6      791       0
                text197                            8916     8916       78      791       0
                text196                            5640     5640      222      791       0
                text195                            9604     9604       40      791       0
                text194                            9DA6     9DA6       16     4DB2       0
                text193                            916A     916A       56      791       0
                text192                            9F98     9F98        2     4DB2       0
                text191                            9A54     9A54       2A      791       0
                text190                            64DE     64DE      19A      791       0
                text189                            9E60     9E60        C     4DB2       0
                text188                            849A     849A       86      791       0
                text187                            6C94     6C94      14E      791       0
                text185                            9F58     9F58        6     4DB2       0
                text184                            9F92     9F92        4     4DB2       0
                text183                            9F8E     9F8E        4     4DB2       0
                text182                            9BCC     9BCC       22     4DB2       0
                text181                            9F8A     9F8A        4     4DB2       0
                text180                            9F86     9F86        4     4DB2       0
                text179                            9F82     9F82        4     4DB2       0
                text178                            9CE8     9CE8       1A     4DB2       0
                text177                            8C36     8C36       6E      791       0
                text176                            9D62     9D62       18     4DB2       0
                text175                            99FE     99FE       2C      791       0
                text174                            99D2     99D2       2C      791       0
                text173                            99A6     99A6       2C      791       0
                text172                            997A     997A       2C      791       0
                text171                            994E     994E       2C      791       0
                text170                            95C4     95C4       40      791       0
                text169                            9922     9922       2C      791       0
                text168                            98F6     98F6       2C      791       0
                text167                            98CA     98CA       2C      791       0
                text166                            9584     9584       40      791       0
                text165                            9F7E     9F7E        4     4DB2       0
                text164                            9F7A     9F7A        4     4DB2       0
                text163                            9F76     9F76        4     4DB2       0
                text162                            9F52     9F52        6     4DB2       0
                text161                            9F72     9F72        4     4DB2       0
                text160                            9F4C     9F4C        6     4DB2       0
                text159                            9F2C     9F2C        8     4DB2       0
                text158                            9E54     9E54        C     4DB2       0
                text157                            9F46     9F46        6     4DB2       0
                text156                            8E40     8E40       5E      791       0
                text155                            9EDA     9EDA        A     4DB2       0
                text154                            9E46     9E46        E     4DB2       0
                text153                            9E38     9E38        E     4DB2       0
                text152                            8386     8386       8C      791       0
                text151                            8824     8824       7A      791       0
                text150                            9ED0     9ED0        A     4DB2       0
                text149                            9F24     9F24        8     4DB2       0
                text148                            9F1C     9F1C        8     4DB2       0
                text147                            9F14     9F14        8     4DB2       0
                text146                            9F0C     9F0C        8     4DB2       0
                text145                            9F04     9F04        8     4DB2       0
                text144                            9EFC     9EFC        8     4DB2       0
                text143                            9EF4     9EF4        8     4DB2       0
                text142                            9EC6     9EC6        A     4DB2       0
                text141                            9354     9354       4E      791       0
                text140                            91C0     91C0       54      791       0
                text139                            9EEC     9EEC        8     4DB2       0
                text138                            9E1A     9E1A       10     4DB2       0
                text137                            989E     989E       2C      791       0
                text136                            9EE4     9EE4        8     4DB2       0
                text135                            9D4A     9D4A       18     4DB2       0
                text134                            85A4     85A4       84      791       0
                text133                            9D32     9D32       18     4DB2       0
                text132                            94BE     94BE       44      791       0
                text131                            8A04     8A04       74      791       0
                text130                            96BA     96BA       38      791       0
                text129                            900C     900C       5A      791       0
                text128                            7B34     7B34       C6      791       0
                text127                            9AF2     9AF2       26      791       0
                text126                            6344     6344      19A      791       0
                text125                            9214     9214       52      791       0
                text124                            75B0     75B0       FE      791       0
                text123                            9A7E     9A7E       28      791       0
                text122                            82FA     82FA       8C      791       0
                text121                            77AA     77AA       FA      791       0
                text120                            9434     9434       46      791       0
                text119                            6B20     6B20      174      791       0
                text118                            7166     7166      124      791       0
                text117                            9644     9644       3C      791       0
                text116                            9E2A     9E2A        E     4DB2       0
                text115                            81DE     81DE       90      791       0
                text114                            4686     4686      324      791       0
                text113                            889E     889E       78      791       0
                text112                            53F6     53F6      24A      791       0
                text111                            9E0A     9E0A       10     4DB2       0
                text110                            92B6     92B6       50      791       0
                text109                            9EBC     9EBC        A     4DB2       0
                text108                            9EB2     9EB2        A     4DB2       0
                text107                            9EA8     9EA8        A     4DB2       0
                text106                            9E9E     9E9E        A     4DB2       0
                text105                            9E94     9E94        A     4DB2       0
                text104                            872A     872A       7E      791       0
                text103                            9DE4     9DE4       14     4DB2       0
                text102                            9F6E     9F6E        4     4DB2       0
                text101                            9D90     9D90       16     4DB2       0
                text100                            80B4     80B4       98      791       0
                text99                             9C48     9C48       1C     4DB2       0
                text98                             9E8A     9E8A        A     4DB2       0
                text97                             9BAA     9BAA       22     4DB2       0
                text96                             9E80     9E80        A     4DB2       0
                text95                             9502     9502       42      791       0
                text94                             9E76     9E76        A     4DB2       0
                text93                             9872     9872       2C      791       0
                text92                             9E6C     9E6C        A     4DB2       0
                text91                             97EC     97EC       2E      791       0
                text90                             9CCE     9CCE       1A     4DB2       0
                text89                             8D78     8D78       66      791       0
                text88                             9F6A     9F6A        4     4DB2       0
                text87                             9C2C     9C2C       1C     4DB2       0
                text86                             898E     898E       76      791       0
                text85                             8B58     8B58       70      791       0
                text84                             86AA     86AA       80      791       0
                text83                             814C     814C       92      791       0
                text82                             9758     9758       32      791       0
                text81                             8FB2     8FB2       5A      791       0
                text80                             9544     9544       40      791       0
                text79                             9846     9846       2C      791       0
                text78                             28E6     28E6      68C      791       0
                text77                             8AE8     8AE8       70      791       0
                text76                             61A8     61A8      19C      791       0
                text75                             2F72     2F72      5A4      791       0
                text74                             188A     188A      944      791       0
                text73                             9D1A     9D1A       18     4DB2       0
                text72                             8F56     8F56       5C      791       0
                text71                             680E     680E      18A      791       0
                text70                             6008     6008      1A0      791       0
                text69                             6F10     6F10      12E      791       0
                text68                             74A8     74A8      108      791       0
                text67                             826E     826E       8C      791       0
                text66                             9726     9726       32      791       0
                text65                             9D7A     9D7A       16     4DB2       0
                text64                             6DE2     6DE2      12E      791       0
                text63                             8412     8412       88      791       0
                text62                             7A68     7A68       CC      791       0
                text61                             9B88     9B88       22     4DB2       0
                text60                             739A     739A      10E      791       0
                text59                             9066     9066       58      791       0
                text58                             96F2     96F2       34      791       0
                text57                             5C6E     5C6E      1D2      791       0
                text56                             6678     6678      196      791       0
                text55                             93EC     93EC       48      791       0
                text54                             9266     9266       50      791       0
                text53                             8CA4     8CA4       6C      791       0
                text52                             9DD0     9DD0       14     4DB2       0
                text51                             9680     9680       3A      791       0
                text50                             5E40     5E40      1C8      791       0
                text49                             981A     981A       2C      791       0
                text48                             7F74     7F74       A6      791       0
                text47                             9DBC     9DBC       14     4DB2       0
                text46                             8EFA     8EFA       5C      791       0
                text45                             9DF8     9DF8       12     4DB2       0
                text44                             8E9E     8E9E       5C      791       0
                text43                             8BC8     8BC8       6E      791       0
                text42                             9CB4     9CB4       1A     4DB2       0
                text41                             9ACC     9ACC       26      791       0
                text40                             8A78     8A78       70      791       0
                text39                             7E24     7E24       AA      791       0
                text38                             7ECE     7ECE       A6      791       0
                text37                             9C10     9C10       1C     4DB2       0
                text36                             9114     9114       56      791       0
                text35                             78A4     78A4       E8      791       0
                text34                             703E     703E      128      791       0
                text33                             4CA0     4CA0      28C      791       0
                text32                             9AA6     9AA6       26      791       0
                text31                             9B64     9B64       24     4DB2       0
                text30                             5A80     5A80      1EE      791       0
                text29                             9D02     9D02       18     4DB2       0
                text28                             93A2     93A2       4A      791       0
                text27                             728A     728A      110      791       0
                text26                             5862     5862      21E      791       0
                text25                             798C     798C       DC      791       0
                text24                             51A2     51A2      254      791       0
                text23                             8DDE     8DDE       62      791       0
                text22                             87A8     87A8       7C      791       0
                text21                             947A     947A       44      791       0
                text20                             90BE     90BE       56      791       0
                text19                             8D10     8D10       68      791       0
                text18                             21CE     21CE      718      791       0
                text17                             433C     433C      34A      791       0
                text16                             8628     8628       82      791       0
                text15                             76AE     76AE       FC      791       0
                text14                             97BC     97BC       30      791       0
                text13                             9F40     9F40        6     4DB2       0
                text12                             9C9A     9C9A       1A     4DB2       0
                text11                             8520     8520       84      791       0
                text10                             9A2A     9A2A       2A      791       0
                text9                              7CC0     7CC0       B4      791       0
                text8                              9306     9306       4E      791       0
                text7                              9F3A     9F3A        6     4DB2       0
                text6                              3F5A     3F5A      3E2      791       0
                text5                              9C80     9C80       1A     4DB2       0
                text4                              49AA     49AA      2F6      791       0
                text3                              3516     3516      532      791       0
                text2                               F22      F22      968      791       0
                text1                              3A48     3A48      512      791       0
                text0                              6998     6998      188      791       0
                cstackCOMRAM                          1        1       3A        1       1
                cstackBANK0                          D8       D8       24       60       1
                cstackBANK2                         2ED      2ED        7      200       1
                dataBANK3                           3D2      3D2       25      300       1
                bssBANK3                            300      300       D2      300       1
                dataBANK2                           2F4      2F4        6      200       1
                bssBANK2                            200      200       DB      200       1
                dataBANK1                           1FF      1FF        1      100       1
                bssBANK1                            100      100       FE      100       1
                dataBANK0                            FC       FC        2       60       1
                bssBANK0                             60       60       78       60       1
                bssCOMRAM                            3B       3B       15        1       1
                cinit                              7D74     7D74       B0      791       0
                nvBANK2                             2DB      2DB       12      200       1
                nvBANK1                             1FE      1FE        1      100       1
                idataBANK3                         9B3E     9B3E       25      791       0
                idataBANK2                         9F34     9F34        6     4DB2       0
                idataBANK1                         9FA0     9FA0        1     4DB2       0
                idataBANK0                         9F96     9F96        2     4DB2       0

TOTAL           Name                               Link     Load   Length     Space
        CLASS   CODE           
                intcode                               8        8       94         0
                init                                 9C       9C        4         0
                reset_vec                             0        0        6         0
                text209                            9BEE     9BEE       22         0
                text208                            9F64     9F64        6         0
                text207                            9F9E     9F9E        2         0
                text206                            9F5E     9F5E        6         0
                text205                            801A     801A       9A         0
                text204                            978A     978A       32         0
                text203                            9F9C     9F9C        2         0
                text202                            4F2C     4F2C      276         0
                text201                            9B18     9B18       26         0
                text200                            9F9A     9F9A        2         0
                text199                            9C64     9C64       1C         0
                text198                            7BFA     7BFA       C6         0
                text197                            8916     8916       78         0
                text196                            5640     5640      222         0
                text195                            9604     9604       40         0
                text194                            9DA6     9DA6       16         0
                text193                            916A     916A       56         0
                text192                            9F98     9F98        2         0
                text191                            9A54     9A54       2A         0
                text190                            64DE     64DE      19A         0
                text189                            9E60     9E60        C         0
                text188                            849A     849A       86         0
                text187                            6C94     6C94      14E         0
                text185                            9F58     9F58        6         0
                text184                            9F92     9F92        4         0
                text183                            9F8E     9F8E        4         0
                text182                            9BCC     9BCC       22         0
                text181                            9F8A     9F8A        4         0
                text180                            9F86     9F86        4         0
                text179                            9F82     9F82        4         0
                text178                            9CE8     9CE8       1A         0
                text177                            8C36     8C36       6E         0
                text176                            9D62     9D62       18         0
                text175                            99FE     99FE       2C         0
                text174                            99D2     99D2       2C         0
                text173                            99A6     99A6       2C         0
                text172                            997A     997A       2C         0
                text171                            994E     994E       2C         0
                text170                            95C4     95C4       40         0
                text169                            9922     9922       2C         0
                text168                            98F6     98F6       2C         0
                text167                            98CA     98CA       2C         0
                text166                            9584     9584       40         0
                text165                            9F7E     9F7E        4         0
                text164                            9F7A     9F7A        4         0
                text163                            9F76     9F76        4         0
                text162                            9F52     9F52        6         0
                text161                            9F72     9F72        4         0
                text160                            9F4C     9F4C        6         0
                text159                            9F2C     9F2C        8         0
                text158                            9E54     9E54        C         0
                text157                            9F46     9F46        6         0
                text156                            8E40     8E40       5E         0
                text155                            9EDA     9EDA        A         0
                text154                            9E46     9E46        E         0
                text153                            9E38     9E38        E         0
                text152                            8386     8386       8C         0
                text151                            8824     8824       7A         0
                text150                            9ED0     9ED0        A         0
                text149                            9F24     9F24        8         0
                text148                            9F1C     9F1C        8         0
                text147                            9F14     9F14        8         0
                text146                            9F0C     9F0C        8         0
                text145                            9F04     9F04        8         0
                text144                            9EFC     9EFC        8         0
                text143                            9EF4     9EF4        8         0
                text142                            9EC6     9EC6        A         0
                text141                            9354     9354       4E         0
                text140                            91C0     91C0       54         0
                text139                            9EEC     9EEC        8         0
                text138                            9E1A     9E1A       10         0
                text137                            989E     989E       2C         0
                text136                            9EE4     9EE4        8         0
                text135                            9D4A     9D4A       18         0
                text134                            85A4     85A4       84         0
                text133                            9D32     9D32       18         0
                text132                            94BE     94BE       44         0
                text131                            8A04     8A04       74         0
                text130                            96BA     96BA       38         0
                text129                            900C     900C       5A         0
                text128                            7B34     7B34       C6         0
                text127                            9AF2     9AF2       26         0
                text126                            6344     6344      19A         0
                text125                            9214     9214       52         0
                text124                            75B0     75B0       FE         0
                text123                            9A7E     9A7E       28         0
                text122                            82FA     82FA       8C         0
                text121                            77AA     77AA       FA         0
                text120                            9434     9434       46         0
                text119                            6B20     6B20      174         0
                text118                            7166     7166      124         0
                text117                            9644     9644       3C         0
                text116                            9E2A     9E2A        E         0
                text115                            81DE     81DE       90         0
                text114                            4686     4686      324         0
                text113                            889E     889E       78         0
                text112                            53F6     53F6      24A         0
                text111                            9E0A     9E0A       10         0
                text110                            92B6     92B6       50         0
                text109                            9EBC     9EBC        A         0
                text108                            9EB2     9EB2        A         0
                text107                            9EA8     9EA8        A         0
                text106                            9E9E     9E9E        A         0
                text105                            9E94     9E94        A         0
                text104                            872A     872A       7E         0
                text103                            9DE4     9DE4       14         0
                text102                            9F6E     9F6E        4         0
                text101                            9D90     9D90       16         0
                text100                            80B4     80B4       98         0
                text99                             9C48     9C48       1C         0
                text98                             9E8A     9E8A        A         0
                text97                             9BAA     9BAA       22         0
                text96                             9E80     9E80        A         0
                text95                             9502     9502       42         0
                text94                             9E76     9E76        A         0
                text93                             9872     9872       2C         0
                text92                             9E6C     9E6C        A         0
                text91                             97EC     97EC       2E         0
                text90                             9CCE     9CCE       1A         0
                text89                             8D78     8D78       66         0
                text88                             9F6A     9F6A        4         0
                text87                             9C2C     9C2C       1C         0
                text86                             898E     898E       76         0
                text85                             8B58     8B58       70         0
                text84                             86AA     86AA       80         0
                text83                             814C     814C       92         0
                text82                             9758     9758       32         0
                text81                             8FB2     8FB2       5A         0
                text80                             9544     9544       40         0
                text79                             9846     9846       2C         0
                text78                             28E6     28E6      68C         0
                text77                             8AE8     8AE8       70         0
                text76                             61A8     61A8      19C         0
                text75                             2F72     2F72      5A4         0
                text74                             188A     188A      944         0
                text73                             9D1A     9D1A       18         0
                text72                             8F56     8F56       5C         0
                text71                             680E     680E      18A         0
                text70                             6008     6008      1A0         0
                text69                             6F10     6F10      12E         0
                text68                             74A8     74A8      108         0
                text67                             826E     826E       8C         0
                text66                             9726     9726       32         0
                text65                             9D7A     9D7A       16         0
                text64                             6DE2     6DE2      12E         0
                text63                             8412     8412       88         0
                text62                             7A68     7A68       CC         0
                text61                             9B88     9B88       22         0
                text60                             739A     739A      10E         0
                text59                             9066     9066       58         0
                text58                             96F2     96F2       34         0
                text57                             5C6E     5C6E      1D2         0
                text56                             6678     6678      196         0
                text55                             93EC     93EC       48         0
                text54                             9266     9266       50         0
                text53                             8CA4     8CA4       6C         0
                text52                             9DD0     9DD0       14         0
                text51                             9680     9680       3A         0
                text50                             5E40     5E40      1C8         0
                text49                             981A     981A       2C         0
                text48                             7F74     7F74       A6         0
                text47                             9DBC     9DBC       14         0
                text46                             8EFA     8EFA       5C         0
                text45                             9DF8     9DF8       12         0
                text44                             8E9E     8E9E       5C         0
                text43                             8BC8     8BC8       6E         0
                text42                             9CB4     9CB4       1A         0
                text41                             9ACC     9ACC       26         0
                text40                             8A78     8A78       70         0
                text39                             7E24     7E24       AA         0
                text38                             7ECE     7ECE       A6         0
                text37                             9C10     9C10       1C         0
                text36                             9114     9114       56         0
                text35                             78A4     78A4       E8         0
                text34                             703E     703E      128         0
                text33                             4CA0     4CA0      28C         0
                text32                             9AA6     9AA6       26         0
                text31                             9B64     9B64       24         0
                text30                             5A80     5A80      1EE         0
                text29                             9D02     9D02       18         0
                text28                             93A2     93A2       4A         0
                text27                             728A     728A      110         0
                text26                             5862     5862      21E         0
                text25                             798C     798C       DC         0
                text24                             51A2     51A2      254         0
                text23                             8DDE     8DDE       62         0
                text22                             87A8     87A8       7C         0
                text21                             947A     947A       44         0
                text20                             90BE     90BE       56         0
                text19                             8D10     8D10       68         0
                text18                             21CE     21CE      718         0
                text17                             433C     433C      34A         0
                text16                             8628     8628       82         0
                text15                             76AE     76AE       FC         0
                text14                             97BC     97BC       30         0
                text13                             9F40     9F40        6         0
                text12                             9C9A     9C9A       1A         0
                text11                             8520     8520       84         0
                text10                             9A2A     9A2A       2A         0
                text9                              7CC0     7CC0       B4         0
                text8                              9306     9306       4E         0
                text7                              9F3A     9F3A        6         0
                text6                              3F5A     3F5A      3E2         0
                text5                              9C80     9C80       1A         0
                text4                              49AA     49AA      2F6         0
                text3                              3516     3516      532         0
                text2                               F22      F22      968         0
                text1                              3A48     3A48      512         0
                text0                              6998     6998      188         0
                cinit                              7D74     7D74       B0         0
                idataBANK3                         9B3E     9B3E       25         0
                idataBANK2                         9F34     9F34        6         0
                idataBANK1                         9FA0     9FA0        1         0
                idataBANK0                         9F96     9F96        2         0

        CLASS   CONST          

        CLASS   SMALLCONST     
                smallconst                          F00      F00       22         0

        CLASS   MEDIUMCONST    

        CLASS   COMRAM         
                temp                                 50       50        1         1
                cstackCOMRAM                          1        1       3A         1
                bssCOMRAM                            3B       3B       15         1

        CLASS   ABS1           

        CLASS   BIGRAM         

        CLASS   RAM            

        CLASS   BANK0          
                cstackBANK0                          D8       D8       24         1
                dataBANK0                            FC       FC        2         1
                bssBANK0                             60       60       78         1

        CLASS   BANK1          
                dataBANK1                           1FF      1FF        1         1
                bssBANK1                            100      100       FE         1
                nvBANK1                             1FE      1FE        1         1

        CLASS   BANK2          
                cstackBANK2                         2ED      2ED        7         1
                dataBANK2                           2F4      2F4        6         1
                bssBANK2                            200      200       DB         1
                nvBANK2                             2DB      2DB       12         1

        CLASS   BANK3          
                dataBANK3                           3D2      3D2       25         1
                bssBANK3                            300      300       D2         1

        CLASS   BANK4          

        CLASS   BANK5          

        CLASS   BANK6          

        CLASS   BANK7          

        CLASS   BANK8          

        CLASS   BANK9          

        CLASS   BANK10         

        CLASS   BANK11         

        CLASS   BANK12         

        CLASS   BANK13         

        CLASS   BANK14         

        CLASS   SFR            

        CLASS   BIGSFR         

        CLASS   CONFIG         
                config                           300000   300000        C         4

        CLASS   IDLOC          
                idloc                            200000   200000       10         5

        CLASS   EEDATA         

        CLASS   FARRAM         

        CLASS   HEAP           

        CLASS   STACK          



SEGMENTS        Name                           Load    Length   Top    Selector   Space  Class

                reset_vec                      000000  000006  000006         0       0  CODE    
                cstackCOMRAM                   000001  000050  000051         1       1  COMRAM  
                intcode                        000008  000098  0000A0         4       0  CODE    
                bssBANK0                       000060  00009E  0000FE        60       1  BANK0   
                bssBANK1                       000100  000100  000200       100       1  BANK1   
                bssBANK2                       000200  0000FA  0002FA       200       1  BANK2   
                bssBANK3                       000300  0000F7  0003F7       300       1  BANK3   
                smallconst                     000F00  000022  000F22       780       0  SMALLCON
                text2                          000F22  008C41  009B63       791       0  CODE    
                text31                         009B64  00043D  009FA1      4DB2       0  CODE    


UNUSED ADDRESS RANGES

        Name                Unused          Largest block    Delta
        BANK0            0000FE-0000FF                2
        BANK10           000A00-000AFF              100
        BANK11           000B00-000BFF              100
        BANK12           000C00-000CFF              100
        BANK13           000D00-000DFF              100
        BANK14           000E00-000E87               88
        BANK2            0002FA-0002FF                6
        BANK3            0003F7-0003FF                9
        BANK4            000400-0004FF              100
        BANK5            000500-0005FF              100
        BANK6            000600-0006FF              100
        BANK7            000700-0007FF              100
        BANK8            000800-0008FF              100
        BANK9            000900-0009FF              100
        BIGRAM           000051-00005F                F
                         0000FE-0000FF                2
                         0002FA-0002FF                6
                         0003F7-000E87              A91
        BIGSFR           000E8D-000FFF              173
        CODE             000006-000007                2
                         0000A0-000EFF              E60
                         009B63-009B63                1
                         009FA1-00FFFF             605F
        COMRAM           000051-00005F                F
        CONST            000006-000007                2
                         0000A0-000EFF              E60
                         009B63-009B63                1
                         009FA1-00FFFF             605F
        EEDATA           310000-3103FF              400
        MEDIUMCONST      009B63-009B63                1
                         009FA1-00FFFF             605F
        RAM              0000FE-0000FF                2
                         0002FA-0002FF                6
                         0003F7-000E87              100
        SFR              000E8D-000FFF               73
        SMALLCONST       009B63-009B63                1
                         009FA1-00FFFF              100

                                  Symbol Table

?___awdiv                                                 cstackCOMRAM 000014
?___lldiv                                                 cstackCOMRAM 000010
?___lmul                                                  cstackCOMRAM 00001D
?___lwdiv                                                 cstackCOMRAM 000010
?___wmul                                                  cstackCOMRAM 000010
?_calculateMean                                           cstackCOMRAM 000010
?_getCurrentComparator                                    cstackCOMRAM 000016
?_getHopCode                                              cstackCOMRAM 000016
?_getTimeDecelaration                                     cstackCOMRAM 000029
?_read_package                                            cstackCOMRAM 000011
?_sm_get_current_state                                    cstackCOMRAM 000010
?_sumEnergyADC                                            cstackCOMRAM 000010
?_sumHIST                                                 cstackCOMRAM 000010
ADCC_GetSingleConversion@channel                          cstackCOMRAM 000001
ControlMotor@stateMotor                                   cstackCOMRAM 000018
DecCHK@data                                               cstackCOMRAM 000010
Decrypt@Buffer                                            cstackCOMRAM 000022
Decrypt@aux                                               cstackCOMRAM 000021
Decrypt@i                                                 cstackCOMRAM 00001E
Decrypt@j                                                 cstackCOMRAM 00001F
Decrypt@key                                               cstackCOMRAM 00001D
Decrypt@p                                                 cstackCOMRAM 000020
Decrypt@packet                                            cstackCOMRAM 00001B
DecryptPacket_12BIT@classic_data                          cstackBANK0  0000E2
DecryptPacket_12BIT@commandType                           cstackBANK0  0000E4
DecryptPacket_12BIT@data                                  cstackBANK0  0000E0
EUSART1_Read@readValue                                    cstackCOMRAM 000010
EUSART1_SetErrorHandler@interruptHandler                  cstackCOMRAM 000010
EUSART1_SetFramingErrorHandler@interruptHandler           cstackCOMRAM 000010
EUSART1_SetOverrunErrorHandler@interruptHandler           cstackCOMRAM 000010
EUSART1_SetRxInterruptHandler@interruptHandler            cstackCOMRAM 000010
EUSART1_SetTxInterruptHandler@interruptHandler            cstackCOMRAM 000010
EUSART1_Write@txData                                      cstackCOMRAM 000010
GetMotorPower@defineatraso                                cstackCOMRAM 000013
HopCHK@data                                               cstackCOMRAM 000024
HopCHK@hopDiff                                            cstackCOMRAM 000026
I2C1_CallbackReturnReset@funPtr                           cstackCOMRAM 000019
I2C1_Close@returnValue                                    cstackCOMRAM 000010
I2C1_MasterOperation@read                                 cstackCOMRAM 000020
I2C1_MasterOperation@returnValue                          cstackCOMRAM 000021
I2C1_MasterSendTxData@data                                cstackCOMRAM 000010
I2C1_Open@address                                         cstackCOMRAM 000010
I2C1_Open@returnValue                                     cstackCOMRAM 000011
I2C1_Read1ByteRegister@address                            cstackCOMRAM 000023
I2C1_Read1ByteRegister@reg                                cstackCOMRAM 000022
I2C1_Read1ByteRegister@returnValue                        cstackCOMRAM 000024
I2C1_SetAddressNackCallback@cb                            cstackCOMRAM 000015
I2C1_SetAddressNackCallback@ptr                           cstackCOMRAM 000017
I2C1_SetBuffer@buffer                                     cstackCOMRAM 000010
I2C1_SetBuffer@bufferSize                                 cstackCOMRAM 000012
I2C1_SetCallback@cb                                       cstackCOMRAM 000010
I2C1_SetCallback@idx                                      cstackCOMRAM 000014
I2C1_SetCallback@ptr                                      cstackCOMRAM 000012
I2C1_SetDataCompleteCallback@cb                           cstackCOMRAM 000015
I2C1_SetDataCompleteCallback@ptr                          cstackCOMRAM 000017
NormalKeyGen@Buffer                                       cstackCOMRAM 000030
NormalKeyGen@HOPtemp                                      cstackCOMRAM 000028
NormalKeyGen@SEED                                         bssBANK2     0002D7
NormalKeyGen@SKEYtemp                                     cstackCOMRAM 00002C
NormalKeyGen@serial                                       cstackCOMRAM 000026
OpenWalkOrder@diffTime                                    cstackCOMRAM 00001A
RGB_Set@value                                             cstackCOMRAM 000010
ReadSerial@cmdType                                        cstackCOMRAM 000032
ReadSerial@position                                       cstackCOMRAM 00002F
ReadSerial@tempSerial                                     cstackCOMRAM 00002E
RemoveSerial@cmdType                                      cstackBANK0  0000DA
RemoveSerial@position                                     cstackCOMRAM 00003A
RemoveSerial@tempSerial                                   cstackBANK0  0000DB
ReqResync@CurrentHop                                      cstackCOMRAM 000010
ResetDefaultMemory@type                                   cstackCOMRAM 00003A
SaveNVM_VarSystem@page                                    cstackBANK0  0000D8
SaveNVM_VarSystem@point                                   cstackBANK0  0000DB
SaveNVM_VarSystem@tempAdd                                 cstackBANK0  0000D9
Segments_Set@value                                        cstackCOMRAM 000001
SetSegmentValue@d1                                        cstackCOMRAM 00001D
SetSegmentValue@d2                                        cstackCOMRAM 00001C
SetSegmentValueIntermitent@d1                             cstackCOMRAM 000013
SetSegmentValueIntermitent@d2                             cstackCOMRAM 000010
SetSegmentValueIntermitent@time                           cstackCOMRAM 000011
SetSegmentValueIntermitentMain@d1                         cstackCOMRAM 00001F
SetSegmentValueIntermitentMain@d2                         cstackCOMRAM 00001C
SetSegmentValueIntermitentMain@time                       cstackCOMRAM 00001D
SetSegmentValueLearn@direction                            cstackCOMRAM 000012
SetSegmentValueMain@d1                                    cstackCOMRAM 00001D
SetSegmentValueMain@d2                                    cstackCOMRAM 00001C
TMR0_SetInterruptHandler@InterruptHandler                 cstackCOMRAM 000010
TMR1_SetInterruptHandler@InterruptHandler                 cstackCOMRAM 000010
TMR1_WriteTimer@timerVal                                  cstackCOMRAM 000001
TMR2_SetInterruptHandler@InterruptHandler                 cstackCOMRAM 000010
VerifyElectricalBrake@actualState                         cstackCOMRAM 000011
VerifyElectricalBrake@tempState                           cstackCOMRAM 000010
VerifyFollowMe@securityClose                              cstackCOMRAM 000010
WWDT_TimerClear@state                                     cstackCOMRAM 000010
_ADACCH                                                   (abs)        000F71
_ADACCL                                                   (abs)        000F70
_ADACQ                                                    (abs)        000F5C
_ADACT                                                    (abs)        000F56
_ADCAP                                                    (abs)        000F5D
_ADCC_GetSingleConversion                                 text194      009DA6
_ADCC_Initialize                                          text110      0092B6
_ADCLK                                                    (abs)        000F57
_ADCNT                                                    (abs)        000F67
_ADCON0                                                   (abs)        000F60
_ADCON0bits                                               (abs)        000F60
_ADCON1                                                   (abs)        000F59
_ADCON2                                                   (abs)        000F5A
_ADCON3                                                   (abs)        000F5B
_ADC_array                                                bssBANK2     000200
_ADC_zero_array                                           bssBANK3     000396
_ADERRH                                                   (abs)        000F6F
_ADERRL                                                   (abs)        000F6E
_ADFLTRH                                                  (abs)        000F73
_ADFLTRL                                                  (abs)        000F72
_ADLTHH                                                   (abs)        000F6B
_ADLTHL                                                   (abs)        000F6A
_ADPCH                                                    (abs)        000F5F
_ADPRE                                                    (abs)        000F5E
_ADPREVH                                                  (abs)        000F62
_ADPREVL                                                  (abs)        000F61
_ADREF                                                    (abs)        000F58
_ADRESH                                                   (abs)        000F64
_ADRESL                                                   (abs)        000F63
_ADRPT                                                    (abs)        000F66
_ADSTAT                                                   (abs)        000F65
_ADSTPTH                                                  (abs)        000F69
_ADSTPTL                                                  (abs)        000F68
_ADUTHH                                                   (abs)        000F6D
_ADUTHL                                                   (abs)        000F6C
_ANSELA                                                   (abs)        000F11
_ANSELB                                                   (abs)        000F19
_ANSELC                                                   (abs)        000F21
_ANSELD                                                   (abs)        000F26
_ANSELE                                                   (abs)        000F2E
_Abertura_pedonal                                         bssBANK1     000192
_BAUD1CON                                                 (abs)        000F9F
_BitCount                                                 bssBANK0     00008C
_Bptr                                                     bssBANK0     00008D
_BufferRF                                                 bssBANK2     0002C6
_BufferRF_12BIT                                           bssBANK1     00018B
_ClearFlag_rfCMD                                          text13       009F40
_CloseOrder                                               text32       009AA6
_ControlCounterMoves                                      text129      00900C
_ControlCurrent                                           text119      006B20
_ControlDecelarationFactor                                text29       009D02
_ControlInputs                                            text118      007166
_ControlLights                                            text114      004686
_ControlMotor                                             text112      0053F6
_Counterchoose                                            bssBANK0     000092
_DKEY                                                     bssBANK2     0002CF
_DecCHK                                                   text66       009726
_Decrypt                                                  text62       007A68
_DecryptPacket_12BIT                                      text67       00826E
_DispTable                                                dataBANK3    0003D2
_EHop                                                     bssBANK2     00028C
_EUSART1_DefaultErrorHandler                              text208      009F64
_EUSART1_DefaultFramingErrorHandler                       text207      009F9E
_EUSART1_DefaultOverrunErrorHandler                       text206      009F5E
_EUSART1_ErrorHandler                                     nvBANK2      0002E3
_EUSART1_FramingErrorHandler                              nvBANK2      0002E7
_EUSART1_Initialize                                       text104      00872A
_EUSART1_OverrunErrorHandler                              nvBANK2      0002E5
_EUSART1_Read                                             text55       0093EC
_EUSART1_Receive_ISR                                      text205      00801A
_EUSART1_RxDataHandler                                    text209      009BEE
_EUSART1_RxDefaultInterruptHandler                        nvBANK2      0002E9
_EUSART1_SetErrorHandler                                  text109      009EBC
_EUSART1_SetFramingErrorHandler                           text108      009EB2
_EUSART1_SetOverrunErrorHandler                           text107      009EA8
_EUSART1_SetRxInterruptHandler                            text106      009E9E
_EUSART1_SetTxInterruptHandler                            text105      009E94
_EUSART1_Transmit_ISR                                     text204      00978A
_EUSART1_TxDefaultInterruptHandler                        nvBANK2      0002EB
_EUSART1_Write                                            text80       009544
_EUSART1_is_rx_ready                                      text111      009E0A
_F2Chance                                                 bssBANK1     00019A
_GIE                                                      (abs)        007F97
_GetMotorPower                                            text128      007B34
_GetOpenOrder                                             text50       005E40
_GetSecurityStateInClosing                                text38       007ECE
_GetSecurityStateInOpening                                text48       007F74
_Hop                                                      bssBANK0     00007C
_HopCHK                                                   text63       008412
_I2C1_CallbackReturnReset                                 text164      009F7A
_I2C1_CallbackReturnStop                                  text165      009F7E
_I2C1_Close                                               text182      009BCC
_I2C1_DO_ADDRESS_NACK                                     text141      009354
_I2C1_DO_IDLE                                             text155      009EDA
_I2C1_DO_RCEN                                             text150      009ED0
_I2C1_DO_RESET                                            text142      009EC6
_I2C1_DO_RX                                               text151      008824
_I2C1_DO_RX_ACK                                           text145      009F04
_I2C1_DO_RX_NACK_RESTART                                  text143      009EF4
_I2C1_DO_RX_NACK_STOP                                     text144      009EFC
_I2C1_DO_SEND_ADR_READ                                    text154      009E46
_I2C1_DO_SEND_ADR_WRITE                                   text153      009E38
_I2C1_DO_SEND_RESTART                                     text147      009F14
_I2C1_DO_SEND_RESTART_READ                                text149      009F24
_I2C1_DO_SEND_RESTART_WRITE                               text148      009F1C
_I2C1_DO_SEND_STOP                                        text146      009F0C
_I2C1_DO_TX                                               text152      008386
_I2C1_DO_TX_EMPTY                                         text156      008E40
_I2C1_Initialize                                          text103      009DE4
_I2C1_MasterClearIrq                                      text185      009F58
_I2C1_MasterClose                                         text184      009F92
_I2C1_MasterDisableIrq                                    text183      009F8E
_I2C1_MasterEnableRestart                                 text180      009F86
_I2C1_MasterFsm                                           text140      0091C0
_I2C1_MasterGetRxData                                     text161      009F72
_I2C1_MasterIsNack                                        text158      009E54
_I2C1_MasterOpen                                          text135      009D4A
_I2C1_MasterOperation                                     text137      00989E
_I2C1_MasterSendAck                                       text160      009F4C
_I2C1_MasterSendNack                                      text162      009F52
_I2C1_MasterSendTxData                                    text159      009F2C
_I2C1_MasterSetIrq                                        text157      009F46
_I2C1_MasterStart                                         text181      009F8A
_I2C1_MasterStartRx                                       text163      009F76
_I2C1_MasterStop                                          text179      009F82
_I2C1_MasterWaitForEvent                                  text139      009EEC
_I2C1_MasterWrite                                         text136      009EE4
_I2C1_Open                                                text134      0085A4
_I2C1_Poller                                              text138      009E1A
_I2C1_Read1ByteRegister                                   text72       008F56
_I2C1_SetAddressNackCallback                              text133      009D32
_I2C1_SetBuffer                                           text178      009CE8
_I2C1_SetCallback                                         text177      008C36
_I2C1_SetDataCompleteCallback                             text176      009D62
_I2C1_Status                                              bssBANK2     00023C
_INLVLA                                                   (abs)        000F0D
_INLVLB                                                   (abs)        000F15
_INLVLC                                                   (abs)        000F1D
_INLVLD                                                   (abs)        000F22
_INLVLE                                                   (abs)        000F2A
_INTCONbits                                               (abs)        000FF2
_INTERRUPT_Initialize                                     text102      009F6E
_INTERRUPT_InterruptManager                               intcode      000008
_IOCBN3                                                   (abs)        00789B
_IOCBP3                                                   (abs)        0078A3
_InitFullAutoTime                                         text42       009CB4
_InitReceiver                                             text5        009C80
_InitSoftStart                                            text46       008EFA
_InitSoftStop                                             text28       0093A2
_InitWalkAutoTime                                         text47       009DBC
_LATA                                                     (abs)        000F83
_LATAbits                                                 (abs)        000F83
_LATB                                                     (abs)        000F84
_LATC                                                     (abs)        000F85
_LATCbits                                                 (abs)        000F85
_LATD                                                     (abs)        000F86
_LATDbits                                                 (abs)        000F86
_LATE                                                     (abs)        000F87
_LATEbits                                                 (abs)        000F87
_LoadManufCode                                            text61       009B88
_NextHop                                                  bssBANK1     000187
_NormalKeyGen                                             text60       00739A
_ODCONA                                                   (abs)        000F0F
_ODCONB                                                   (abs)        000F17
_ODCONC                                                   (abs)        000F1F
_ODCOND                                                   (abs)        000F24
_ODCONE                                                   (abs)        000F2C
_OSCCON1                                                  (abs)        000ED8
_OSCCON3                                                  (abs)        000EDA
_OSCEN                                                    (abs)        000EDC
_OSCFRQ                                                   (abs)        000EDE
_OSCILLATOR_Initialize                                    text101      009D90
_OSCTUNE                                                  (abs)        000EDD
_OpenFullOrder                                            text41       009ACC
_OpenWalkOrder                                            text43       008BC8
_PCON0bits                                                (abs)        000FD7
_PIE0bits                                                 (abs)        000EC2
_PIE3bits                                                 (abs)        000EC5
_PIE4bits                                                 (abs)        000EC6
_PIN_MANAGER_Initialize                                   text100      0080B4
_PIR0bits                                                 (abs)        000ECA
_PIR3bits                                                 (abs)        000ECD
_PIR4bits                                                 (abs)        000ECE
_PMD0                                                     (abs)        000EE1
_PMD1                                                     (abs)        000EE2
_PMD2                                                     (abs)        000EE3
_PMD3                                                     (abs)        000EE4
_PMD4                                                     (abs)        000EE5
_PMD5                                                     (abs)        000EE6
_PMD_Initialize                                           text99       009C48
_PORTAbits                                                (abs)        000F8D
_PORTB                                                    (abs)        000F8E
_PORTBbits                                                (abs)        000F8E
_PORTEbits                                                (abs)        000F91
_RC1REG                                                   (abs)        000F99
_RC1STA                                                   (abs)        000F9D
_RC1STAbits                                               (abs)        000F9D
_RC3PPS                                                   (abs)        000EFA
_RC4PPS                                                   (abs)        000EFB
_RC7PPS                                                   (abs)        000EFE
_RFBit                                                    bssBANK0     000089
_RFFull                                                   bssBANK0     00008B
_RFFull_12BIT                                             bssBANK0     00008A
_RFcount                                                  bssBANK0     00007E
_RFstate                                                  bssBANK1     00019D
_RGB_Set                                                  text116      009E2A
_RX1PPS                                                   (abs)        000EB5
_ReadADC                                                  text193      00916A
_ReadSerial                                               text85       008B58
_RemoveSerial                                             text84       0086AA
_ReqResync                                                text65       009D7A
_ResetDefaultMemory                                       text71       00680E
_SLRCONA                                                  (abs)        000F0E
_SLRCONB                                                  (abs)        000F16
_SLRCONC                                                  (abs)        000F1E
_SLRCOND                                                  (abs)        000F23
_SLRCONE                                                  (abs)        000F2B
_SP1BRGH                                                  (abs)        000F9C
_SP1BRGL                                                  (abs)        000F9B
_SSP1ADD                                                  (abs)        000F93
_SSP1BUF                                                  (abs)        000F92
_SSP1CLKPPS                                               (abs)        000EB7
_SSP1CON1                                                 (abs)        000F96
_SSP1CON1bits                                             (abs)        000F96
_SSP1CON2                                                 (abs)        000F97
_SSP1CON2bits                                             (abs)        000F97
_SSP1DATPPS                                               (abs)        000EB8
_SSP1STAT                                                 (abs)        000F95
_SYSTEM_Initialize                                        text91       0097EC
_SaveNVM_VarSystem                                        text130      0096BA
_Segments_Set                                             text189      009E60
_SetSegmentValue                                          text90       009CCE
_SetSegmentValueIntermitent                               text49       00981A
_SetSegmentValueIntermitentMain                           text52       009DD0
_SetSegmentValueLearn                                     text15       0076AE
_SetSegmentValueMain                                      text12       009C9A
_ShowVersion                                              text89       008D78
_StateTRIAC                                               bssBANK1     000195
_StopOrder                                                text37       009C10
_SumEnergyADCHist_array                                   bssBANK2     000260
_T0CON0                                                   (abs)        000FD5
_T0CON1                                                   (abs)        000FD6
_T1CLK                                                    (abs)        000FD2
_T1CON                                                    (abs)        000FCF
_T1CONbits                                                (abs)        000FCF
_T1GATE                                                   (abs)        000FD1
_T1GCON                                                   (abs)        000FD0
_T2CLKCON                                                 (abs)        000FBF
_T2CON                                                    (abs)        000FBD
_T2HLT                                                    (abs)        000FBE
_T2PR                                                     (abs)        000FBC
_T2RST                                                    (abs)        000FC0
_T2TMR                                                    (abs)        000FBB
_TMR0H                                                    (abs)        000FD4
_TMR0IE                                                   (abs)        007615
_TMR0IF                                                   (abs)        007655
_TMR0L                                                    (abs)        000FD3
_TMR0_DefaultInterruptHandler                             text203      009F9C
_TMR0_ISR                                                 text201      009B18
_TMR0_Initialize                                          text97       009BAA
_TMR0_InterruptHandler                                    nvBANK2      0002E1
_TMR0_SetInterruptHandler                                 text98       009E8A
_TMR1H                                                    (abs)        000FCE
_TMR1L                                                    (abs)        000FCD
_TMR1_DefaultInterruptHandler                             text200      009F9A
_TMR1_ISR                                                 text195      009604
_TMR1_Initialize                                          text95       009502
_TMR1_InterruptHandler                                    nvBANK2      0002DD
_TMR1_SetInterruptHandler                                 text96       009E80
_TMR1_WriteTimer                                          text199      009C64
_TMR2_DefaultInterruptHandler                             text192      009F98
_TMR2_ISR                                                 text187      006C94
_TMR2_Initialize                                          text93       009872
_TMR2_InterruptHandler                                    nvBANK2      0002DB
_TMR2_SetInterruptHandler                                 text94       009E76
_TRISA                                                    (abs)        000F88
_TRISB                                                    (abs)        000F89
_TRISC                                                    (abs)        000F8A
_TRISD                                                    (abs)        000F8B
_TRISE                                                    (abs)        000F8C
_TX1REG                                                   (abs)        000F9A
_TX1STA                                                   (abs)        000F9E
_VerifyElectricalBrake                                    text113      00889E
_VerifyFollowMe                                           text31       009B64
_WDTCON0                                                  (abs)        000ED2
_WDTCON0bits                                              (abs)        000ED2
_WDTCON1                                                  (abs)        000ED3
_WPUA                                                     (abs)        000F10
_WPUB                                                     (abs)        000F18
_WPUC                                                     (abs)        000F20
_WPUD                                                     (abs)        000F25
_WPUE                                                     (abs)        000F2D
_WWDT_Initialize                                          text92       009E6C
_WWDT_SoftEnable                                          text88       009F6A
_WWDT_TimerClear                                          text87       009C2C
_WaitPreFlash                                             text40       008A78
__HRAM                                                    (abs)        000000
__Habs1                                                   abs1         000000
__Hbank0                                                  bank0        000000
__Hbank1                                                  bank1        000000
__Hbank10                                                 bank10       000000
__Hbank11                                                 bank11       000000
__Hbank12                                                 bank12       000000
__Hbank13                                                 bank13       000000
__Hbank14                                                 bank14       000000
__Hbank2                                                  bank2        000000
__Hbank3                                                  bank3        000000
__Hbank4                                                  bank4        000000
__Hbank5                                                  bank5        000000
__Hbank6                                                  bank6        000000
__Hbank7                                                  bank7        000000
__Hbank8                                                  bank8        000000
__Hbank9                                                  bank9        000000
__Hbigbss                                                 bigbss       000000
__Hbigdata                                                bigdata      000000
__Hbigram                                                 bigram       000000
__Hbigsfr                                                 bigsfr       000000
__Hbss                                                    bss          000000
__HbssBANK0                                               bssBANK0     000000
__HbssBANK1                                               bssBANK1     000000
__HbssBANK2                                               bssBANK2     000000
__HbssBANK3                                               bssBANK3     000000
__HbssCOMRAM                                              bssCOMRAM    000000
__Hcinit                                                  cinit        000000
__Hclrtext                                                clrtext      000000
__Hcomram                                                 comram       000000
__Hconfig                                                 config       30000C
__Hconst                                                  const        000000
__HcstackBANK0                                            cstackBANK0  000000
__HcstackBANK2                                            cstackBANK2  000000
__HcstackCOMRAM                                           cstackCOMRAM 000000
__Hdata                                                   data         000000
__HdataBANK0                                              dataBANK0    000000
__HdataBANK1                                              dataBANK1    000000
__HdataBANK2                                              dataBANK2    000000
__HdataBANK3                                              dataBANK3    000000
__Heeprom_data                                            eeprom_data  000000
__Hfarbss                                                 farbss       000000
__Hfardata                                                fardata      000000
__Hheap                                                   heap         000000
__Hibigdata                                               ibigdata     000000
__Hidata                                                  idata        000000
__HidataBANK0                                             idataBANK0   000000
__HidataBANK1                                             idataBANK1   000000
__HidataBANK2                                             idataBANK2   000000
__HidataBANK3                                             idataBANK3   000000
__Hidloc                                                  idloc        200010
__Hifardata                                               ifardata     000000
__Hinit                                                   init         0000A0
__Hintcode                                                intcode      00009C
__Hintcode_body                                           intcode_body 000000
__Hintcodelo                                              intcodelo    00009C
__Hintentry                                               intentry     000000
__Hintret                                                 intret       000000
__Hintsave_regs                                           intsave_regs 000000
__Hirdata                                                 irdata       000000
__Hmediumconst                                            mediumconst  000000
__HnvBANK1                                                nvBANK1      000000
__HnvBANK2                                                nvBANK2      000000
__HnvFARRAM                                               nvFARRAM     000000
__Hnvbit                                                  nvbit        000000
__Hnvrram                                                 nvrram       000000
__Hparam                                                  rparam       000000
__Hpowerup                                                powerup      00009C
__Hram                                                    ram          000000
__Hramtop                                                 ramtop       000F00
__Hrbit                                                   rbit         000000
__Hrbss                                                   rbss         000000
__Hrdata                                                  rdata        000000
__Hreset_vec                                              reset_vec    000006
__Hrparam                                                 rparam       000000
__Hsfr                                                    sfr          000000
__Hsmallconst                                             smallconst   000F22
__Hspace_0                                                (abs)        009FA1
__Hspace_1                                                (abs)        0003F7
__Hspace_2                                                (abs)        000000
__Hspace_4                                                (abs)        60000C
__Hstack                                                  stack        000000
__Hstruct                                                 struct       000000
__Htemp                                                   temp         000051
__Htext                                                   text         000000
__Htext0                                                  text0        000000
__Htext1                                                  text1        000000
__Htext10                                                 text10       000000
__Htext100                                                text100      000000
__Htext101                                                text101      000000
__Htext102                                                text102      000000
__Htext103                                                text103      000000
__Htext104                                                text104      000000
__Htext105                                                text105      000000
__Htext106                                                text106      000000
__Htext107                                                text107      000000
__Htext108                                                text108      000000
__Htext109                                                text109      000000
__Htext11                                                 text11       000000
__Htext110                                                text110      000000
__Htext111                                                text111      000000
__Htext112                                                text112      000000
__Htext113                                                text113      000000
__Htext114                                                text114      000000
__Htext115                                                text115      000000
__Htext116                                                text116      000000
__Htext117                                                text117      000000
__Htext118                                                text118      000000
__Htext119                                                text119      000000
__Htext12                                                 text12       000000
__Htext120                                                text120      000000
__Htext121                                                text121      000000
__Htext122                                                text122      000000
__Htext123                                                text123      000000
__Htext124                                                text124      000000
__Htext125                                                text125      000000
__Htext126                                                text126      000000
__Htext127                                                text127      000000
__Htext128                                                text128      000000
__Htext129                                                text129      000000
__Htext13                                                 text13       000000
__Htext130                                                text130      000000
__Htext131                                                text131      000000
__Htext132                                                text132      000000
__Htext133                                                text133      000000
__Htext134                                                text134      000000
__Htext135                                                text135      000000
__Htext136                                                text136      000000
__Htext137                                                text137      000000
__Htext138                                                text138      000000
__Htext139                                                text139      000000
__Htext14                                                 text14       000000
__Htext140                                                text140      000000
__Htext141                                                text141      000000
__Htext142                                                text142      000000
__Htext143                                                text143      000000
__Htext144                                                text144      000000
__Htext145                                                text145      000000
__Htext146                                                text146      000000
__Htext147                                                text147      000000
__Htext148                                                text148      000000
__Htext149                                                text149      000000
__Htext15                                                 text15       000000
__Htext150                                                text150      000000
__Htext151                                                text151      000000
__Htext152                                                text152      000000
__Htext153                                                text153      000000
__Htext154                                                text154      000000
__Htext155                                                text155      000000
__Htext156                                                text156      000000
__Htext157                                                text157      000000
__Htext158                                                text158      000000
__Htext159                                                text159      000000
__Htext16                                                 text16       000000
__Htext160                                                text160      000000
__Htext161                                                text161      000000
__Htext162                                                text162      000000
__Htext163                                                text163      000000
__Htext164                                                text164      000000
__Htext165                                                text165      000000
__Htext166                                                text166      000000
__Htext167                                                text167      000000
__Htext168                                                text168      000000
__Htext169                                                text169      000000
__Htext17                                                 text17       000000
__Htext170                                                text170      000000
__Htext171                                                text171      000000
__Htext172                                                text172      000000
__Htext173                                                text173      000000
__Htext174                                                text174      000000
__Htext175                                                text175      000000
__Htext176                                                text176      000000
__Htext177                                                text177      000000
__Htext178                                                text178      000000
__Htext179                                                text179      000000
__Htext18                                                 text18       000000
__Htext180                                                text180      000000
__Htext181                                                text181      000000
__Htext182                                                text182      000000
__Htext183                                                text183      000000
__Htext184                                                text184      000000
__Htext185                                                text185      000000
__Htext187                                                text187      000000
__Htext188                                                text188      000000
__Htext189                                                text189      000000
__Htext19                                                 text19       000000
__Htext190                                                text190      000000
__Htext191                                                text191      000000
__Htext192                                                text192      000000
__Htext193                                                text193      000000
__Htext194                                                text194      000000
__Htext195                                                text195      000000
__Htext196                                                text196      000000
__Htext197                                                text197      000000
__Htext198                                                text198      000000
__Htext199                                                text199      000000
__Htext2                                                  text2        000000
__Htext20                                                 text20       000000
__Htext200                                                text200      000000
__Htext201                                                text201      000000
__Htext202                                                text202      000000
__Htext203                                                text203      000000
__Htext204                                                text204      000000
__Htext205                                                text205      000000
__Htext206                                                text206      000000
__Htext207                                                text207      000000
__Htext208                                                text208      000000
__Htext209                                                text209      000000
__Htext21                                                 text21       000000
__Htext210                                                text210      000000
__Htext22                                                 text22       000000
__Htext23                                                 text23       000000
__Htext24                                                 text24       000000
__Htext25                                                 text25       000000
__Htext26                                                 text26       000000
__Htext27                                                 text27       000000
__Htext28                                                 text28       000000
__Htext29                                                 text29       000000
__Htext3                                                  text3        000000
__Htext30                                                 text30       000000
__Htext31                                                 text31       000000
__Htext32                                                 text32       000000
__Htext33                                                 text33       000000
__Htext34                                                 text34       000000
__Htext35                                                 text35       000000
__Htext36                                                 text36       000000
__Htext37                                                 text37       000000
__Htext38                                                 text38       000000
__Htext39                                                 text39       000000
__Htext4                                                  text4        000000
__Htext40                                                 text40       000000
__Htext41                                                 text41       000000
__Htext42                                                 text42       000000
__Htext43                                                 text43       000000
__Htext44                                                 text44       000000
__Htext45                                                 text45       000000
__Htext46                                                 text46       000000
__Htext47                                                 text47       000000
__Htext48                                                 text48       000000
__Htext49                                                 text49       000000
__Htext5                                                  text5        000000
__Htext50                                                 text50       000000
__Htext51                                                 text51       000000
__Htext52                                                 text52       000000
__Htext53                                                 text53       000000
__Htext54                                                 text54       000000
__Htext55                                                 text55       000000
__Htext56                                                 text56       000000
__Htext57                                                 text57       000000
__Htext58                                                 text58       000000
__Htext59                                                 text59       000000
__Htext6                                                  text6        000000
__Htext60                                                 text60       000000
__Htext61                                                 text61       000000
__Htext62                                                 text62       000000
__Htext63                                                 text63       000000
__Htext64                                                 text64       000000
__Htext65                                                 text65       000000
__Htext66                                                 text66       000000
__Htext67                                                 text67       000000
__Htext68                                                 text68       000000
__Htext69                                                 text69       000000
__Htext7                                                  text7        000000
__Htext70                                                 text70       000000
__Htext71                                                 text71       000000
__Htext72                                                 text72       000000
__Htext73                                                 text73       000000
__Htext74                                                 text74       000000
__Htext75                                                 text75       000000
__Htext76                                                 text76       000000
__Htext77                                                 text77       000000
__Htext78                                                 text78       000000
__Htext79                                                 text79       000000
__Htext8                                                  text8        000000
__Htext80                                                 text80       000000
__Htext81                                                 text81       000000
__Htext82                                                 text82       000000
__Htext83                                                 text83       000000
__Htext84                                                 text84       000000
__Htext85                                                 text85       000000
__Htext86                                                 text86       000000
__Htext87                                                 text87       000000
__Htext88                                                 text88       000000
__Htext89                                                 text89       000000
__Htext9                                                  text9        000000
__Htext90                                                 text90       000000
__Htext91                                                 text91       000000
__Htext92                                                 text92       000000
__Htext93                                                 text93       000000
__Htext94                                                 text94       000000
__Htext95                                                 text95       000000
__Htext96                                                 text96       000000
__Htext97                                                 text97       000000
__Htext98                                                 text98       000000
__Htext99                                                 text99       000000
__LRAM                                                    (abs)        000001
__Labs1                                                   abs1         000000
__Lbank0                                                  bank0        000000
__Lbank1                                                  bank1        000000
__Lbank10                                                 bank10       000000
__Lbank11                                                 bank11       000000
__Lbank12                                                 bank12       000000
__Lbank13                                                 bank13       000000
__Lbank14                                                 bank14       000000
__Lbank2                                                  bank2        000000
__Lbank3                                                  bank3        000000
__Lbank4                                                  bank4        000000
__Lbank5                                                  bank5        000000
__Lbank6                                                  bank6        000000
__Lbank7                                                  bank7        000000
__Lbank8                                                  bank8        000000
__Lbank9                                                  bank9        000000
__Lbigbss                                                 bigbss       000000
__Lbigdata                                                bigdata      000000
__Lbigram                                                 bigram       000000
__Lbigsfr                                                 bigsfr       000000
__Lbss                                                    bss          000000
__LbssBANK0                                               bssBANK0     000000
__LbssBANK1                                               bssBANK1     000000
__LbssBANK2                                               bssBANK2     000000
__LbssBANK3                                               bssBANK3     000000
__LbssCOMRAM                                              bssCOMRAM    000000
__Lcinit                                                  cinit        000000
__Lclrtext                                                clrtext      000000
__Lcomram                                                 comram       000000
__Lconfig                                                 config       000000
__Lconst                                                  const        000000
__LcstackBANK0                                            cstackBANK0  000000
__LcstackBANK2                                            cstackBANK2  000000
__LcstackCOMRAM                                           cstackCOMRAM 000000
__Ldata                                                   data         000000
__LdataBANK0                                              dataBANK0    000000
__LdataBANK1                                              dataBANK1    000000
__LdataBANK2                                              dataBANK2    000000
__LdataBANK3                                              dataBANK3    000000
__Leeprom_data                                            eeprom_data  000000
__Lfarbss                                                 farbss       000000
__Lfardata                                                fardata      000000
__Lheap                                                   heap         000000
__Libigdata                                               ibigdata     000000
__Lidata                                                  idata        000000
__LidataBANK0                                             idataBANK0   000000
__LidataBANK1                                             idataBANK1   000000
__LidataBANK2                                             idataBANK2   000000
__LidataBANK3                                             idataBANK3   000000
__Lidloc                                                  idloc        000000
__Lifardata                                               ifardata     000000
__Linit                                                   init         00009C
__Lintcode                                                intcode      000008
__Lintcode_body                                           intcode_body 000000
__Lintcodelo                                              intcodelo    00009C
__Lintentry                                               intentry     000000
__Lintret                                                 intret       000000
__Lintsave_regs                                           intsave_regs 000000
__Lirdata                                                 irdata       000000
__Lmediumconst                                            mediumconst  000000
__LnvBANK1                                                nvBANK1      000000
__LnvBANK2                                                nvBANK2      000000
__LnvFARRAM                                               nvFARRAM     000000
__Lnvbit                                                  nvbit        000000
__Lnvrram                                                 nvrram       000000
__Lparam                                                  rparam       000000
__Lpowerup                                                powerup      00009C
__Lram                                                    ram          000000
__Lramtop                                                 ramtop       000F00
__Lrbit                                                   rbit         000000
__Lrbss                                                   rbss         000000
__Lrdata                                                  rdata        000000
__Lreset_vec                                              reset_vec    000000
__Lrparam                                                 rparam       000000
__Lsfr                                                    sfr          000000
__Lsmallconst                                             smallconst   000F00
__Lspace_0                                                (abs)        000000
__Lspace_1                                                (abs)        000000
__Lspace_2                                                (abs)        000000
__Lspace_4                                                (abs)        000000
__Lstack                                                  stack        000000
__Lstruct                                                 struct       000000
__Ltemp                                                   temp         000050
__Ltext                                                   text         000000
__Ltext0                                                  text0        000000
__Ltext1                                                  text1        000000
__Ltext10                                                 text10       000000
__Ltext100                                                text100      000000
__Ltext101                                                text101      000000
__Ltext102                                                text102      000000
__Ltext103                                                text103      000000
__Ltext104                                                text104      000000
__Ltext105                                                text105      000000
__Ltext106                                                text106      000000
__Ltext107                                                text107      000000
__Ltext108                                                text108      000000
__Ltext109                                                text109      000000
__Ltext11                                                 text11       000000
__Ltext110                                                text110      000000
__Ltext111                                                text111      000000
__Ltext112                                                text112      000000
__Ltext113                                                text113      000000
__Ltext114                                                text114      000000
__Ltext115                                                text115      000000
__Ltext116                                                text116      000000
__Ltext117                                                text117      000000
__Ltext118                                                text118      000000
__Ltext119                                                text119      000000
__Ltext12                                                 text12       000000
__Ltext120                                                text120      000000
__Ltext121                                                text121      000000
__Ltext122                                                text122      000000
__Ltext123                                                text123      000000
__Ltext124                                                text124      000000
__Ltext125                                                text125      000000
__Ltext126                                                text126      000000
__Ltext127                                                text127      000000
__Ltext128                                                text128      000000
__Ltext129                                                text129      000000
__Ltext13                                                 text13       000000
__Ltext130                                                text130      000000
__Ltext131                                                text131      000000
__Ltext132                                                text132      000000
__Ltext133                                                text133      000000
__Ltext134                                                text134      000000
__Ltext135                                                text135      000000
__Ltext136                                                text136      000000
__Ltext137                                                text137      000000
__Ltext138                                                text138      000000
__Ltext139                                                text139      000000
__Ltext14                                                 text14       000000
__Ltext140                                                text140      000000
__Ltext141                                                text141      000000
__Ltext142                                                text142      000000
__Ltext143                                                text143      000000
__Ltext144                                                text144      000000
__Ltext145                                                text145      000000
__Ltext146                                                text146      000000
__Ltext147                                                text147      000000
__Ltext148                                                text148      000000
__Ltext149                                                text149      000000
__Ltext15                                                 text15       000000
__Ltext150                                                text150      000000
__Ltext151                                                text151      000000
__Ltext152                                                text152      000000
__Ltext153                                                text153      000000
__Ltext154                                                text154      000000
__Ltext155                                                text155      000000
__Ltext156                                                text156      000000
__Ltext157                                                text157      000000
__Ltext158                                                text158      000000
__Ltext159                                                text159      000000
__Ltext16                                                 text16       000000
__Ltext160                                                text160      000000
__Ltext161                                                text161      000000
__Ltext162                                                text162      000000
__Ltext163                                                text163      000000
__Ltext164                                                text164      000000
__Ltext165                                                text165      000000
__Ltext166                                                text166      000000
__Ltext167                                                text167      000000
__Ltext168                                                text168      000000
__Ltext169                                                text169      000000
__Ltext17                                                 text17       000000
__Ltext170                                                text170      000000
__Ltext171                                                text171      000000
__Ltext172                                                text172      000000
__Ltext173                                                text173      000000
__Ltext174                                                text174      000000
__Ltext175                                                text175      000000
__Ltext176                                                text176      000000
__Ltext177                                                text177      000000
__Ltext178                                                text178      000000
__Ltext179                                                text179      000000
__Ltext18                                                 text18       000000
__Ltext180                                                text180      000000
__Ltext181                                                text181      000000
__Ltext182                                                text182      000000
__Ltext183                                                text183      000000
__Ltext184                                                text184      000000
__Ltext185                                                text185      000000
__Ltext187                                                text187      000000
__Ltext188                                                text188      000000
__Ltext189                                                text189      000000
__Ltext19                                                 text19       000000
__Ltext190                                                text190      000000
__Ltext191                                                text191      000000
__Ltext192                                                text192      000000
__Ltext193                                                text193      000000
__Ltext194                                                text194      000000
__Ltext195                                                text195      000000
__Ltext196                                                text196      000000
__Ltext197                                                text197      000000
__Ltext198                                                text198      000000
__Ltext199                                                text199      000000
__Ltext2                                                  text2        000000
__Ltext20                                                 text20       000000
__Ltext200                                                text200      000000
__Ltext201                                                text201      000000
__Ltext202                                                text202      000000
__Ltext203                                                text203      000000
__Ltext204                                                text204      000000
__Ltext205                                                text205      000000
__Ltext206                                                text206      000000
__Ltext207                                                text207      000000
__Ltext208                                                text208      000000
__Ltext209                                                text209      000000
__Ltext21                                                 text21       000000
__Ltext210                                                text210      000000
__Ltext22                                                 text22       000000
__Ltext23                                                 text23       000000
__Ltext24                                                 text24       000000
__Ltext25                                                 text25       000000
__Ltext26                                                 text26       000000
__Ltext27                                                 text27       000000
__Ltext28                                                 text28       000000
__Ltext29                                                 text29       000000
__Ltext3                                                  text3        000000
__Ltext30                                                 text30       000000
__Ltext31                                                 text31       000000
__Ltext32                                                 text32       000000
__Ltext33                                                 text33       000000
__Ltext34                                                 text34       000000
__Ltext35                                                 text35       000000
__Ltext36                                                 text36       000000
__Ltext37                                                 text37       000000
__Ltext38                                                 text38       000000
__Ltext39                                                 text39       000000
__Ltext4                                                  text4        000000
__Ltext40                                                 text40       000000
__Ltext41                                                 text41       000000
__Ltext42                                                 text42       000000
__Ltext43                                                 text43       000000
__Ltext44                                                 text44       000000
__Ltext45                                                 text45       000000
__Ltext46                                                 text46       000000
__Ltext47                                                 text47       000000
__Ltext48                                                 text48       000000
__Ltext49                                                 text49       000000
__Ltext5                                                  text5        000000
__Ltext50                                                 text50       000000
__Ltext51                                                 text51       000000
__Ltext52                                                 text52       000000
__Ltext53                                                 text53       000000
__Ltext54                                                 text54       000000
__Ltext55                                                 text55       000000
__Ltext56                                                 text56       000000
__Ltext57                                                 text57       000000
__Ltext58                                                 text58       000000
__Ltext59                                                 text59       000000
__Ltext6                                                  text6        000000
__Ltext60                                                 text60       000000
__Ltext61                                                 text61       000000
__Ltext62                                                 text62       000000
__Ltext63                                                 text63       000000
__Ltext64                                                 text64       000000
__Ltext65                                                 text65       000000
__Ltext66                                                 text66       000000
__Ltext67                                                 text67       000000
__Ltext68                                                 text68       000000
__Ltext69                                                 text69       000000
__Ltext7                                                  text7        000000
__Ltext70                                                 text70       000000
__Ltext71                                                 text71       000000
__Ltext72                                                 text72       000000
__Ltext73                                                 text73       000000
__Ltext74                                                 text74       000000
__Ltext75                                                 text75       000000
__Ltext76                                                 text76       000000
__Ltext77                                                 text77       000000
__Ltext78                                                 text78       000000
__Ltext79                                                 text79       000000
__Ltext8                                                  text8        000000
__Ltext80                                                 text80       000000
__Ltext81                                                 text81       000000
__Ltext82                                                 text82       000000
__Ltext83                                                 text83       000000
__Ltext84                                                 text84       000000
__Ltext85                                                 text85       000000
__Ltext86                                                 text86       000000
__Ltext87                                                 text87       000000
__Ltext88                                                 text88       000000
__Ltext89                                                 text89       000000
__Ltext9                                                  text9        000000
__Ltext90                                                 text90       000000
__Ltext91                                                 text91       000000
__Ltext92                                                 text92       000000
__Ltext93                                                 text93       000000
__Ltext94                                                 text94       000000
__Ltext95                                                 text95       000000
__Ltext96                                                 text96       000000
__Ltext97                                                 text97       000000
__Ltext98                                                 text98       000000
__Ltext99                                                 text99       000000
__S0                                                      (abs)        009FA1
__S1                                                      (abs)        0003F7
__S4                                                      (abs)        000000
__S5                                                      (abs)        000000
___awdiv                                                  text11       008520
___awdiv@counter                                          cstackCOMRAM 000018
___awdiv@dividend                                         cstackCOMRAM 000014
___awdiv@divisor                                          cstackCOMRAM 000016
___awdiv@quotient                                         cstackCOMRAM 00001A
___awdiv@sign                                             cstackCOMRAM 000019
___heap_hi                                                (abs)        000000
___heap_lo                                                (abs)        000000
___inthi_sp                                               stack        000000
___intlo_sp                                               stack        000000
___lbdiv                                                  text51       009680
___lbdiv@counter                                          cstackCOMRAM 000012
___lbdiv@dividend                                         cstackCOMRAM 000011
___lbdiv@divisor                                          cstackCOMRAM 000010
___lbdiv@quotient                                         cstackCOMRAM 000013
___lbmod                                                  text10       009A2A
___lbmod@counter                                          cstackCOMRAM 000012
___lbmod@dividend                                         cstackCOMRAM 000011
___lbmod@divisor                                          cstackCOMRAM 000010
___lbmod@rem                                              cstackCOMRAM 000013
___lldiv                                                  text16       008628
___lldiv@counter                                          cstackCOMRAM 00001C
___lldiv@dividend                                         cstackCOMRAM 000010
___lldiv@divisor                                          cstackCOMRAM 000014
___lldiv@quotient                                         cstackCOMRAM 000018
___lmul                                                   text36       009114
___lmul@multiplicand                                      cstackCOMRAM 000021
___lmul@multiplier                                        cstackCOMRAM 00001D
___lmul@product                                           cstackCOMRAM 000025
___lwdiv                                                  text125      009214
___lwdiv@counter                                          cstackCOMRAM 000014
___lwdiv@dividend                                         cstackCOMRAM 000010
___lwdiv@divisor                                          cstackCOMRAM 000012
___lwdiv@quotient                                         cstackCOMRAM 000015
___param_bank                                             (abs)        000000
___rparam_used                                            (abs)        000001
___sp                                                     stack        000000
___wmul                                                   text127      009AF2
___wmul@multiplicand                                      cstackCOMRAM 000012
___wmul@multiplier                                        cstackCOMRAM 000010
___wmul@product                                           cstackCOMRAM 000014
__accesstop                                               (abs)        000060
__activetblptr                                            (abs)        000003
__end_of_ADCC_GetSingleConversion                         text194      009DBC
__end_of_ADCC_Initialize                                  text110      009306
__end_of_ClearFlag_rfCMD                                  text13       009F46
__end_of_CloseOrder                                       text32       009ACC
__end_of_ControlCounterMoves                              text129      009066
__end_of_ControlCurrent                                   text119      006C94
__end_of_ControlDecelarationFactor                        text29       009D1A
__end_of_ControlInputs                                    text118      00728A
__end_of_ControlLights                                    text114      0049AA
__end_of_ControlMotor                                     text112      005640
__end_of_DecCHK                                           text66       009758
__end_of_Decrypt                                          text62       007B34
__end_of_DecryptPacket_12BIT                              text67       0082FA
__end_of_EUSART1_DefaultErrorHandler                      text208      009F6A
__end_of_EUSART1_DefaultFramingErrorHandler               text207      009FA0
__end_of_EUSART1_DefaultOverrunErrorHandler               text206      009F64
__end_of_EUSART1_Initialize                               text104      0087A8
__end_of_EUSART1_Read                                     text55       009434
__end_of_EUSART1_Receive_ISR                              text205      0080B4
__end_of_EUSART1_RxDataHandler                            text209      009C10
__end_of_EUSART1_SetErrorHandler                          text109      009EC6
__end_of_EUSART1_SetFramingErrorHandler                   text108      009EBC
__end_of_EUSART1_SetOverrunErrorHandler                   text107      009EB2
__end_of_EUSART1_SetRxInterruptHandler                    text106      009EA8
__end_of_EUSART1_SetTxInterruptHandler                    text105      009E9E
__end_of_EUSART1_Transmit_ISR                             text204      0097BC
__end_of_EUSART1_Write                                    text80       009584
__end_of_EUSART1_is_rx_ready                              text111      009E1A
__end_of_GetMotorPower                                    text128      007BFA
__end_of_GetOpenOrder                                     text50       006008
__end_of_GetSecurityStateInClosing                        text38       007F74
__end_of_GetSecurityStateInOpening                        text48       00801A
__end_of_HopCHK                                           text63       00849A
__end_of_I2C1_CallbackReturnReset                         text164      009F7E
__end_of_I2C1_CallbackReturnStop                          text165      009F82
__end_of_I2C1_Close                                       text182      009BEE
__end_of_I2C1_DO_ADDRESS_NACK                             text141      0093A2
__end_of_I2C1_DO_IDLE                                     text155      009EE4
__end_of_I2C1_DO_RCEN                                     text150      009EDA
__end_of_I2C1_DO_RESET                                    text142      009ED0
__end_of_I2C1_DO_RX                                       text151      00889E
__end_of_I2C1_DO_RX_ACK                                   text145      009F0C
__end_of_I2C1_DO_RX_NACK_RESTART                          text143      009EFC
__end_of_I2C1_DO_RX_NACK_STOP                             text144      009F04
__end_of_I2C1_DO_SEND_ADR_READ                            text154      009E54
__end_of_I2C1_DO_SEND_ADR_WRITE                           text153      009E46
__end_of_I2C1_DO_SEND_RESTART                             text147      009F1C
__end_of_I2C1_DO_SEND_RESTART_READ                        text149      009F2C
__end_of_I2C1_DO_SEND_RESTART_WRITE                       text148      009F24
__end_of_I2C1_DO_SEND_STOP                                text146      009F14
__end_of_I2C1_DO_TX                                       text152      008412
__end_of_I2C1_DO_TX_EMPTY                                 text156      008E9E
__end_of_I2C1_Initialize                                  text103      009DF8
__end_of_I2C1_MasterClearIrq                              text185      009F5E
__end_of_I2C1_MasterClose                                 text184      009F96
__end_of_I2C1_MasterDisableIrq                            text183      009F92
__end_of_I2C1_MasterEnableRestart                         text180      009F8A
__end_of_I2C1_MasterFsm                                   text140      009214
__end_of_I2C1_MasterGetRxData                             text161      009F76
__end_of_I2C1_MasterIsNack                                text158      009E60
__end_of_I2C1_MasterOpen                                  text135      009D62
__end_of_I2C1_MasterOperation                             text137      0098CA
__end_of_I2C1_MasterSendAck                               text160      009F52
__end_of_I2C1_MasterSendNack                              text162      009F58
__end_of_I2C1_MasterSendTxData                            text159      009F34
__end_of_I2C1_MasterSetIrq                                text157      009F4C
__end_of_I2C1_MasterStart                                 text181      009F8E
__end_of_I2C1_MasterStartRx                               text163      009F7A
__end_of_I2C1_MasterStop                                  text179      009F86
__end_of_I2C1_MasterWaitForEvent                          text139      009EF4
__end_of_I2C1_MasterWrite                                 text136      009EEC
__end_of_I2C1_Open                                        text134      008628
__end_of_I2C1_Poller                                      text138      009E2A
__end_of_I2C1_Read1ByteRegister                           text72       008FB2
__end_of_I2C1_SetAddressNackCallback                      text133      009D4A
__end_of_I2C1_SetBuffer                                   text178      009D02
__end_of_I2C1_SetCallback                                 text177      008CA4
__end_of_I2C1_SetDataCompleteCallback                     text176      009D7A
__end_of_INTERRUPT_Initialize                             text102      009F72
__end_of_INTERRUPT_InterruptManager                       intcode      00009C
__end_of_InitFullAutoTime                                 text42       009CCE
__end_of_InitReceiver                                     text5        009C9A
__end_of_InitSoftStart                                    text46       008F56
__end_of_InitSoftStop                                     text28       0093EC
__end_of_InitWalkAutoTime                                 text47       009DD0
__end_of_LoadManufCode                                    text61       009BAA
__end_of_NormalKeyGen                                     text60       0074A8
__end_of_OSCILLATOR_Initialize                            text101      009DA6
__end_of_OpenFullOrder                                    text41       009AF2
__end_of_OpenWalkOrder                                    text43       008C36
__end_of_PIN_MANAGER_Initialize                           text100      00814C
__end_of_PMD_Initialize                                   text99       009C64
__end_of_RGB_Set                                          text116      009E38
__end_of_ReadADC                                          text193      0091C0
__end_of_ReadSerial                                       text85       008BC8
__end_of_RemoveSerial                                     text84       00872A
__end_of_ReqResync                                        text65       009D90
__end_of_ResetDefaultMemory                               text71       006998
__end_of_SYSTEM_Initialize                                text91       00981A
__end_of_SaveNVM_VarSystem                                text130      0096F2
__end_of_Segments_Set                                     text189      009E6C
__end_of_SetSegmentValue                                  text90       009CE8
__end_of_SetSegmentValueIntermitent                       text49       009846
__end_of_SetSegmentValueIntermitentMain                   text52       009DE4
__end_of_SetSegmentValueLearn                             text15       0077AA
__end_of_SetSegmentValueMain                              text12       009CB4
__end_of_ShowVersion                                      text89       008DDE
__end_of_StopOrder                                        text37       009C2C
__end_of_TMR0_DefaultInterruptHandler                     text203      009F9E
__end_of_TMR0_ISR                                         text201      009B3E
__end_of_TMR0_Initialize                                  text97       009BCC
__end_of_TMR0_SetInterruptHandler                         text98       009E94
__end_of_TMR1_DefaultInterruptHandler                     text200      009F9C
__end_of_TMR1_ISR                                         text195      009644
__end_of_TMR1_Initialize                                  text95       009544
__end_of_TMR1_SetInterruptHandler                         text96       009E8A
__end_of_TMR1_WriteTimer                                  text199      009C80
__end_of_TMR2_DefaultInterruptHandler                     text192      009F9A
__end_of_TMR2_ISR                                         text187      006DE2
__end_of_TMR2_Initialize                                  text93       00989E
__end_of_TMR2_SetInterruptHandler                         text94       009E80
__end_of_VerifyElectricalBrake                            text113      008916
__end_of_VerifyFollowMe                                   text31       009B88
__end_of_WWDT_Initialize                                  text92       009E76
__end_of_WWDT_SoftEnable                                  text88       009F6E
__end_of_WWDT_TimerClear                                  text87       009C48
__end_of_WaitPreFlash                                     text40       008AE8
__end_of___awdiv                                          text11       0085A4
__end_of___lbdiv                                          text51       0096BA
__end_of___lbmod                                          text10       009A54
__end_of___lldiv                                          text16       0086AA
__end_of___lmul                                           text36       00916A
__end_of___lwdiv                                          text125      009266
__end_of___wmul                                           text127      009B18
__end_of__initialization                                  cinit        007E1A
__end_of_actionZone_Closed                                text39       007ECE
__end_of_actionZone_Closing                               text33       004F2C
__end_of_actionZone_Opened                                text30       005C6E
__end_of_actionZone_Opening                               text24       0053F6
__end_of_calculateMean                                    text23       008E40
__end_of_checkNVM_VarSystem                               text70       0061A8
__end_of_clearLearningValue                               text22       008824
__end_of_cmdMemoryIsEmpty                                 text83       0081DE
__end_of_confirmpackage                                   text81       00900C
__end_of_controlLearnDigit                                text14       0097EC
__end_of_controlMotorForce                                text196      005862
__end_of_controlSaveRemote                                text9        007D74
__end_of_controlSelectRemote                              text6        00433C
__end_of_controlTimeslots                                 text190      006678
__end_of_controlVelocity                                  text26       005A80
__end_of_decrementTimeslot                                text191      009A7E
__end_of_eusartparser                                     text74       0021CE
__end_of_generateErrorLearnig                             text19       008D78
__end_of_getCurrentComparator                             text126      0064DE
__end_of_getHopCode                                       text64       006F10
__end_of_getKeyPressed                                    text73       009D32
__end_of_getSerialCmd                                     text8        009354
__end_of_getStateOpenPosition                             text27       00739A
__end_of_getTimeDecelaration                              text35       00798C
__end_of_getTypeRemote                                    text7        009F40
__end_of_i2c1_fsmStateTable                               smallconst   000F21
__end_of_i2c_readDataBlock                                text86       008A04
__end_of_i2c_writeNBytes                                  text131      008A78
__end_of_init_package                                     text82       00978A
__end_of_keeloqDecryptPacket                              text57       005E40
__end_of_keeloq_classic_decrypt_packet                    text59       0090BE
__end_of_loadNVM_VarSystem                                text69       00703E
__end_of_load_New_Menu                                    text4        004CA0
__end_of_main                                             text0        006B20
__end_of_memcpy                                           text132      009502
__end_of_rd1RegCompleteHandler                            text173      0099D2
__end_of_rd1RegCompleteHandler@i2c1_master_example$F500   text169      00994E
__end_of_rd2RegCompleteHandler                            text172      0099A6
__end_of_rd2RegCompleteHandler@i2c1_master_example$F511   text168      009922
__end_of_rdBlkRegCompleteHandler                          text170      009604
__end_of_rdBlkRegCompleteHandler@i2c1_master_example$F535 text166      0095C4
__end_of_readInputs                                       text68       0075B0
__end_of_readRFButtons                                    text56       00680E
__end_of_read_eusartparser                                text78       002F72
__end_of_read_package                                     text54       0092B6
__end_of_readbutton                                       text53       008D10
__end_of_refreshADCZeroOffset                             text124      0076AE
__end_of_refreshCurrent                                   text120      00947A
__end_of_refreshSegment                                   text188      008520
__end_of_rxi                                              text202      0051A2
__end_of_saveEnergyADCHist                                text123      009AA6
__end_of_saveNewSerial                                    text77       008B58
__end_of_setFlashLigth_ON                                 text117      009680
__end_of_setPositionInvertionInClosing                    text34       007166
__end_of_setPositionInvertionInOpening                    text25       007A68
__end_of_setRGB_ON                                        text115      00826E
__end_of_setValueToEdit                                   text3        003A48
__end_of_sm_execute_ControlGate                           text17       004686
__end_of_sm_execute_ControlLearning                       text18       0028E6
__end_of_sm_execute_main                                  text1        003F5A
__end_of_sm_execute_menuConfiguration                     text2        00188A
__end_of_sm_get_current_state                             text45       009E0A
__end_of_sm_init                                          text20       009114
__end_of_sm_restart                                       text21       0094BE
__end_of_sm_send_event                                    text44       008EFA
__end_of_sumEnergyADC                                     text122      008386
__end_of_sumHIST                                          text121      0078A4
__end_of_validateRemoteSerialNumber                       text76       006344
__end_of_verifyProgramingMode                             text58       009726
__end_of_wr1RegCompleteHandler                            text174      0099FE
__end_of_wr1RegCompleteHandler@i2c1_master_example$F517   text167      0098F6
__end_of_wr2RegCompleteHandler                            text171      00997A
__end_of_wr2RegCompleteHandler@i2c1_master_example$F523   text175      009A2A
__end_of_write_eusartparser                               text75       003516
__end_of_write_package                                    text79       009872
__end_ofi2_GetMotorPower                                  text198      007CC0
__end_ofi2_VerifyElectricalBrake                          text197      00898E
__initialization                                          cinit        007D74
__mediumconst                                             mediumconst  000000
__pbssBANK0                                               bssBANK0     000060
__pbssBANK1                                               bssBANK1     000100
__pbssBANK2                                               bssBANK2     000200
__pbssBANK3                                               bssBANK3     000300
__pbssCOMRAM                                              bssCOMRAM    00003B
__pcinit                                                  cinit        007D74
__pcstackBANK0                                            cstackBANK0  0000D8
__pcstackBANK2                                            cstackBANK2  0002ED
__pcstackCOMRAM                                           cstackCOMRAM 000001
__pdataBANK0                                              dataBANK0    0000FC
__pdataBANK1                                              dataBANK1    0001FF
__pdataBANK2                                              dataBANK2    0002F4
__pdataBANK3                                              dataBANK3    0003D2
__pidataBANK0                                             idataBANK0   009F96
__pidataBANK1                                             idataBANK1   009FA0
__pidataBANK2                                             idataBANK2   009F34
__pidataBANK3                                             idataBANK3   009B3E
__pintcode                                                intcode      000008
__pnvBANK1                                                nvBANK1      0001FE
__pnvBANK2                                                nvBANK2      0002DB
__psmallconst                                             smallconst   000F00
__ptext0                                                  text0        006998
__ptext1                                                  text1        003A48
__ptext10                                                 text10       009A2A
__ptext100                                                text100      0080B4
__ptext101                                                text101      009D90
__ptext102                                                text102      009F6E
__ptext103                                                text103      009DE4
__ptext104                                                text104      00872A
__ptext105                                                text105      009E94
__ptext106                                                text106      009E9E
__ptext107                                                text107      009EA8
__ptext108                                                text108      009EB2
__ptext109                                                text109      009EBC
__ptext11                                                 text11       008520
__ptext110                                                text110      0092B6
__ptext111                                                text111      009E0A
__ptext112                                                text112      0053F6
__ptext113                                                text113      00889E
__ptext114                                                text114      004686
__ptext115                                                text115      0081DE
__ptext116                                                text116      009E2A
__ptext117                                                text117      009644
__ptext118                                                text118      007166
__ptext119                                                text119      006B20
__ptext12                                                 text12       009C9A
__ptext120                                                text120      009434
__ptext121                                                text121      0077AA
__ptext122                                                text122      0082FA
__ptext123                                                text123      009A7E
__ptext124                                                text124      0075B0
__ptext125                                                text125      009214
__ptext126                                                text126      006344
__ptext127                                                text127      009AF2
__ptext128                                                text128      007B34
__ptext129                                                text129      00900C
__ptext13                                                 text13       009F40
__ptext130                                                text130      0096BA
__ptext131                                                text131      008A04
__ptext132                                                text132      0094BE
__ptext133                                                text133      009D32
__ptext134                                                text134      0085A4
__ptext135                                                text135      009D4A
__ptext136                                                text136      009EE4
__ptext137                                                text137      00989E
__ptext138                                                text138      009E1A
__ptext139                                                text139      009EEC
__ptext14                                                 text14       0097BC
__ptext140                                                text140      0091C0
__ptext141                                                text141      009354
__ptext142                                                text142      009EC6
__ptext143                                                text143      009EF4
__ptext144                                                text144      009EFC
__ptext145                                                text145      009F04
__ptext146                                                text146      009F0C
__ptext147                                                text147      009F14
__ptext148                                                text148      009F1C
__ptext149                                                text149      009F24
__ptext15                                                 text15       0076AE
__ptext150                                                text150      009ED0
__ptext151                                                text151      008824
__ptext152                                                text152      008386
__ptext153                                                text153      009E38
__ptext154                                                text154      009E46
__ptext155                                                text155      009EDA
__ptext156                                                text156      008E40
__ptext157                                                text157      009F46
__ptext158                                                text158      009E54
__ptext159                                                text159      009F2C
__ptext16                                                 text16       008628
__ptext160                                                text160      009F4C
__ptext161                                                text161      009F72
__ptext162                                                text162      009F52
__ptext163                                                text163      009F76
__ptext164                                                text164      009F7A
__ptext165                                                text165      009F7E
__ptext166                                                text166      009584
__ptext167                                                text167      0098CA
__ptext168                                                text168      0098F6
__ptext169                                                text169      009922
__ptext17                                                 text17       00433C
__ptext170                                                text170      0095C4
__ptext171                                                text171      00994E
__ptext172                                                text172      00997A
__ptext173                                                text173      0099A6
__ptext174                                                text174      0099D2
__ptext175                                                text175      0099FE
__ptext176                                                text176      009D62
__ptext177                                                text177      008C36
__ptext178                                                text178      009CE8
__ptext179                                                text179      009F82
__ptext18                                                 text18       0021CE
__ptext180                                                text180      009F86
__ptext181                                                text181      009F8A
__ptext182                                                text182      009BCC
__ptext183                                                text183      009F8E
__ptext184                                                text184      009F92
__ptext185                                                text185      009F58
__ptext187                                                text187      006C94
__ptext188                                                text188      00849A
__ptext189                                                text189      009E60
__ptext19                                                 text19       008D10
__ptext190                                                text190      0064DE
__ptext191                                                text191      009A54
__ptext192                                                text192      009F98
__ptext193                                                text193      00916A
__ptext194                                                text194      009DA6
__ptext195                                                text195      009604
__ptext196                                                text196      005640
__ptext197                                                text197      008916
__ptext198                                                text198      007BFA
__ptext199                                                text199      009C64
__ptext2                                                  text2        000F22
__ptext20                                                 text20       0090BE
__ptext200                                                text200      009F9A
__ptext201                                                text201      009B18
__ptext202                                                text202      004F2C
__ptext203                                                text203      009F9C
__ptext204                                                text204      00978A
__ptext205                                                text205      00801A
__ptext206                                                text206      009F5E
__ptext207                                                text207      009F9E
__ptext208                                                text208      009F64
__ptext209                                                text209      009BEE
__ptext21                                                 text21       00947A
__ptext210                                                text210      000000
__ptext22                                                 text22       0087A8
__ptext23                                                 text23       008DDE
__ptext24                                                 text24       0051A2
__ptext25                                                 text25       00798C
__ptext26                                                 text26       005862
__ptext27                                                 text27       00728A
__ptext28                                                 text28       0093A2
__ptext29                                                 text29       009D02
__ptext3                                                  text3        003516
__ptext30                                                 text30       005A80
__ptext31                                                 text31       009B64
__ptext32                                                 text32       009AA6
__ptext33                                                 text33       004CA0
__ptext34                                                 text34       00703E
__ptext35                                                 text35       0078A4
__ptext36                                                 text36       009114
__ptext37                                                 text37       009C10
__ptext38                                                 text38       007ECE
__ptext39                                                 text39       007E24
__ptext4                                                  text4        0049AA
__ptext40                                                 text40       008A78
__ptext41                                                 text41       009ACC
__ptext42                                                 text42       009CB4
__ptext43                                                 text43       008BC8
__ptext44                                                 text44       008E9E
__ptext45                                                 text45       009DF8
__ptext46                                                 text46       008EFA
__ptext47                                                 text47       009DBC
__ptext48                                                 text48       007F74
__ptext49                                                 text49       00981A
__ptext5                                                  text5        009C80
__ptext50                                                 text50       005E40
__ptext51                                                 text51       009680
__ptext52                                                 text52       009DD0
__ptext53                                                 text53       008CA4
__ptext54                                                 text54       009266
__ptext55                                                 text55       0093EC
__ptext56                                                 text56       006678
__ptext57                                                 text57       005C6E
__ptext58                                                 text58       0096F2
__ptext59                                                 text59       009066
__ptext6                                                  text6        003F5A
__ptext60                                                 text60       00739A
__ptext61                                                 text61       009B88
__ptext62                                                 text62       007A68
__ptext63                                                 text63       008412
__ptext64                                                 text64       006DE2
__ptext65                                                 text65       009D7A
__ptext66                                                 text66       009726
__ptext67                                                 text67       00826E
__ptext68                                                 text68       0074A8
__ptext69                                                 text69       006F10
__ptext7                                                  text7        009F3A
__ptext70                                                 text70       006008
__ptext71                                                 text71       00680E
__ptext72                                                 text72       008F56
__ptext73                                                 text73       009D1A
__ptext74                                                 text74       00188A
__ptext75                                                 text75       002F72
__ptext76                                                 text76       0061A8
__ptext77                                                 text77       008AE8
__ptext78                                                 text78       0028E6
__ptext79                                                 text79       009846
__ptext8                                                  text8        009306
__ptext80                                                 text80       009544
__ptext81                                                 text81       008FB2
__ptext82                                                 text82       009758
__ptext83                                                 text83       00814C
__ptext84                                                 text84       0086AA
__ptext85                                                 text85       008B58
__ptext86                                                 text86       00898E
__ptext87                                                 text87       009C2C
__ptext88                                                 text88       009F6A
__ptext89                                                 text89       008D78
__ptext9                                                  text9        007CC0
__ptext90                                                 text90       009CCE
__ptext91                                                 text91       0097EC
__ptext92                                                 text92       009E6C
__ptext93                                                 text93       009872
__ptext94                                                 text94       009E76
__ptext95                                                 text95       009502
__ptext96                                                 text96       009E80
__ptext97                                                 text97       009BAA
__ptext98                                                 text98       009E8A
__ptext99                                                 text99       009C48
__ramtop                                                  ramtop       000F00
__smallconst                                              smallconst   000F00
_actionZone_Closed                                        text39       007E24
_actionZone_Closing                                       text33       004CA0
_actionZone_Opened                                        text30       005A80
_actionZone_Opening                                       text24       0051A2
_auxCounter                                               dataBANK0    0000FC
_aux_i                                                    bssBANK1     000191
_aux_in_auto_close                                        bssBANK1     000190
_brakeElectric_st                                         bssBANK0     000078
_button_struct                                            bssCOMRAM    00004C
_calculateMean                                            text23       008DDE
_checkNVM_VarSystem                                       text70       006008
_classic_data                                             bssBANK2     000290
_clearLearningValue                                       text22       0087A8
_cmdMemoryIsEmpty                                         text83       00814C
_confirmpackage                                           text81       008FB2
_controlGate_stateMachine                                 bssBANK1     0001E7
_controlLearnDigit                                        text14       0097BC
_controlLearning_stateMachine                             bssBANK2     0002B0
_controlMotorForce                                        text196      005640
_controlSaveRemote                                        text9        007CC0
_controlSelectRemote                                      text6        003F5A
_controlTimeslots                                         text190      0064DE
_controlVelocity                                          text26       005862
_control_limit_switch                                     bssBANK0     000081
_decrementTimeslot                                        text191      009A54
_difTime                                                  bssBANK1     000194
_dispStruct                                               bssBANK0     000072
_edit_Param                                               bssCOMRAM    000046
_erroranterior                                            bssBANK1     00018D
_eusart1RxBuffer                                          bssBANK2     00027C
_eusart1RxCount                                           bssBANK0     000093
_eusart1RxHead                                            bssBANK0     000095
_eusart1RxLastError                                       bssBANK1     00019E
_eusart1RxStatusBuffer                                    bssBANK2     000274
_eusart1RxTail                                            bssBANK0     000094
_eusart1TxBuffer                                          bssBANK2     000284
_eusart1TxBufferRemaining                                 nvBANK1      0001FE
_eusart1TxHead                                            bssBANK0     000097
_eusart1TxTail                                            bssBANK0     000096
_eusartparser                                             text74       00188A
_fimdecurso                                               bssBANK1     000175
_firstselectflag                                          dataBANK1    0001FF
_fullmotorPower                                           bssBANK0     000082
_generateErrorLearnig                                     text19       008D10
_getCurrentComparator                                     text126      006344
_getHopCode                                               text64       006DE2
_getKeyPressed                                            text73       009D1A
_getSerialCmd                                             text8        009306
_getStateOpenPosition                                     text27       00728A
_getTimeDecelaration                                      text35       0078A4
_getTypeRemote                                            text7        009F3A
_i2c1_fsmStateTable                                       smallconst   000F01
_i2c_readDataBlock                                        text86       00898E
_i2c_writeNBytes                                          text131      008A04
_idxAdcAquisition                                         bssBANK0     000091
_idxAdcZeroAquisition                                     bssBANK0     00008F
_idxSaveEnergyADCHist                                     bssBANK0     000090
_init_package                                             text82       009758
_keeloqDecryptPacket                                      text57       005C6E
_keeloq_classic_decrypt_packet                            text59       009066
_lastKey                                                  bssBANK1     000199
_learn_st                                                 bssBANK0     000060
_listSyncValues                                           bssBANK3     000300
_loadNVM_VarSystem                                        text69       006F10
_load_New_Menu                                            text4        0049AA
_main                                                     text0        006998
_main_stateMachine                                        bssBANK1     0001F2
_memcpy                                                   text132      0094BE
_memoryTEMP                                               bssBANK2     0002A0
_menuConfiguration_stateMachine                           bssBANK2     0002BB
_menu_st                                                  bssBANK1     000151
_numberOfErrorCurrent                                     bssBANK0     00008E
_pointSync                                                bssBANK0     00007A
_powerControl_st                                          bssBANK1     00017B
_programmer_enable                                        bssBANK0     000085
_rd1RegCompleteHandler                                    text173      0099A6
_rd1RegCompleteHandler@i2c1_master_example$F500           text169      009922
_rd2RegCompleteHandler                                    text172      00997A
_rd2RegCompleteHandler@i2c1_master_example$F511           text168      0098F6
_rdBlkRegCompleteHandler                                  text170      0095C4
_rdBlkRegCompleteHandler@i2c1_master_example$F535         text166      009584
_readInputs                                               text68       0074A8
_readRFButtons                                            text56       006678
_read_eusartparser                                        text78       0028E6
_read_package                                             text54       009266
_readbutton                                               text53       008CA4
_refreshADCZeroOffset                                     text124      0075B0
_refreshCurrent                                           text120      009434
_refreshSegment                                           text188      00849A
_rfCMD                                                    bssCOMRAM    00003B
_rxi                                                      text202      004F2C
_saveEnergyADCHist                                        text123      009A7E
_saveNewSerial                                            text77       008AE8
_security                                                 bssBANK1     00016A
_setFlashLigth_ON                                         text117      009644
_setPositionInvertionInClosing                            text34       00703E
_setPositionInvertionInOpening                            text25       00798C
_setRGB_ON                                                text115      0081DE
_setValueToEdit                                           text3        003516
_sm_execute_ControlGate                                   text17       00433C
_sm_execute_ControlLearning                               text18       0021CE
_sm_execute_main                                          text1        003A48
_sm_execute_menuConfiguration                             text2        000F22
_sm_get_current_state                                     text45       009DF8
_sm_init                                                  text20       0090BE
_sm_restart                                               text21       00947A
_sm_send_event                                            text44       008E9E
_stateMotor                                               bssBANK0     000083
_sumEnergyADC                                             text122      0082FA
_sumHIST                                                  text121      0077AA
_temp                                                     bssBANK0     000080
_tempCounter                                              dataBANK2    0002F4
_temppower                                                bssBANK1     000193
_timer0ReloadVal16bit                                     bssBANK2     00028E
_timer1ReloadVal                                          nvBANK2      0002DF
_ts_system                                                bssBANK1     00019F
_validateRemoteSerialNumber                               text76       0061A8
_var_sys                                                  bssBANK1     000100
_var_sys_NVM                                              bssBANK0     000098
_verifyProgramingMode                                     text58       0096F2
_waitZeroPeak                                             bssBANK1     000196
_wr1RegCompleteHandler                                    text174      0099D2
_wr1RegCompleteHandler@i2c1_master_example$F517           text167      0098CA
_wr2RegCompleteHandler                                    text171      00994E
_wr2RegCompleteHandler@i2c1_master_example$F523           text175      0099FE
_write_eusartparser                                       text75       002F72
_write_package                                            text79       009846
_zeroCrossing                                             bssBANK1     000197
_zeroCrossingLength                                       bssBANK1     000198
_zeroCrossingWaitTime                                     dataBANK2    0002F8
_zeroCrossingWaitTimeIdx                                  bssBANK0     000084
actionZone_Closed@securityOpening                         cstackCOMRAM 000020
actionZone_Closed@typeOpenOrder                           cstackCOMRAM 000021
actionZone_Closing@securityClosing                        cstackCOMRAM 000032
actionZone_Closing@typeOpenOrder                          cstackCOMRAM 000033
actionZone_Opened@securityClosing                         cstackCOMRAM 000020
actionZone_Opened@typeOpenOrder                           cstackCOMRAM 000021
actionZone_Opening@securityClosing                        cstackBANK0  0000E4
actionZone_Opening@securityOpening                        cstackBANK0  0000E5
actionZone_Opening@typeOpenOrder                          cstackBANK0  0000E6
btemp                                                     temp         000050
calculateMean@meanValue                                   cstackCOMRAM 000010
calculateMean@newValue                                    cstackCOMRAM 000014
checkNVM_VarSystem@saveParam                              cstackCOMRAM 00003A
cmdMemoryIsEmpty@cmdType                                  cstackCOMRAM 000031
cmdMemoryIsEmpty@position                                 cstackCOMRAM 00002E
cmdMemoryIsEmpty@tempSerial                               cstackCOMRAM 000032
confirmpackage@confirm                                    cstackCOMRAM 000014
confirmpackage@package                                    cstackCOMRAM 000012
controlSelectRemote@pos                                   cstackBANK0  0000E2
controlSelectRemote@temp                                  cstackBANK0  0000E8
controlSelectRemote@tempSerial                            cstackBANK0  0000E4
controlSelectRemote@typeRemote                            cstackBANK0  0000E3
controlSelectRemote@validSerial                           cstackBANK0  0000E1
decrementTimeslot@ts                                      cstackCOMRAM 000001
end_of_initialization                                     cinit        007E1A
eusartparser@buffer                                       bssBANK1     000185
eusartparser@i                                            cstackBANK0  0000E8
eusartparser@i_7373                                       cstackBANK0  0000E9
eusartparser@i_7374                                       cstackBANK0  0000ED
eusartparser@i_7375                                       cstackBANK0  0000EE
eusartparser@i_7376                                       cstackBANK0  0000F1
eusartparser@i_7377                                       cstackBANK0  0000F2
eusartparser@i_7378                                       cstackBANK0  0000F3
eusartparser@i_7380                                       cstackBANK0  0000EA
eusartparser@i_7381                                       cstackBANK0  0000EB
eusartparser@i_7382                                       cstackBANK0  0000EF
eusartparser@i_7383                                       cstackBANK0  0000F0
eusartparser@i_7384                                       cstackBANK0  0000F4
eusartparser@i_7385                                       cstackBANK0  0000F5
eusartparser@i_7386                                       cstackBANK0  0000F6
eusartparser@package                                      cstackBANK0  0000E0
eusartparser@pos                                          cstackBANK0  0000EC
eusartparser@relcounter                                   cstackBANK0  0000F7
eusartparser@save_f                                       bssBANK1     00018F
eusartparser@serial                                       cstackBANK0  0000F8
getCurrentComparator@tempOffset                           cstackCOMRAM 000020
getCurrentComparator@x                                    cstackCOMRAM 000022
getHopCode@data                                           cstackCOMRAM 000016
getHopCode@i                                              cstackCOMRAM 000023
getHopCode@tempHop                                        cstackCOMRAM 000020
getHopCode@tempPos                                        cstackCOMRAM 000022
getKeyPressed@temp                                        cstackCOMRAM 000010
getSerialCmd@serial                                       cstackCOMRAM 00001B
getSerialCmd@temp                                         cstackCOMRAM 00001C
getStateOpenPosition@state                                cstackBANK0  0000D8
getStateOpenPosition@stateMotor                           cstackBANK0  0000D9
getTimeDecelaration@state                                 cstackCOMRAM 000031
i2GetMotorPower@defineatraso                              cstackCOMRAM 000004
i2VerifyElectricalBrake@actualState                       cstackCOMRAM 000002
i2VerifyElectricalBrake@tempState                         cstackCOMRAM 000001
i2_GetMotorPower                                          text198      007BFA
i2_VerifyElectricalBrake                                  text197      008916
i2c_readDataBlock@address                                 cstackCOMRAM 000029
i2c_readDataBlock@d                                       cstackCOMRAM 00002A
i2c_readDataBlock@data                                    cstackCOMRAM 000024
i2c_readDataBlock@len                                     cstackCOMRAM 000026
i2c_readDataBlock@reg                                     cstackCOMRAM 000022
i2c_writeNBytes@address                                   cstackCOMRAM 000039
i2c_writeNBytes@dat                                       cstackCOMRAM 000028
i2c_writeNBytes@data                                      cstackCOMRAM 000024
i2c_writeNBytes@len                                       cstackCOMRAM 000025
i2c_writeNBytes@reg                                       cstackCOMRAM 000022
init_package@package                                      cstackCOMRAM 000010
int$flags                                                 temp         000050
intlevel0                                                 text         000000
intlevel1                                                 text         000000
intlevel2                                                 text         000000
intlevel3                                                 text         000000
isa$std                                                   (abs)        000001
isa$xinst                                                 (abs)        000000
keeloqDecryptPacket@classic_data                          cstackBANK0  0000E2
keeloqDecryptPacket@commandType                           cstackBANK0  0000E9
keeloqDecryptPacket@data                                  cstackBANK0  0000E0
keeloqDecryptPacket@hop_error                             cstackBANK0  0000E8
keeloq_classic_decrypt_packet@data                        cstackCOMRAM 000038
load_New_Menu@Menu                                        cstackCOMRAM 000022
load_New_Menu@i                                           cstackCOMRAM 000023
main@package                                              cstackBANK2  0002ED
memcpy@d                                                  cstackCOMRAM 000017
memcpy@d1                                                 cstackCOMRAM 000010
memcpy@n                                                  cstackCOMRAM 000014
memcpy@s                                                  cstackCOMRAM 000019
memcpy@s1                                                 cstackCOMRAM 000012
memcpy@tmp                                                cstackCOMRAM 000016
rd1RegCompleteHandler@i2c1_master_example$F500@ptr        cstackCOMRAM 000019
rd1RegCompleteHandler@p                                   cstackCOMRAM 000019
rd2RegCompleteHandler@i2c1_master_example$F511@ptr        cstackCOMRAM 000019
rd2RegCompleteHandler@p                                   cstackCOMRAM 000019
rdBlkRegCompleteHandler@i2c1_master_example$F535@ptr      cstackCOMRAM 000019
rdBlkRegCompleteHandler@p                                 cstackCOMRAM 000019
readRFButtons@key1                                        bssBANK0     000088
readRFButtons@keyType                                     bssBANK0     000087
readRFButtons@rollingCode                                 bssBANK1     000189
readRFButtons@serial                                      bssBANK1     000181
readRFButtons@typeRemote                                  bssBANK1     00019C
read_eusartparser@package                                 cstackCOMRAM 000018
read_package@package                                      cstackCOMRAM 000018
readbutton@key1                                           bssBANK0     000086
readbutton@key2                                           bssBANK1     00019B
refreshADCZeroOffset@i                                    cstackCOMRAM 000017
refreshADCZeroOffset@media                                cstackCOMRAM 000018
saveEnergyADCHist@valueToSave                             cstackCOMRAM 000010
saveNewSerial@cmdType                                     cstackCOMRAM 00003A
saveNewSerial@position                                    cstackBANK0  0000DC
saveNewSerial@tempSerial                                  cstackBANK0  0000D8
setFlashLigth_ON@Freq                                     cstackCOMRAM 000010
setRGB_ON@Freq                                            cstackCOMRAM 000011
setRGB_ON@RGBLigth                                        cstackCOMRAM 000015
setValueToEdit@ParameterSelected                          cstackCOMRAM 00003A
setValueToEdit@haveValueToEdit                            cstackBANK0  0000E1
setValueToEdit@menuType                                   cstackBANK0  0000DE
setValueToEdit@posindex                                   cstackBANK0  0000DF
setValueToEdit@posindex_6979                              cstackBANK0  0000E0
setValueToEdit@value                                      bssBANK1     0001FD
sm_execute_ControlGate@psm                                cstackBANK0  0000E7
sm_execute_ControlGate@typeOpenOrder                      cstackBANK0  0000EB
sm_execute_ControlLearning@psm                            cstackBANK0  0000DC
sm_execute_ControlLearning@typeOpenOrder                  cstackCOMRAM 00003A
sm_execute_main@psm                                       cstackBANK0  0000ED
sm_execute_menuConfiguration@psm                          cstackBANK0  0000E9
sm_get_current_state@psm                                  cstackCOMRAM 000010
sm_init@hist_mode                                         cstackCOMRAM 000016
sm_init@initial_state                                     cstackCOMRAM 000014
sm_init@psm                                               cstackCOMRAM 000012
sm_restart@psm                                            cstackCOMRAM 000010
sm_send_event@event                                       cstackCOMRAM 000014
sm_send_event@psm                                         cstackCOMRAM 000012
stackhi                                                   (abs)        000000
stacklo                                                   (abs)        000000
start                                                     init         00009C
start_initialization                                      cinit        007D74
sumEnergyADC@auxValue                                     cstackCOMRAM 000016
sumEnergyADC@i                                            cstackCOMRAM 000018
sumEnergyADC@sumE                                         cstackCOMRAM 000014
sumHIST@i                                                 cstackCOMRAM 000020
sumHIST@max                                               cstackCOMRAM 000018
sumHIST@min                                               cstackCOMRAM 00001A
sumHIST@sumH                                              cstackCOMRAM 00001C
ttemp5                                                    temp         000051
ttemp6                                                    temp         000054
ttemp7                                                    temp         000058
validateRemoteSerialNumber@VerifyOnlySerial               cstackCOMRAM 000032
validateRemoteSerialNumber@i                              cstackCOMRAM 00003A
validateRemoteSerialNumber@j                              cstackCOMRAM 000039
validateRemoteSerialNumber@mask                           cstackCOMRAM 000035
validateRemoteSerialNumber@position                       cstackCOMRAM 000033
validateRemoteSerialNumber@serial                         cstackCOMRAM 00002E
verifyProgramingMode@classic_data                         cstackCOMRAM 000010
wr1RegCompleteHandler@i2c1_master_example$F517@ptr        cstackCOMRAM 000019
wr1RegCompleteHandler@p                                   cstackCOMRAM 000019
wr2RegCompleteHandler@i2c1_master_example$F523@ptr        cstackCOMRAM 000019
wr2RegCompleteHandler@p                                   cstackCOMRAM 000019
write_eusartparser@debug                                  cstackCOMRAM 00001F
write_eusartparser@debug2                                 cstackCOMRAM 000021
write_eusartparser@package                                cstackCOMRAM 000010
write_package@package                                     cstackCOMRAM 000011
wtemp8                                                    temp         000051


MODULE INFORMATION

Module		Function		Class		Link	Load	Size
controlMemory_MC50.c
		_SaveNVM_VarSystem		CODE           	96BA	0000	56
		_validateRemoteSerialNumber		CODE           	61A8	0000	412
		_checkNVM_VarSystem		CODE           	6008	0000	416
		_saveNewSerial 		CODE           	8AE8	0000	112
		_ReadSerial    		CODE           	8B58	0000	112
		_ControlCounterMoves		CODE           	900C	0000	90
		_ResetDefaultMemory		CODE           	680E	0000	394
		_RemoveSerial  		CODE           	86AA	0000	128
		_loadNVM_VarSystem		CODE           	6F10	0000	302
		_cmdMemoryIsEmpty		CODE           	814C	0000	146

controlMemory_MC50.c estimated size: 2168

sm_ControlGate_MC50.c
		_setPositionInvertionInOpening		CODE           	798C	0000	220
		_WaitPreFlash  		CODE           	8A78	0000	112
		_actionZone_Opened		CODE           	5A80	0000	494
		_actionZone_Closed		CODE           	7E24	0000	170
		_InitFullAutoTime		CODE           	9CB4	0000	26
		_InitSoftStop  		CODE           	93A2	0000	74
		_InitWalkAutoTime		CODE           	9DBC	0000	20
		_StopOrder     		CODE           	9C10	0000	28
		_InitSoftStart 		CODE           	8EFA	0000	92
		_actionZone_Opening		CODE           	51A2	0000	596
		_actionZone_Closing		CODE           	4CA0	0000	652
		_VerifyFollowMe		CODE           	9B64	0000	36
		_sm_execute_ControlGate		CODE           	433C	0000	842
		_CloseOrder    		CODE           	9AA6	0000	38
		_setPositionInvertionInClosing		CODE           	703E	0000	296
		_OpenFullOrder 		CODE           	9ACC	0000	38
		_OpenWalkOrder 		CODE           	8BC8	0000	110

sm_ControlGate_MC50.c estimated size: 3844

mcc_generated_files/examples/i2c1_master_example.c
		_rdBlkRegCompleteHandler@i2c1_master_example$F535		CODE           	9584	0000	64
		_rd1RegCompleteHandler@i2c1_master_example$F500		CODE           	9922	0000	44
		_rd2RegCompleteHandler@i2c1_master_example$F511		CODE           	98F6	0000	44
		_wr1RegCompleteHandler@i2c1_master_example$F517		CODE           	98CA	0000	44
		_wr2RegCompleteHandler@i2c1_master_example$F523		CODE           	99FE	0000	44
		_I2C1_Read1ByteRegister		CODE           	8F56	0000	92

mcc_generated_files/examples/i2c1_master_example.c estimated size: 332

controlCurrent_MC50.c
		_refreshADCZeroOffset		CODE           	75B0	0000	254
		_getCurrentComparator		CODE           	6344	0000	410
		_ControlCurrent		CODE           	6B20	0000	372
		_refreshCurrent		CODE           	9434	0000	70
		_ReadADC       		CODE           	916A	0000	86
		_sumEnergyADC  		CODE           	82FA	0000	140
		_sumHIST       		CODE           	77AA	0000	250
		_saveEnergyADCHist		CODE           	9A7E	0000	40

controlCurrent_MC50.c estimated size: 1622

sm_Main_MC50.c
		_sm_execute_main		CODE           	3A48	0000	1298

sm_Main_MC50.c estimated size: 1298

outputs_MC50.c
		_getTimeDecelaration		CODE           	78A4	0000	232
		_Segments_Set  		CODE           	9E60	0000	12
		_ControlMotor  		CODE           	53F6	0000	586
		_SetSegmentValueMain		CODE           	9C9A	0000	26
		_GetMotorPower 		CODE           	7B34	0000	198
		_ControlLights 		CODE           	4686	0000	804
		_RGB_Set       		CODE           	9E2A	0000	14
		_refreshSegment		CODE           	849A	0000	134
		_setFlashLigth_ON		CODE           	9644	0000	60
		_getStateOpenPosition		CODE           	728A	0000	272
		_controlMotorForce		CODE           	5640	0000	546
		_SetSegmentValueIntermitent		CODE           	981A	0000	44
		_SetSegmentValueLearn		CODE           	76AE	0000	252
		_SetSegmentValue		CODE           	9CCE	0000	26
		_VerifyElectricalBrake		CODE           	889E	0000	120
		_SetSegmentValueIntermitentMain		CODE           	9DD0	0000	20
		_setRGB_ON     		CODE           	81DE	0000	144
		_controlVelocity		CODE           	5862	0000	542
		_ControlDecelarationFactor		CODE           	9D02	0000	24

outputs_MC50.c estimated size: 4056

mcc_generated_files/i2c1_master.c
		_I2C1_DO_SEND_RESTART		CODE           	9F14	0000	8
		_I2C1_DO_TX_EMPTY		CODE           	8E40	0000	94
		_I2C1_DO_SEND_RESTART_READ		CODE           	9F24	0000	8
		_I2C1_CallbackReturnStop		CODE           	9F7E	0000	4
		_I2C1_DO_RX    		CODE           	8824	0000	122
		_I2C1_DO_TX    		CODE           	8386	0000	140
		_I2C1_SetAddressNackCallback		CODE           	9D32	0000	24
		_I2C1_DO_IDLE  		CODE           	9EDA	0000	10
		_I2C1_MasterOpen		CODE           	9D4A	0000	24
		_I2C1_DO_RCEN  		CODE           	9ED0	0000	10
		_I2C1_MasterSendTxData		CODE           	9F2C	0000	8
		_I2C1_MasterStop		CODE           	9F82	0000	4
		_I2C1_CallbackReturnReset		CODE           	9F7A	0000	4
		_I2C1_DO_RESET 		CODE           	9EC6	0000	10
		_I2C1_MasterStartRx		CODE           	9F76	0000	4
		_I2C1_Poller   		CODE           	9E1A	0000	16
		_I2C1_DO_RX_ACK		CODE           	9F04	0000	8
		_I2C1_MasterWaitForEvent		CODE           	9EEC	0000	8
		_I2C1_MasterSendNack		CODE           	9F52	0000	6
		_I2C1_DO_RX_NACK_RESTART		CODE           	9EF4	0000	8
		_I2C1_MasterDisableIrq		CODE           	9F8E	0000	4
		_I2C1_MasterOperation		CODE           	989E	0000	44
		_I2C1_SetCallback		CODE           	8C36	0000	110
		_I2C1_MasterEnableRestart		CODE           	9F86	0000	4
		_I2C1_Open     		CODE           	85A4	0000	132
		_I2C1_DO_ADDRESS_NACK		CODE           	9354	0000	78
		_I2C1_SetBuffer		CODE           	9CE8	0000	26
		_I2C1_DO_SEND_RESTART_WRITE		CODE           	9F1C	0000	8
		_I2C1_MasterClose		CODE           	9F92	0000	4
		_I2C1_MasterWrite		CODE           	9EE4	0000	8
		_I2C1_Initialize		CODE           	9DE4	0000	20
		_I2C1_Close    		CODE           	9BCC	0000	34
		_I2C1_MasterIsNack		CODE           	9E54	0000	12
		_I2C1_MasterStart		CODE           	9F8A	0000	4
		_I2C1_DO_SEND_ADR_WRITE		CODE           	9E38	0000	14
		_I2C1_MasterClearIrq		CODE           	9F58	0000	6
		_I2C1_SetDataCompleteCallback		CODE           	9D62	0000	24
		_I2C1_DO_SEND_STOP		CODE           	9F0C	0000	8
		_I2C1_MasterSendAck		CODE           	9F4C	0000	6
		_I2C1_MasterFsm		CODE           	91C0	0000	84
		_I2C1_MasterGetRxData		CODE           	9F72	0000	4
		_I2C1_MasterSetIrq		CODE           	9F46	0000	6
		_I2C1_DO_SEND_ADR_READ		CODE           	9E46	0000	14
		_I2C1_DO_RX_NACK_STOP		CODE           	9EFC	0000	8

mcc_generated_files/i2c1_master.c estimated size: 1182

eusartparser.c
		_read_eusartparser		CODE           	28E6	0000	1676
		_confirmpackage		CODE           	8FB2	0000	90
		_write_eusartparser		CODE           	2F72	0000	1444
		_eusartparser  		CODE           	188A	0000	2372

eusartparser.c estimated size: 5582

mcc_generated_files/tmr2.c
		_TMR2_ISR      		CODE           	6C94	0000	334
		_TMR2_Initialize		CODE           	9872	0000	44
		_TMR2_SetInterruptHandler		CODE           	9E76	0000	10
		_TMR2_DefaultInterruptHandler		CODE           	9F98	0000	2

mcc_generated_files/tmr2.c estimated size: 390

mcc_generated_files/interrupt_manager.c
		_INTERRUPT_Initialize		CODE           	9F6E	0000	4
		_INTERRUPT_InterruptManager		CODE           	0008	0000	148

mcc_generated_files/interrupt_manager.c estimated size: 152

C:\Program Files\Microchip\xc8\v2.36\pic\sources\c99\common\Umul32.c
		___lmul        		CODE           	9114	0000	86

C:\Program Files\Microchip\xc8\v2.36\pic\sources\c99\common\Umul32.c estimated size: 86

inputs_MC50.c
		_ControlInputs 		CODE           	7166	0000	292
		_readbutton    		CODE           	8CA4	0000	108
		_ClearFlag_rfCMD		CODE           	9F40	0000	6
		_getSerialCmd  		CODE           	9306	0000	78
		_rxi           		CODE           	4F2C	0000	630
		_GetSecurityStateInClosing		CODE           	7ECE	0000	166
		_getTypeRemote 		CODE           	9F3A	0000	6
		_GetOpenOrder  		CODE           	5E40	0000	456
		_readInputs    		CODE           	74A8	0000	264
		_InitReceiver  		CODE           	9C80	0000	26
		_GetSecurityStateInOpening		CODE           	7F74	0000	166
		_getKeyPressed 		CODE           	9D1A	0000	24
		_readRFButtons 		CODE           	6678	0000	406

inputs_MC50.c estimated size: 2628

mcc_generated_files/tmr0.c
		_TMR0_SetInterruptHandler		CODE           	9E8A	0000	10
		_TMR0_DefaultInterruptHandler		CODE           	9F9C	0000	2
		_TMR0_ISR      		CODE           	9B18	0000	38
		_TMR0_Initialize		CODE           	9BAA	0000	34

mcc_generated_files/tmr0.c estimated size: 84

sm_MenuConfiguration_MC50.c
		_load_New_Menu 		CODE           	49AA	0000	758
		_sm_execute_menuConfiguration		CODE           	0F22	0000	2408
		_controlSelectRemote		CODE           	3F5A	0000	994
		_setValueToEdit		CODE           	3516	0000	1330
		_controlSaveRemote		CODE           	7CC0	0000	180
		_controlLearnDigit		CODE           	97BC	0000	48

sm_MenuConfiguration_MC50.c estimated size: 5718

mcc_generated_files/pin_manager.c
		_PIN_MANAGER_Initialize		CODE           	80B4	0000	152

mcc_generated_files/pin_manager.c estimated size: 152

main_MC50.c
		_decrementTimeslot		CODE           	9A54	0000	42
		_ShowVersion   		CODE           	8D78	0000	102
		_main          		CODE           	6998	0000	392
		_controlTimeslots		CODE           	64DE	0000	410

main_MC50.c estimated size: 946

C:\Program Files\Microchip\xc8\v2.36\pic\sources\c99\common\__lldiv.c
		___lldiv       		CODE           	8628	0000	130

C:\Program Files\Microchip\xc8\v2.36\pic\sources\c99\common\__lldiv.c estimated size: 130

mcc_generated_files/drivers/i2c_simple_master.c
		_i2c_readDataBlock		CODE           	898E	0000	118
		_wr1RegCompleteHandler		CODE           	99D2	0000	44
		_wr2RegCompleteHandler		CODE           	994E	0000	44
		_i2c_writeNBytes		CODE           	8A04	0000	116
		_rdBlkRegCompleteHandler		CODE           	95C4	0000	64
		_rd1RegCompleteHandler		CODE           	99A6	0000	44
		_rd2RegCompleteHandler		CODE           	997A	0000	44

mcc_generated_files/drivers/i2c_simple_master.c estimated size: 474

C:\Program Files\Microchip\xc8\v2.36\pic\sources\c99\common\lwdiv.c
		___lwdiv       		CODE           	9214	0000	82

C:\Program Files\Microchip\xc8\v2.36\pic\sources\c99\common\lwdiv.c estimated size: 82

C:\Program Files\Microchip\xc8\v2.36\pic\sources\c99\common\awdiv.c
		___awdiv       		CODE           	8520	0000	132

C:\Program Files\Microchip\xc8\v2.36\pic\sources\c99\common\awdiv.c estimated size: 132

C:\Program Files\Microchip\xc8\v2.36\pic\sources\c99\common\lbmod.c
		___lbmod       		CODE           	9A2A	0000	42

C:\Program Files\Microchip\xc8\v2.36\pic\sources\c99\common\lbmod.c estimated size: 42

shared
		i2_VerifyElectricalBrake		CODE           	8916	0000	120
		__initialization		CODE           	7D74	0000	166
		_i2c1_fsmStateTable		SMALLCONST     	0F01	0000	32
		i2_GetMotorPower		CODE           	7BFA	0000	198

shared estimated size: 516

mcc_generated_files/eusart1.c
		_EUSART1_SetRxInterruptHandler		CODE           	9E9E	0000	10
		_EUSART1_SetTxInterruptHandler		CODE           	9E94	0000	10
		_EUSART1_is_rx_ready		CODE           	9E0A	0000	16
		_EUSART1_Initialize		CODE           	872A	0000	126
		_EUSART1_DefaultErrorHandler		CODE           	9F64	0000	6
		_EUSART1_SetFramingErrorHandler		CODE           	9EB2	0000	10
		_EUSART1_Read  		CODE           	93EC	0000	72
		_EUSART1_SetOverrunErrorHandler		CODE           	9EA8	0000	10
		_EUSART1_SetErrorHandler		CODE           	9EBC	0000	10
		_EUSART1_Write 		CODE           	9544	0000	64
		_EUSART1_Receive_ISR		CODE           	801A	0000	154
		_EUSART1_RxDataHandler		CODE           	9BEE	0000	34
		_EUSART1_DefaultOverrunErrorHandler		CODE           	9F5E	0000	6
		_EUSART1_Transmit_ISR		CODE           	978A	0000	50
		_EUSART1_DefaultFramingErrorHandler		CODE           	9F9E	0000	2

mcc_generated_files/eusart1.c estimated size: 580

mcc_generated_files/mcc.c
		_WWDT_TimerClear		CODE           	9C2C	0000	28
		_PMD_Initialize		CODE           	9C48	0000	28
		_OSCILLATOR_Initialize		CODE           	9D90	0000	22
		_SYSTEM_Initialize		CODE           	97EC	0000	46
		_WWDT_Initialize		CODE           	9E6C	0000	10
		_WWDT_SoftEnable		CODE           	9F6A	0000	4

mcc_generated_files/mcc.c estimated size: 138

sm_common_MC50.c
		_sm_restart    		CODE           	947A	0000	68
		_sm_get_current_state		CODE           	9DF8	0000	18
		_sm_init       		CODE           	90BE	0000	86
		_sm_send_event 		CODE           	8E9E	0000	92

sm_common_MC50.c estimated size: 264

mcc_generated_files/tmr1.c
		_TMR1_Initialize		CODE           	9502	0000	66
		_TMR1_SetInterruptHandler		CODE           	9E80	0000	10
		_TMR1_DefaultInterruptHandler		CODE           	9F9A	0000	2
		_TMR1_WriteTimer		CODE           	9C64	0000	28
		_TMR1_ISR      		CODE           	9604	0000	64

mcc_generated_files/tmr1.c estimated size: 170

eusartpackage.c
		_write_package 		CODE           	9846	0000	44
		_init_package  		CODE           	9758	0000	50
		_read_package  		CODE           	9266	0000	80

eusartpackage.c estimated size: 174

keeloqDecrypt_MC50.c
		_NormalKeyGen  		CODE           	739A	0000	270
		_keeloqDecryptPacket		CODE           	5C6E	0000	466
		_DecCHK        		CODE           	9726	0000	50
		_Decrypt       		CODE           	7A68	0000	204
		_ReqResync     		CODE           	9D7A	0000	22
		_getHopCode    		CODE           	6DE2	0000	302
		_LoadManufCode 		CODE           	9B88	0000	34
		_keeloq_classic_decrypt_packet		CODE           	9066	0000	88
		_DecryptPacket_12BIT		CODE           	826E	0000	140
		_verifyProgramingMode		CODE           	96F2	0000	52
		_HopCHK        		CODE           	8412	0000	136

keeloqDecrypt_MC50.c estimated size: 1764

mcc_generated_files/adcc.c
		_ADCC_GetSingleConversion		CODE           	9DA6	0000	22
		_ADCC_Initialize		CODE           	92B6	0000	80

mcc_generated_files/adcc.c estimated size: 102

C:\Program Files\Microchip\xc8\v2.36\pic\sources\c99\common\memcpy.c
		_memcpy        		CODE           	94BE	0000	68

C:\Program Files\Microchip\xc8\v2.36\pic\sources\c99\common\memcpy.c estimated size: 68

C:\Program Files\Microchip\xc8\v2.36\pic\sources\c99\common\Umul16.c
		___wmul        		CODE           	9AF2	0000	38

C:\Program Files\Microchip\xc8\v2.36\pic\sources\c99\common\Umul16.c estimated size: 38

C:\Program Files\Microchip\xc8\v2.36\pic\sources\c99\common\lbdiv.c
		___lbdiv       		CODE           	9680	0000	58

C:\Program Files\Microchip\xc8\v2.36\pic\sources\c99\common\lbdiv.c estimated size: 58

sm_ControlLearning_MC50.c
		_sm_execute_ControlLearning		CODE           	21CE	0000	1816
		_calculateMean 		CODE           	8DDE	0000	98
		_generateErrorLearnig		CODE           	8D10	0000	104
		_clearLearningValue		CODE           	87A8	0000	124

sm_ControlLearning_MC50.c estimated size: 2142

