Microchip MPLAB XC8 Compiler V2.36

Linker command line:

-W-3 --edf=C:\Program Files\Microchip\xc8\v2.36\pic\dat\en_msgs.txt -cn \
  -h+dist/default/debug\MC50UNI.V.0.2.3.X.debug.sym \
  --cmf=dist/default/debug\MC50UNI.V.0.2.3.X.debug.cmf -z -Q18F46K40 \
  -oC:\Users\RAFAEL~1\AppData\Local\Temp\xcAs4v0.4 --defsym=__MPLAB_BUILD=1 \
  -Mdist/default/debug/MC50UNI.V.0.2.3.X.debug.map \
  --md=C:\Users\RAFAEL~1\AppData\Local\Temp\xcAs4v0.dat -E1 \
  -ver=XC8 Compiler --acfsm=1493 -ACODE=00h-0FFFFh -ACONST=00h-0FFFFh \
  -ASMALLCONST=0F00h-0FFFhx241 -AMEDIUMCONST=0F00h-0FFFFh -ACOMRAM=01h-05Fh \
  -AABS1=00h-0E87h -ABIGRAM=01h-0E87h \
  -ARAM=060h-0FFh,0100h-01FFhx13,0E00h-0E87h -ABANK0=060h-0FFh \
  -ABANK1=0100h-01FFh -ABANK2=0200h-02FFh -ABANK3=0300h-03FFh \
  -ABANK4=0400h-04FFh -ABANK5=0500h-05FFh -ABANK6=0600h-06FFh \
  -ABANK7=0700h-07FFh -ABANK8=0800h-08FFh -ABANK9=0900h-09FFh \
  -ABANK10=0A00h-0AFFh -ABANK11=0B00h-0BFFh -ABANK12=0C00h-0CFFh \
  -ABANK13=0D00h-0DFFh -ABANK14=0E00h-0E87h \
  -ASFR=0E8Dh-0EFFh,0F00h-0F5Fh,0F60h-0FFFh -ABIGSFR=0E8Dh-0FFFh \
  -ACONFIG=0300000h-030000Bh -AIDLOC=0200000h-020000Fh \
  -AEEDATA=0310000h-03103FFh -peeprom_data=EEDATA \
  -preset_vec=00h,intcode=08h,intcodelo,powerup,init -pramtop=0F00h \
  -psmallconst=SMALLCONST -pmediumconst=MEDIUMCONST -pconst=CONST \
  -AFARRAM=00h-00h \
  -prdata=COMRAM,nvrram=COMRAM,nvbit=COMRAM,rbss=COMRAM,rbit=COMRAM \
  -pfarbss=FARRAM,fardata=FARRAM,nvFARRAM=FARRAM \
  -pintsave_regs=BIGRAM,bigbss=BIGRAM,bigdata=BIGRAM -pbss=RAM \
  -pidata=CODE,irdata=CODE,ibigdata=CODE,ifardata=CODE -prparam=COMRAM \
  C:\Users\RAFAEL~1\AppData\Local\Temp\xcAs4v0.o \
  dist/default/debug\MC50UNI.V.0.2.3.X.debug.o 

Object code version is 3.11

Machine type is 18F46K40



                Name                               Link     Load   Length Selector   Space Scale
C:\Users\RAFAEL~1\AppData\Local\Temp\xcAs4v0.o
                idloc                            200000   200000       10        0       5
                config                           300000   300000        C        0       4
                init                                 9C       9C        4        4       0
                reset_vec                             0        0        6        0       0
dist/default/debug\MC50UNI.V.0.2.3.X.debug.o
                intcode                               8        8       94        4       0
                idloc                            200000   200000       10        0       5
                config                           300000   300000        C        0       4
                temp                                 50       50        1        1       1
                smallconst                          F00      F00       22      780       0
                text210                            9D08     9D08       22     4E3F       0
                text209                            A080     A080        6     4E3F       0
                text208                            A0BA     A0BA        2     4E3F       0
                text207                            A07A     A07A        6     4E3F       0
                text206                            80BE     80BE       9A      791       0
                text205                            98A4     98A4       32      791       0
                text204                            A0B8     A0B8        2     4E3F       0
                text203                            4FD0     4FD0      276      791       0
                text202                            9C32     9C32       26      791       0
                text201                            A0B6     A0B6        2     4E3F       0
                text200                            9D7E     9D7E       1C     4E3F       0
                text199                            7C9E     7C9E       C6      791       0
                text198                            89BC     89BC       78      791       0
                text197                            56E4     56E4      222      791       0
                text196                            971E     971E       40      791       0
                text195                            9EC2     9EC2       16     4E3F       0
                text194                            9284     9284       56      791       0
                text193                            A0B4     A0B4        2     4E3F       0
                text192                            9B6E     9B6E       2A      791       0
                text191                            6582     6582      19A      791       0
                text190                            9F7C     9F7C        C     4E3F       0
                text189                            8540     8540       86      791       0
                text188                            6D38     6D38      14E      791       0
                text186                            A074     A074        6     4E3F       0
                text185                            A0AE     A0AE        4     4E3F       0
                text184                            A0AA     A0AA        4     4E3F       0
                text183                            9CE6     9CE6       22     4E3F       0
                text182                            A0A6     A0A6        4     4E3F       0
                text181                            A0A2     A0A2        4     4E3F       0
                text180                            A09E     A09E        4     4E3F       0
                text179                            9E02     9E02       1A     4E3F       0
                text178                            8D50     8D50       6E      791       0
                text177                            9E94     9E94       18     4E3F       0
                text176                            9B18     9B18       2C      791       0
                text175                            9AEC     9AEC       2C      791       0
                text174                            9AC0     9AC0       2C      791       0
                text173                            9A94     9A94       2C      791       0
                text172                            9A68     9A68       2C      791       0
                text171                            96DE     96DE       40      791       0
                text170                            9A3C     9A3C       2C      791       0
                text169                            9A10     9A10       2C      791       0
                text168                            99E4     99E4       2C      791       0
                text167                            969E     969E       40      791       0
                text166                            A09A     A09A        4     4E3F       0
                text165                            A096     A096        4     4E3F       0
                text164                            A092     A092        4     4E3F       0
                text163                            A06E     A06E        6     4E3F       0
                text162                            A08E     A08E        4     4E3F       0
                text161                            A068     A068        6     4E3F       0
                text160                            A048     A048        8     4E3F       0
                text159                            9F70     9F70        C     4E3F       0
                text158                            A062     A062        6     4E3F       0
                text157                            8F5A     8F5A       5E      791       0
                text156                            9FF6     9FF6        A     4E3F       0
                text155                            9F62     9F62        E     4E3F       0
                text154                            9F54     9F54        E     4E3F       0
                text153                            842A     842A       8C      791       0
                text152                            88CA     88CA       7A      791       0
                text151                            9FEC     9FEC        A     4E3F       0
                text150                            A040     A040        8     4E3F       0
                text149                            A038     A038        8     4E3F       0
                text148                            A030     A030        8     4E3F       0
                text147                            A028     A028        8     4E3F       0
                text146                            A020     A020        8     4E3F       0
                text145                            A018     A018        8     4E3F       0
                text144                            A010     A010        8     4E3F       0
                text143                            9FE2     9FE2        A     4E3F       0
                text142                            946E     946E       4E      791       0
                text141                            92DA     92DA       54      791       0
                text140                            A008     A008        8     4E3F       0
                text139                            9F36     9F36       10     4E3F       0
                text138                            99B8     99B8       2C      791       0
                text137                            A000     A000        8     4E3F       0
                text136                            9E7C     9E7C       18     4E3F       0
                text135                            864A     864A       84      791       0
                text134                            9E64     9E64       18     4E3F       0
                text133                            95D8     95D8       44      791       0
                text132                            8B1E     8B1E       74      791       0
                text131                            97D4     97D4       38      791       0
                text130                            9126     9126       5A      791       0
                text129                            7BD8     7BD8       C6      791       0
                text128                            9C0C     9C0C       26      791       0
                text127                            63E8     63E8      19A      791       0
                text126                            932E     932E       52      791       0
                text125                            7654     7654       FE      791       0
                text124                            9B98     9B98       28      791       0
                text123                            839E     839E       8C      791       0
                text122                            784E     784E       FA      791       0
                text121                            954E     954E       46      791       0
                text120                            6BC4     6BC4      174      791       0
                text119                            720A     720A      124      791       0
                text118                            975E     975E       3C      791       0
                text117                            9F46     9F46        E     4E3F       0
                text116                            8282     8282       90      791       0
                text115                            472A     472A      324      791       0
                text114                            8944     8944       78      791       0
                text113                            549A     549A      24A      791       0
                text112                            9F26     9F26       10     4E3F       0
                text111                            93D0     93D0       50      791       0
                text110                            9FD8     9FD8        A     4E3F       0
                text109                            9FCE     9FCE        A     4E3F       0
                text108                            9FC4     9FC4        A     4E3F       0
                text107                            9FBA     9FBA        A     4E3F       0
                text106                            9FB0     9FB0        A     4E3F       0
                text105                            87D0     87D0       7E      791       0
                text104                            9F00     9F00       14     4E3F       0
                text103                            A08A     A08A        4     4E3F       0
                text102                            9EAC     9EAC       16     4E3F       0
                text101                            8158     8158       98      791       0
                text100                            9D62     9D62       1C     4E3F       0
                text99                             9FA6     9FA6        A     4E3F       0
                text98                             9CC4     9CC4       22     4E3F       0
                text97                             9F9C     9F9C        A     4E3F       0
                text96                             961C     961C       42      791       0
                text95                             9F92     9F92        A     4E3F       0
                text94                             998C     998C       2C      791       0
                text93                             9F88     9F88        A     4E3F       0
                text92                             9906     9906       2E      791       0
                text91                             9DE8     9DE8       1A     4E3F       0
                text90                             8E92     8E92       66      791       0
                text89                             A086     A086        4     4E3F       0
                text88                             9D46     9D46       1C     4E3F       0
                text87                             8A34     8A34       76      791       0
                text86                             8C72     8C72       70      791       0
                text85                             8750     8750       80      791       0
                text84                             81F0     81F0       92      791       0
                text83                             8C02     8C02       70      791       0
                text82                             9872     9872       32      791       0
                text81                             90CC     90CC       5A      791       0
                text80                             965E     965E       40      791       0
                text79                             9960     9960       2C      791       0
                text78                             2988     2988      68C      791       0
                text77                             8AAA     8AAA       74      791       0
                text76                             624C     624C      19C      791       0
                text75                             3014     3014      5A4      791       0
                text74                              F22      F22      9E6      791       0
                text73                             9E4C     9E4C       18     4E3F       0
                text72                             9070     9070       5C      791       0
                text71                             68B2     68B2      18A      791       0
                text70                             60AC     60AC      1A0      791       0
                text69                             6FB4     6FB4      12E      791       0
                text68                             754C     754C      108      791       0
                text67                             8312     8312       8C      791       0
                text66                             9840     9840       32      791       0
                text65                             9E34     9E34       18     4E3F       0
                text64                             6E86     6E86      12E      791       0
                text63                             84B6     84B6       8A      791       0
                text62                             7B0C     7B0C       CC      791       0
                text61                             9CA2     9CA2       22     4E3F       0
                text60                             743E     743E      10E      791       0
                text59                             9180     9180       58      791       0
                text58                             980C     980C       34      791       0
                text57                             5D12     5D12      1D2      791       0
                text56                             671C     671C      196      791       0
                text55                             9506     9506       48      791       0
                text54                             9380     9380       50      791       0
                text53                             8DBE     8DBE       6C      791       0
                text52                             9EEC     9EEC       14     4E3F       0
                text51                             979A     979A       3A      791       0
                text50                             5EE4     5EE4      1C8      791       0
                text49                             9934     9934       2C      791       0
                text48                             8018     8018       A6      791       0
                text47                             9ED8     9ED8       14     4E3F       0
                text46                             9014     9014       5C      791       0
                text45                             9F14     9F14       12     4E3F       0
                text44                             8FB8     8FB8       5C      791       0
                text43                             8CE2     8CE2       6E      791       0
                text42                             9DCE     9DCE       1A     4E3F       0
                text41                             9BE6     9BE6       26      791       0
                text40                             8B92     8B92       70      791       0
                text39                             7EC8     7EC8       AA      791       0
                text38                             7F72     7F72       A6      791       0
                text37                             9D2A     9D2A       1C     4E3F       0
                text36                             922E     922E       56      791       0
                text35                             7948     7948       E8      791       0
                text34                             70E2     70E2      128      791       0
                text33                             4D44     4D44      28C      791       0
                text32                             9BC0     9BC0       26      791       0
                text31                             9C7E     9C7E       24     4E3F       0
                text30                             5B24     5B24      1EE      791       0
                text29                             9E1C     9E1C       18     4E3F       0
                text28                             94BC     94BC       4A      791       0
                text27                             732E     732E      110      791       0
                text26                             5906     5906      21E      791       0
                text25                             7A30     7A30       DC      791       0
                text24                             5246     5246      254      791       0
                text23                             8EF8     8EF8       62      791       0
                text22                             884E     884E       7C      791       0
                text21                             9594     9594       44      791       0
                text20                             91D8     91D8       56      791       0
                text19                             8E2A     8E2A       68      791       0
                text18                             2270     2270      718      791       0
                text17                             43DE     43DE      34C      791       0
                text16                             86CE     86CE       82      791       0
                text15                             7752     7752       FC      791       0
                text14                             98D6     98D6       30      791       0
                text13                             A05C     A05C        6     4E3F       0
                text12                             9DB4     9DB4       1A     4E3F       0
                text11                             85C6     85C6       84      791       0
                text10                             9B44     9B44       2A      791       0
                text9                              7D64     7D64       B4      791       0
                text8                              9420     9420       4E      791       0
                text7                              A056     A056        6     4E3F       0
                text6                              3FFC     3FFC      3E2      791       0
                text5                              9D9A     9D9A       1A     4E3F       0
                text4                              4A4E     4A4E      2F6      791       0
                text3                              35B8     35B8      532      791       0
                text2                              1908     1908      968      791       0
                text1                              3AEA     3AEA      512      791       0
                text0                              6A3C     6A3C      188      791       0
                cstackCOMRAM                          1        1       3A        1       1
                cstackBANK0                          D8       D8       24       60       1
                cstackBANK2                         2EF      2EF        7      200       1
                dataBANK3                           3D2      3D2       25      300       1
                bssBANK3                            300      300       D2      300       1
                dataBANK2                           2F6      2F6        6      200       1
                bssBANK2                            200      200       DD      200       1
                dataBANK1                           1FE      1FE        1      100       1
                bssBANK1                            100      100       FD      100       1
                dataBANK0                            FC       FC        2       60       1
                bssBANK0                             60       60       78       60       1
                bssCOMRAM                            3B       3B       15        1       1
                cinit                              7E18     7E18       B0      791       0
                nvBANK2                             2DD      2DD       12      200       1
                nvBANK1                             1FD      1FD        1      100       1
                idataBANK3                         9C58     9C58       25      791       0
                idataBANK2                         A050     A050        6     4E3F       0
                idataBANK1                         A0BC     A0BC        1     4E3F       0
                idataBANK0                         A0B2     A0B2        2     4E3F       0

TOTAL           Name                               Link     Load   Length     Space
        CLASS   CODE           
                intcode                               8        8       94         0
                init                                 9C       9C        4         0
                reset_vec                             0        0        6         0
                text210                            9D08     9D08       22         0
                text209                            A080     A080        6         0
                text208                            A0BA     A0BA        2         0
                text207                            A07A     A07A        6         0
                text206                            80BE     80BE       9A         0
                text205                            98A4     98A4       32         0
                text204                            A0B8     A0B8        2         0
                text203                            4FD0     4FD0      276         0
                text202                            9C32     9C32       26         0
                text201                            A0B6     A0B6        2         0
                text200                            9D7E     9D7E       1C         0
                text199                            7C9E     7C9E       C6         0
                text198                            89BC     89BC       78         0
                text197                            56E4     56E4      222         0
                text196                            971E     971E       40         0
                text195                            9EC2     9EC2       16         0
                text194                            9284     9284       56         0
                text193                            A0B4     A0B4        2         0
                text192                            9B6E     9B6E       2A         0
                text191                            6582     6582      19A         0
                text190                            9F7C     9F7C        C         0
                text189                            8540     8540       86         0
                text188                            6D38     6D38      14E         0
                text186                            A074     A074        6         0
                text185                            A0AE     A0AE        4         0
                text184                            A0AA     A0AA        4         0
                text183                            9CE6     9CE6       22         0
                text182                            A0A6     A0A6        4         0
                text181                            A0A2     A0A2        4         0
                text180                            A09E     A09E        4         0
                text179                            9E02     9E02       1A         0
                text178                            8D50     8D50       6E         0
                text177                            9E94     9E94       18         0
                text176                            9B18     9B18       2C         0
                text175                            9AEC     9AEC       2C         0
                text174                            9AC0     9AC0       2C         0
                text173                            9A94     9A94       2C         0
                text172                            9A68     9A68       2C         0
                text171                            96DE     96DE       40         0
                text170                            9A3C     9A3C       2C         0
                text169                            9A10     9A10       2C         0
                text168                            99E4     99E4       2C         0
                text167                            969E     969E       40         0
                text166                            A09A     A09A        4         0
                text165                            A096     A096        4         0
                text164                            A092     A092        4         0
                text163                            A06E     A06E        6         0
                text162                            A08E     A08E        4         0
                text161                            A068     A068        6         0
                text160                            A048     A048        8         0
                text159                            9F70     9F70        C         0
                text158                            A062     A062        6         0
                text157                            8F5A     8F5A       5E         0
                text156                            9FF6     9FF6        A         0
                text155                            9F62     9F62        E         0
                text154                            9F54     9F54        E         0
                text153                            842A     842A       8C         0
                text152                            88CA     88CA       7A         0
                text151                            9FEC     9FEC        A         0
                text150                            A040     A040        8         0
                text149                            A038     A038        8         0
                text148                            A030     A030        8         0
                text147                            A028     A028        8         0
                text146                            A020     A020        8         0
                text145                            A018     A018        8         0
                text144                            A010     A010        8         0
                text143                            9FE2     9FE2        A         0
                text142                            946E     946E       4E         0
                text141                            92DA     92DA       54         0
                text140                            A008     A008        8         0
                text139                            9F36     9F36       10         0
                text138                            99B8     99B8       2C         0
                text137                            A000     A000        8         0
                text136                            9E7C     9E7C       18         0
                text135                            864A     864A       84         0
                text134                            9E64     9E64       18         0
                text133                            95D8     95D8       44         0
                text132                            8B1E     8B1E       74         0
                text131                            97D4     97D4       38         0
                text130                            9126     9126       5A         0
                text129                            7BD8     7BD8       C6         0
                text128                            9C0C     9C0C       26         0
                text127                            63E8     63E8      19A         0
                text126                            932E     932E       52         0
                text125                            7654     7654       FE         0
                text124                            9B98     9B98       28         0
                text123                            839E     839E       8C         0
                text122                            784E     784E       FA         0
                text121                            954E     954E       46         0
                text120                            6BC4     6BC4      174         0
                text119                            720A     720A      124         0
                text118                            975E     975E       3C         0
                text117                            9F46     9F46        E         0
                text116                            8282     8282       90         0
                text115                            472A     472A      324         0
                text114                            8944     8944       78         0
                text113                            549A     549A      24A         0
                text112                            9F26     9F26       10         0
                text111                            93D0     93D0       50         0
                text110                            9FD8     9FD8        A         0
                text109                            9FCE     9FCE        A         0
                text108                            9FC4     9FC4        A         0
                text107                            9FBA     9FBA        A         0
                text106                            9FB0     9FB0        A         0
                text105                            87D0     87D0       7E         0
                text104                            9F00     9F00       14         0
                text103                            A08A     A08A        4         0
                text102                            9EAC     9EAC       16         0
                text101                            8158     8158       98         0
                text100                            9D62     9D62       1C         0
                text99                             9FA6     9FA6        A         0
                text98                             9CC4     9CC4       22         0
                text97                             9F9C     9F9C        A         0
                text96                             961C     961C       42         0
                text95                             9F92     9F92        A         0
                text94                             998C     998C       2C         0
                text93                             9F88     9F88        A         0
                text92                             9906     9906       2E         0
                text91                             9DE8     9DE8       1A         0
                text90                             8E92     8E92       66         0
                text89                             A086     A086        4         0
                text88                             9D46     9D46       1C         0
                text87                             8A34     8A34       76         0
                text86                             8C72     8C72       70         0
                text85                             8750     8750       80         0
                text84                             81F0     81F0       92         0
                text83                             8C02     8C02       70         0
                text82                             9872     9872       32         0
                text81                             90CC     90CC       5A         0
                text80                             965E     965E       40         0
                text79                             9960     9960       2C         0
                text78                             2988     2988      68C         0
                text77                             8AAA     8AAA       74         0
                text76                             624C     624C      19C         0
                text75                             3014     3014      5A4         0
                text74                              F22      F22      9E6         0
                text73                             9E4C     9E4C       18         0
                text72                             9070     9070       5C         0
                text71                             68B2     68B2      18A         0
                text70                             60AC     60AC      1A0         0
                text69                             6FB4     6FB4      12E         0
                text68                             754C     754C      108         0
                text67                             8312     8312       8C         0
                text66                             9840     9840       32         0
                text65                             9E34     9E34       18         0
                text64                             6E86     6E86      12E         0
                text63                             84B6     84B6       8A         0
                text62                             7B0C     7B0C       CC         0
                text61                             9CA2     9CA2       22         0
                text60                             743E     743E      10E         0
                text59                             9180     9180       58         0
                text58                             980C     980C       34         0
                text57                             5D12     5D12      1D2         0
                text56                             671C     671C      196         0
                text55                             9506     9506       48         0
                text54                             9380     9380       50         0
                text53                             8DBE     8DBE       6C         0
                text52                             9EEC     9EEC       14         0
                text51                             979A     979A       3A         0
                text50                             5EE4     5EE4      1C8         0
                text49                             9934     9934       2C         0
                text48                             8018     8018       A6         0
                text47                             9ED8     9ED8       14         0
                text46                             9014     9014       5C         0
                text45                             9F14     9F14       12         0
                text44                             8FB8     8FB8       5C         0
                text43                             8CE2     8CE2       6E         0
                text42                             9DCE     9DCE       1A         0
                text41                             9BE6     9BE6       26         0
                text40                             8B92     8B92       70         0
                text39                             7EC8     7EC8       AA         0
                text38                             7F72     7F72       A6         0
                text37                             9D2A     9D2A       1C         0
                text36                             922E     922E       56         0
                text35                             7948     7948       E8         0
                text34                             70E2     70E2      128         0
                text33                             4D44     4D44      28C         0
                text32                             9BC0     9BC0       26         0
                text31                             9C7E     9C7E       24         0
                text30                             5B24     5B24      1EE         0
                text29                             9E1C     9E1C       18         0
                text28                             94BC     94BC       4A         0
                text27                             732E     732E      110         0
                text26                             5906     5906      21E         0
                text25                             7A30     7A30       DC         0
                text24                             5246     5246      254         0
                text23                             8EF8     8EF8       62         0
                text22                             884E     884E       7C         0
                text21                             9594     9594       44         0
                text20                             91D8     91D8       56         0
                text19                             8E2A     8E2A       68         0
                text18                             2270     2270      718         0
                text17                             43DE     43DE      34C         0
                text16                             86CE     86CE       82         0
                text15                             7752     7752       FC         0
                text14                             98D6     98D6       30         0
                text13                             A05C     A05C        6         0
                text12                             9DB4     9DB4       1A         0
                text11                             85C6     85C6       84         0
                text10                             9B44     9B44       2A         0
                text9                              7D64     7D64       B4         0
                text8                              9420     9420       4E         0
                text7                              A056     A056        6         0
                text6                              3FFC     3FFC      3E2         0
                text5                              9D9A     9D9A       1A         0
                text4                              4A4E     4A4E      2F6         0
                text3                              35B8     35B8      532         0
                text2                              1908     1908      968         0
                text1                              3AEA     3AEA      512         0
                text0                              6A3C     6A3C      188         0
                cinit                              7E18     7E18       B0         0
                idataBANK3                         9C58     9C58       25         0
                idataBANK2                         A050     A050        6         0
                idataBANK1                         A0BC     A0BC        1         0
                idataBANK0                         A0B2     A0B2        2         0

        CLASS   CONST          

        CLASS   SMALLCONST     
                smallconst                          F00      F00       22         0

        CLASS   MEDIUMCONST    

        CLASS   COMRAM         
                temp                                 50       50        1         1
                cstackCOMRAM                          1        1       3A         1
                bssCOMRAM                            3B       3B       15         1

        CLASS   ABS1           

        CLASS   BIGRAM         

        CLASS   RAM            

        CLASS   BANK0          
                cstackBANK0                          D8       D8       24         1
                dataBANK0                            FC       FC        2         1
                bssBANK0                             60       60       78         1

        CLASS   BANK1          
                dataBANK1                           1FE      1FE        1         1
                bssBANK1                            100      100       FD         1
                nvBANK1                             1FD      1FD        1         1

        CLASS   BANK2          
                cstackBANK2                         2EF      2EF        7         1
                dataBANK2                           2F6      2F6        6         1
                bssBANK2                            200      200       DD         1
                nvBANK2                             2DD      2DD       12         1

        CLASS   BANK3          
                dataBANK3                           3D2      3D2       25         1
                bssBANK3                            300      300       D2         1

        CLASS   BANK4          

        CLASS   BANK5          

        CLASS   BANK6          

        CLASS   BANK7          

        CLASS   BANK8          

        CLASS   BANK9          

        CLASS   BANK10         

        CLASS   BANK11         

        CLASS   BANK12         

        CLASS   BANK13         

        CLASS   BANK14         

        CLASS   SFR            

        CLASS   BIGSFR         

        CLASS   CONFIG         
                config                           300000   300000        C         4

        CLASS   IDLOC          
                idloc                            200000   200000       10         5

        CLASS   EEDATA         

        CLASS   FARRAM         

        CLASS   HEAP           

        CLASS   STACK          



SEGMENTS        Name                           Load    Length   Top    Selector   Space  Class

                reset_vec                      000000  000006  000006         0       0  CODE    
                cstackCOMRAM                   000001  000050  000051         1       1  COMRAM  
                intcode                        000008  000098  0000A0         4       0  CODE    
                bssBANK0                       000060  00009E  0000FE        60       1  BANK0   
                bssBANK1                       000100  0000FF  0001FF       100       1  BANK1   
                bssBANK2                       000200  0000FC  0002FC       200       1  BANK2   
                bssBANK3                       000300  0000F7  0003F7       300       1  BANK3   
                smallconst                     000F00  000022  000F22       780       0  SMALLCON
                text74                         000F22  008D5B  009C7D       791       0  CODE    
                text31                         009C7E  00043F  00A0BD      4E3F       0  CODE    


UNUSED ADDRESS RANGES

        Name                Unused          Largest block    Delta
        BANK0            0000FE-0000FF                2
        BANK1            0001FF-0001FF                1
        BANK10           000A00-000AFF              100
        BANK11           000B00-000BFF              100
        BANK12           000C00-000CFF              100
        BANK13           000D00-000DFF              100
        BANK14           000E00-000E87               88
        BANK2            0002FC-0002FF                4
        BANK3            0003F7-0003FF                9
        BANK4            000400-0004FF              100
        BANK5            000500-0005FF              100
        BANK6            000600-0006FF              100
        BANK7            000700-0007FF              100
        BANK8            000800-0008FF              100
        BANK9            000900-0009FF              100
        BIGRAM           000051-00005F                F
                         0000FE-0000FF                2
                         0001FF-0001FF                1
                         0002FC-0002FF                4
                         0003F7-000E87              A91
        BIGSFR           000E8D-000FFF              173
        CODE             000006-000007                2
                         0000A0-000EFF              E60
                         009C7D-009C7D                1
                         00A0BD-00FFFF             5F43
        COMRAM           000051-00005F                F
        CONST            000006-000007                2
                         0000A0-000EFF              E60
                         009C7D-009C7D                1
                         00A0BD-00FFFF             5F43
        EEDATA           310000-3103FF              400
        MEDIUMCONST      009C7D-009C7D                1
                         00A0BD-00FFFF             5F43
        RAM              0000FE-0000FF                2
                         0001FF-0001FF                1
                         0002FC-0002FF                4
                         0003F7-000E87              100
        SFR              000E8D-000FFF               73
        SMALLCONST       009C7D-009C7D                1
                         00A0BD-00FFFF              100

                                  Symbol Table

?___awdiv                                                 cstackCOMRAM 000014
?___lldiv                                                 cstackCOMRAM 000010
?___lmul                                                  cstackCOMRAM 00001D
?___lwdiv                                                 cstackCOMRAM 000010
?___wmul                                                  cstackCOMRAM 000010
?_calculateMean                                           cstackCOMRAM 000010
?_getCurrentComparator                                    cstackCOMRAM 000016
?_getHopCode                                              cstackCOMRAM 000016
?_getTimeDecelaration                                     cstackCOMRAM 000029
?_read_package                                            cstackCOMRAM 000011
?_sm_get_current_state                                    cstackCOMRAM 000010
?_sumEnergyADC                                            cstackCOMRAM 000010
?_sumHIST                                                 cstackCOMRAM 000010
ADCC_GetSingleConversion@channel                          cstackCOMRAM 000001
ControlMotor@stateMotor                                   cstackCOMRAM 000018
DecCHK@data                                               cstackCOMRAM 000010
Decrypt@Buffer                                            cstackCOMRAM 000022
Decrypt@aux                                               cstackCOMRAM 000021
Decrypt@i                                                 cstackCOMRAM 00001E
Decrypt@j                                                 cstackCOMRAM 00001F
Decrypt@key                                               cstackCOMRAM 00001D
Decrypt@p                                                 cstackCOMRAM 000020
Decrypt@packet                                            cstackCOMRAM 00001B
DecryptPacket_12BIT@classic_data                          cstackBANK0  0000E2
DecryptPacket_12BIT@commandType                           cstackBANK0  0000E4
DecryptPacket_12BIT@data                                  cstackBANK0  0000E0
EUSART1_Read@readValue                                    cstackCOMRAM 000010
EUSART1_SetErrorHandler@interruptHandler                  cstackCOMRAM 000010
EUSART1_SetFramingErrorHandler@interruptHandler           cstackCOMRAM 000010
EUSART1_SetOverrunErrorHandler@interruptHandler           cstackCOMRAM 000010
EUSART1_SetRxInterruptHandler@interruptHandler            cstackCOMRAM 000010
EUSART1_SetTxInterruptHandler@interruptHandler            cstackCOMRAM 000010
EUSART1_Write@txData                                      cstackCOMRAM 000010
GetMotorPower@defineatraso                                cstackCOMRAM 000013
HopCHK@data                                               cstackCOMRAM 000024
HopCHK@hopDiff                                            cstackCOMRAM 000026
I2C1_CallbackReturnReset@funPtr                           cstackCOMRAM 000019
I2C1_Close@returnValue                                    cstackCOMRAM 000010
I2C1_MasterOperation@read                                 cstackCOMRAM 000020
I2C1_MasterOperation@returnValue                          cstackCOMRAM 000021
I2C1_MasterSendTxData@data                                cstackCOMRAM 000010
I2C1_Open@address                                         cstackCOMRAM 000010
I2C1_Open@returnValue                                     cstackCOMRAM 000011
I2C1_Read1ByteRegister@address                            cstackCOMRAM 000023
I2C1_Read1ByteRegister@reg                                cstackCOMRAM 000022
I2C1_Read1ByteRegister@returnValue                        cstackCOMRAM 000024
I2C1_SetAddressNackCallback@cb                            cstackCOMRAM 000015
I2C1_SetAddressNackCallback@ptr                           cstackCOMRAM 000017
I2C1_SetBuffer@buffer                                     cstackCOMRAM 000010
I2C1_SetBuffer@bufferSize                                 cstackCOMRAM 000012
I2C1_SetCallback@cb                                       cstackCOMRAM 000010
I2C1_SetCallback@idx                                      cstackCOMRAM 000014
I2C1_SetCallback@ptr                                      cstackCOMRAM 000012
I2C1_SetDataCompleteCallback@cb                           cstackCOMRAM 000015
I2C1_SetDataCompleteCallback@ptr                          cstackCOMRAM 000017
NormalKeyGen@Buffer                                       cstackCOMRAM 000030
NormalKeyGen@HOPtemp                                      cstackCOMRAM 000028
NormalKeyGen@SEED                                         bssBANK2     0002D9
NormalKeyGen@SKEYtemp                                     cstackCOMRAM 00002C
NormalKeyGen@serial                                       cstackCOMRAM 000026
OpenWalkOrder@diffTime                                    cstackCOMRAM 00001A
RGB_Set@value                                             cstackCOMRAM 000010
ReadSerial@cmdType                                        cstackCOMRAM 000032
ReadSerial@position                                       cstackCOMRAM 00002F
ReadSerial@tempSerial                                     cstackCOMRAM 00002E
RemoveSerial@cmdType                                      cstackBANK0  0000DA
RemoveSerial@position                                     cstackCOMRAM 00003A
RemoveSerial@tempSerial                                   cstackBANK0  0000DB
ReqResync@CurrentHop                                      cstackCOMRAM 000010
ResetDefaultMemory@type                                   cstackCOMRAM 00003A
SaveNVM_VarSystem@page                                    cstackBANK0  0000D8
SaveNVM_VarSystem@point                                   cstackBANK0  0000DB
SaveNVM_VarSystem@tempAdd                                 cstackBANK0  0000D9
Segments_Set@value                                        cstackCOMRAM 000001
SetSegmentValue@d1                                        cstackCOMRAM 00001D
SetSegmentValue@d2                                        cstackCOMRAM 00001C
SetSegmentValueIntermitent@d1                             cstackCOMRAM 000013
SetSegmentValueIntermitent@d2                             cstackCOMRAM 000010
SetSegmentValueIntermitent@time                           cstackCOMRAM 000011
SetSegmentValueIntermitentMain@d1                         cstackCOMRAM 00001F
SetSegmentValueIntermitentMain@d2                         cstackCOMRAM 00001C
SetSegmentValueIntermitentMain@time                       cstackCOMRAM 00001D
SetSegmentValueLearn@direction                            cstackCOMRAM 000012
SetSegmentValueMain@d1                                    cstackCOMRAM 00001D
SetSegmentValueMain@d2                                    cstackCOMRAM 00001C
TMR0_SetInterruptHandler@InterruptHandler                 cstackCOMRAM 000010
TMR1_SetInterruptHandler@InterruptHandler                 cstackCOMRAM 000010
TMR1_WriteTimer@timerVal                                  cstackCOMRAM 000001
TMR2_SetInterruptHandler@InterruptHandler                 cstackCOMRAM 000010
VerifyElectricalBrake@actualState                         cstackCOMRAM 000011
VerifyElectricalBrake@tempState                           cstackCOMRAM 000010
VerifyFollowMe@securityClose                              cstackCOMRAM 000010
WWDT_TimerClear@state                                     cstackCOMRAM 000010
_ADACCH                                                   (abs)        000F71
_ADACCL                                                   (abs)        000F70
_ADACQ                                                    (abs)        000F5C
_ADACT                                                    (abs)        000F56
_ADCAP                                                    (abs)        000F5D
_ADCC_GetSingleConversion                                 text195      009EC2
_ADCC_Initialize                                          text111      0093D0
_ADCLK                                                    (abs)        000F57
_ADCNT                                                    (abs)        000F67
_ADCON0                                                   (abs)        000F60
_ADCON0bits                                               (abs)        000F60
_ADCON1                                                   (abs)        000F59
_ADCON2                                                   (abs)        000F5A
_ADCON3                                                   (abs)        000F5B
_ADC_array                                                bssBANK2     000200
_ADC_zero_array                                           bssBANK3     000396
_ADERRH                                                   (abs)        000F6F
_ADERRL                                                   (abs)        000F6E
_ADFLTRH                                                  (abs)        000F73
_ADFLTRL                                                  (abs)        000F72
_ADLTHH                                                   (abs)        000F6B
_ADLTHL                                                   (abs)        000F6A
_ADPCH                                                    (abs)        000F5F
_ADPRE                                                    (abs)        000F5E
_ADPREVH                                                  (abs)        000F62
_ADPREVL                                                  (abs)        000F61
_ADREF                                                    (abs)        000F58
_ADRESH                                                   (abs)        000F64
_ADRESL                                                   (abs)        000F63
_ADRPT                                                    (abs)        000F66
_ADSTAT                                                   (abs)        000F65
_ADSTPTH                                                  (abs)        000F69
_ADSTPTL                                                  (abs)        000F68
_ADUTHH                                                   (abs)        000F6D
_ADUTHL                                                   (abs)        000F6C
_ANSELA                                                   (abs)        000F11
_ANSELB                                                   (abs)        000F19
_ANSELC                                                   (abs)        000F21
_ANSELD                                                   (abs)        000F26
_ANSELE                                                   (abs)        000F2E
_Abertura_pedonal                                         bssBANK1     000191
_BAUD1CON                                                 (abs)        000F9F
_BitCount                                                 bssBANK0     00008C
_Bptr                                                     bssBANK0     00008D
_BufferRF                                                 bssBANK2     0002C8
_BufferRF_12BIT                                           bssBANK1     000189
_ClearFlag_rfCMD                                          text13       00A05C
_CloseOrder                                               text32       009BC0
_ControlCounterMoves                                      text130      009126
_ControlCurrent                                           text120      006BC4
_ControlDecelarationFactor                                text29       009E1C
_ControlInputs                                            text119      00720A
_ControlLights                                            text115      00472A
_ControlMotor                                             text113      00549A
_Counterchoose                                            bssBANK0     000092
_DKEY                                                     bssBANK2     0002D1
_DecCHK                                                   text66       009840
_Decrypt                                                  text62       007B0C
_DecryptPacket_12BIT                                      text67       008312
_DispTable                                                dataBANK3    0003D2
_EHop                                                     bssBANK2     00028C
_EUSART1_DefaultErrorHandler                              text209      00A080
_EUSART1_DefaultFramingErrorHandler                       text208      00A0BA
_EUSART1_DefaultOverrunErrorHandler                       text207      00A07A
_EUSART1_ErrorHandler                                     nvBANK2      0002E5
_EUSART1_FramingErrorHandler                              nvBANK2      0002E9
_EUSART1_Initialize                                       text105      0087D0
_EUSART1_OverrunErrorHandler                              nvBANK2      0002E7
_EUSART1_Read                                             text55       009506
_EUSART1_Receive_ISR                                      text206      0080BE
_EUSART1_RxDataHandler                                    text210      009D08
_EUSART1_RxDefaultInterruptHandler                        nvBANK2      0002EB
_EUSART1_SetErrorHandler                                  text110      009FD8
_EUSART1_SetFramingErrorHandler                           text109      009FCE
_EUSART1_SetOverrunErrorHandler                           text108      009FC4
_EUSART1_SetRxInterruptHandler                            text107      009FBA
_EUSART1_SetTxInterruptHandler                            text106      009FB0
_EUSART1_Transmit_ISR                                     text205      0098A4
_EUSART1_TxDefaultInterruptHandler                        nvBANK2      0002ED
_EUSART1_Write                                            text80       00965E
_EUSART1_is_rx_ready                                      text112      009F26
_F2Chance                                                 bssBANK1     000199
_GIE                                                      (abs)        007F97
_GetMotorPower                                            text129      007BD8
_GetOpenOrder                                             text50       005EE4
_GetSecurityStateInClosing                                text38       007F72
_GetSecurityStateInOpening                                text48       008018
_Hop                                                      bssBANK0     00007C
_HopCHK                                                   text63       0084B6
_I2C1_CallbackReturnReset                                 text165      00A096
_I2C1_CallbackReturnStop                                  text166      00A09A
_I2C1_Close                                               text183      009CE6
_I2C1_DO_ADDRESS_NACK                                     text142      00946E
_I2C1_DO_IDLE                                             text156      009FF6
_I2C1_DO_RCEN                                             text151      009FEC
_I2C1_DO_RESET                                            text143      009FE2
_I2C1_DO_RX                                               text152      0088CA
_I2C1_DO_RX_ACK                                           text146      00A020
_I2C1_DO_RX_NACK_RESTART                                  text144      00A010
_I2C1_DO_RX_NACK_STOP                                     text145      00A018
_I2C1_DO_SEND_ADR_READ                                    text155      009F62
_I2C1_DO_SEND_ADR_WRITE                                   text154      009F54
_I2C1_DO_SEND_RESTART                                     text148      00A030
_I2C1_DO_SEND_RESTART_READ                                text150      00A040
_I2C1_DO_SEND_RESTART_WRITE                               text149      00A038
_I2C1_DO_SEND_STOP                                        text147      00A028
_I2C1_DO_TX                                               text153      00842A
_I2C1_DO_TX_EMPTY                                         text157      008F5A
_I2C1_Initialize                                          text104      009F00
_I2C1_MasterClearIrq                                      text186      00A074
_I2C1_MasterClose                                         text185      00A0AE
_I2C1_MasterDisableIrq                                    text184      00A0AA
_I2C1_MasterEnableRestart                                 text181      00A0A2
_I2C1_MasterFsm                                           text141      0092DA
_I2C1_MasterGetRxData                                     text162      00A08E
_I2C1_MasterIsNack                                        text159      009F70
_I2C1_MasterOpen                                          text136      009E7C
_I2C1_MasterOperation                                     text138      0099B8
_I2C1_MasterSendAck                                       text161      00A068
_I2C1_MasterSendNack                                      text163      00A06E
_I2C1_MasterSendTxData                                    text160      00A048
_I2C1_MasterSetIrq                                        text158      00A062
_I2C1_MasterStart                                         text182      00A0A6
_I2C1_MasterStartRx                                       text164      00A092
_I2C1_MasterStop                                          text180      00A09E
_I2C1_MasterWaitForEvent                                  text140      00A008
_I2C1_MasterWrite                                         text137      00A000
_I2C1_Open                                                text135      00864A
_I2C1_Poller                                              text139      009F36
_I2C1_Read1ByteRegister                                   text72       009070
_I2C1_SetAddressNackCallback                              text134      009E64
_I2C1_SetBuffer                                           text179      009E02
_I2C1_SetCallback                                         text178      008D50
_I2C1_SetDataCompleteCallback                             text177      009E94
_I2C1_Status                                              bssBANK2     00023C
_INLVLA                                                   (abs)        000F0D
_INLVLB                                                   (abs)        000F15
_INLVLC                                                   (abs)        000F1D
_INLVLD                                                   (abs)        000F22
_INLVLE                                                   (abs)        000F2A
_INTCONbits                                               (abs)        000FF2
_INTERRUPT_Initialize                                     text103      00A08A
_INTERRUPT_InterruptManager                               intcode      000008
_IOCBN3                                                   (abs)        00789B
_IOCBP3                                                   (abs)        0078A3
_InitFullAutoTime                                         text42       009DCE
_InitReceiver                                             text5        009D9A
_InitSoftStart                                            text46       009014
_InitSoftStop                                             text28       0094BC
_InitWalkAutoTime                                         text47       009ED8
_LATA                                                     (abs)        000F83
_LATAbits                                                 (abs)        000F83
_LATB                                                     (abs)        000F84
_LATC                                                     (abs)        000F85
_LATCbits                                                 (abs)        000F85
_LATD                                                     (abs)        000F86
_LATDbits                                                 (abs)        000F86
_LATE                                                     (abs)        000F87
_LATEbits                                                 (abs)        000F87
_LoadManufCode                                            text61       009CA2
_NextHop                                                  bssBANK2     00028E
_NormalKeyGen                                             text60       00743E
_ODCONA                                                   (abs)        000F0F
_ODCONB                                                   (abs)        000F17
_ODCONC                                                   (abs)        000F1F
_ODCOND                                                   (abs)        000F24
_ODCONE                                                   (abs)        000F2C
_OSCCON1                                                  (abs)        000ED8
_OSCCON3                                                  (abs)        000EDA
_OSCEN                                                    (abs)        000EDC
_OSCFRQ                                                   (abs)        000EDE
_OSCILLATOR_Initialize                                    text102      009EAC
_OSCTUNE                                                  (abs)        000EDD
_OpenFullOrder                                            text41       009BE6
_OpenWalkOrder                                            text43       008CE2
_PCON0bits                                                (abs)        000FD7
_PIE0bits                                                 (abs)        000EC2
_PIE3bits                                                 (abs)        000EC5
_PIE4bits                                                 (abs)        000EC6
_PIN_MANAGER_Initialize                                   text101      008158
_PIR0bits                                                 (abs)        000ECA
_PIR3bits                                                 (abs)        000ECD
_PIR4bits                                                 (abs)        000ECE
_PMD0                                                     (abs)        000EE1
_PMD1                                                     (abs)        000EE2
_PMD2                                                     (abs)        000EE3
_PMD3                                                     (abs)        000EE4
_PMD4                                                     (abs)        000EE5
_PMD5                                                     (abs)        000EE6
_PMD_Initialize                                           text100      009D62
_PORTAbits                                                (abs)        000F8D
_PORTB                                                    (abs)        000F8E
_PORTBbits                                                (abs)        000F8E
_PORTEbits                                                (abs)        000F91
_RC1REG                                                   (abs)        000F99
_RC1STA                                                   (abs)        000F9D
_RC1STAbits                                               (abs)        000F9D
_RC3PPS                                                   (abs)        000EFA
_RC4PPS                                                   (abs)        000EFB
_RC7PPS                                                   (abs)        000EFE
_RFBit                                                    bssBANK0     000089
_RFFull                                                   bssBANK0     00008B
_RFFull_12BIT                                             bssBANK0     00008A
_RFcount                                                  bssBANK0     00007E
_RFstate                                                  bssBANK1     00019C
_RGB_Set                                                  text117      009F46
_RX1PPS                                                   (abs)        000EB5
_ReadADC                                                  text194      009284
_ReadSerial                                               text86       008C72
_RemoveSerial                                             text85       008750
_ReqResync                                                text65       009E34
_ResetDefaultMemory                                       text71       0068B2
_SLRCONA                                                  (abs)        000F0E
_SLRCONB                                                  (abs)        000F16
_SLRCONC                                                  (abs)        000F1E
_SLRCOND                                                  (abs)        000F23
_SLRCONE                                                  (abs)        000F2B
_SP1BRGH                                                  (abs)        000F9C
_SP1BRGL                                                  (abs)        000F9B
_SSP1ADD                                                  (abs)        000F93
_SSP1BUF                                                  (abs)        000F92
_SSP1CLKPPS                                               (abs)        000EB7
_SSP1CON1                                                 (abs)        000F96
_SSP1CON1bits                                             (abs)        000F96
_SSP1CON2                                                 (abs)        000F97
_SSP1CON2bits                                             (abs)        000F97
_SSP1DATPPS                                               (abs)        000EB8
_SSP1STAT                                                 (abs)        000F95
_SYSTEM_Initialize                                        text92       009906
_SaveNVM_VarSystem                                        text131      0097D4
_Segments_Set                                             text190      009F7C
_SetSegmentValue                                          text91       009DE8
_SetSegmentValueIntermitent                               text49       009934
_SetSegmentValueIntermitentMain                           text52       009EEC
_SetSegmentValueLearn                                     text15       007752
_SetSegmentValueMain                                      text12       009DB4
_ShowVersion                                              text90       008E92
_StateTRIAC                                               bssBANK1     000194
_StopOrder                                                text37       009D2A
_SumEnergyADCHist_array                                   bssBANK2     000260
_T0CON0                                                   (abs)        000FD5
_T0CON1                                                   (abs)        000FD6
_T1CLK                                                    (abs)        000FD2
_T1CON                                                    (abs)        000FCF
_T1CONbits                                                (abs)        000FCF
_T1GATE                                                   (abs)        000FD1
_T1GCON                                                   (abs)        000FD0
_T2CLKCON                                                 (abs)        000FBF
_T2CON                                                    (abs)        000FBD
_T2HLT                                                    (abs)        000FBE
_T2PR                                                     (abs)        000FBC
_T2RST                                                    (abs)        000FC0
_T2TMR                                                    (abs)        000FBB
_TMR0H                                                    (abs)        000FD4
_TMR0IE                                                   (abs)        007615
_TMR0IF                                                   (abs)        007655
_TMR0L                                                    (abs)        000FD3
_TMR0_DefaultInterruptHandler                             text204      00A0B8
_TMR0_ISR                                                 text202      009C32
_TMR0_Initialize                                          text98       009CC4
_TMR0_InterruptHandler                                    nvBANK2      0002E3
_TMR0_SetInterruptHandler                                 text99       009FA6
_TMR1H                                                    (abs)        000FCE
_TMR1L                                                    (abs)        000FCD
_TMR1_DefaultInterruptHandler                             text201      00A0B6
_TMR1_ISR                                                 text196      00971E
_TMR1_Initialize                                          text96       00961C
_TMR1_InterruptHandler                                    nvBANK2      0002DF
_TMR1_SetInterruptHandler                                 text97       009F9C
_TMR1_WriteTimer                                          text200      009D7E
_TMR2_DefaultInterruptHandler                             text193      00A0B4
_TMR2_ISR                                                 text188      006D38
_TMR2_Initialize                                          text94       00998C
_TMR2_InterruptHandler                                    nvBANK2      0002DD
_TMR2_SetInterruptHandler                                 text95       009F92
_TRISA                                                    (abs)        000F88
_TRISB                                                    (abs)        000F89
_TRISC                                                    (abs)        000F8A
_TRISD                                                    (abs)        000F8B
_TRISE                                                    (abs)        000F8C
_TX1REG                                                   (abs)        000F9A
_TX1STA                                                   (abs)        000F9E
_VerifyElectricalBrake                                    text114      008944
_VerifyFollowMe                                           text31       009C7E
_WDTCON0                                                  (abs)        000ED2
_WDTCON0bits                                              (abs)        000ED2
_WDTCON1                                                  (abs)        000ED3
_WPUA                                                     (abs)        000F10
_WPUB                                                     (abs)        000F18
_WPUC                                                     (abs)        000F20
_WPUD                                                     (abs)        000F25
_WPUE                                                     (abs)        000F2D
_WWDT_Initialize                                          text93       009F88
_WWDT_SoftEnable                                          text89       00A086
_WWDT_TimerClear                                          text88       009D46
_WaitPreFlash                                             text40       008B92
__HRAM                                                    (abs)        000000
__Habs1                                                   abs1         000000
__Hbank0                                                  bank0        000000
__Hbank1                                                  bank1        000000
__Hbank10                                                 bank10       000000
__Hbank11                                                 bank11       000000
__Hbank12                                                 bank12       000000
__Hbank13                                                 bank13       000000
__Hbank14                                                 bank14       000000
__Hbank2                                                  bank2        000000
__Hbank3                                                  bank3        000000
__Hbank4                                                  bank4        000000
__Hbank5                                                  bank5        000000
__Hbank6                                                  bank6        000000
__Hbank7                                                  bank7        000000
__Hbank8                                                  bank8        000000
__Hbank9                                                  bank9        000000
__Hbigbss                                                 bigbss       000000
__Hbigdata                                                bigdata      000000
__Hbigram                                                 bigram       000000
__Hbigsfr                                                 bigsfr       000000
__Hbss                                                    bss          000000
__HbssBANK0                                               bssBANK0     000000
__HbssBANK1                                               bssBANK1     000000
__HbssBANK2                                               bssBANK2     000000
__HbssBANK3                                               bssBANK3     000000
__HbssCOMRAM                                              bssCOMRAM    000000
__Hcinit                                                  cinit        000000
__Hclrtext                                                clrtext      000000
__Hcomram                                                 comram       000000
__Hconfig                                                 config       30000C
__Hconst                                                  const        000000
__HcstackBANK0                                            cstackBANK0  000000
__HcstackBANK2                                            cstackBANK2  000000
__HcstackCOMRAM                                           cstackCOMRAM 000000
__Hdata                                                   data         000000
__HdataBANK0                                              dataBANK0    000000
__HdataBANK1                                              dataBANK1    000000
__HdataBANK2                                              dataBANK2    000000
__HdataBANK3                                              dataBANK3    000000
__Heeprom_data                                            eeprom_data  000000
__Hfarbss                                                 farbss       000000
__Hfardata                                                fardata      000000
__Hheap                                                   heap         000000
__Hibigdata                                               ibigdata     000000
__Hidata                                                  idata        000000
__HidataBANK0                                             idataBANK0   000000
__HidataBANK1                                             idataBANK1   000000
__HidataBANK2                                             idataBANK2   000000
__HidataBANK3                                             idataBANK3   000000
__Hidloc                                                  idloc        200010
__Hifardata                                               ifardata     000000
__Hinit                                                   init         0000A0
__Hintcode                                                intcode      00009C
__Hintcode_body                                           intcode_body 000000
__Hintcodelo                                              intcodelo    00009C
__Hintentry                                               intentry     000000
__Hintret                                                 intret       000000
__Hintsave_regs                                           intsave_regs 000000
__Hirdata                                                 irdata       000000
__Hmediumconst                                            mediumconst  000000
__HnvBANK1                                                nvBANK1      000000
__HnvBANK2                                                nvBANK2      000000
__HnvFARRAM                                               nvFARRAM     000000
__Hnvbit                                                  nvbit        000000
__Hnvrram                                                 nvrram       000000
__Hparam                                                  rparam       000000
__Hpowerup                                                powerup      00009C
__Hram                                                    ram          000000
__Hramtop                                                 ramtop       000F00
__Hrbit                                                   rbit         000000
__Hrbss                                                   rbss         000000
__Hrdata                                                  rdata        000000
__Hreset_vec                                              reset_vec    000006
__Hrparam                                                 rparam       000000
__Hsfr                                                    sfr          000000
__Hsmallconst                                             smallconst   000F22
__Hspace_0                                                (abs)        00A0BD
__Hspace_1                                                (abs)        0003F7
__Hspace_2                                                (abs)        000000
__Hspace_4                                                (abs)        60000C
__Hstack                                                  stack        000000
__Hstruct                                                 struct       000000
__Htemp                                                   temp         000051
__Htext                                                   text         000000
__Htext0                                                  text0        000000
__Htext1                                                  text1        000000
__Htext10                                                 text10       000000
__Htext100                                                text100      000000
__Htext101                                                text101      000000
__Htext102                                                text102      000000
__Htext103                                                text103      000000
__Htext104                                                text104      000000
__Htext105                                                text105      000000
__Htext106                                                text106      000000
__Htext107                                                text107      000000
__Htext108                                                text108      000000
__Htext109                                                text109      000000
__Htext11                                                 text11       000000
__Htext110                                                text110      000000
__Htext111                                                text111      000000
__Htext112                                                text112      000000
__Htext113                                                text113      000000
__Htext114                                                text114      000000
__Htext115                                                text115      000000
__Htext116                                                text116      000000
__Htext117                                                text117      000000
__Htext118                                                text118      000000
__Htext119                                                text119      000000
__Htext12                                                 text12       000000
__Htext120                                                text120      000000
__Htext121                                                text121      000000
__Htext122                                                text122      000000
__Htext123                                                text123      000000
__Htext124                                                text124      000000
__Htext125                                                text125      000000
__Htext126                                                text126      000000
__Htext127                                                text127      000000
__Htext128                                                text128      000000
__Htext129                                                text129      000000
__Htext13                                                 text13       000000
__Htext130                                                text130      000000
__Htext131                                                text131      000000
__Htext132                                                text132      000000
__Htext133                                                text133      000000
__Htext134                                                text134      000000
__Htext135                                                text135      000000
__Htext136                                                text136      000000
__Htext137                                                text137      000000
__Htext138                                                text138      000000
__Htext139                                                text139      000000
__Htext14                                                 text14       000000
__Htext140                                                text140      000000
__Htext141                                                text141      000000
__Htext142                                                text142      000000
__Htext143                                                text143      000000
__Htext144                                                text144      000000
__Htext145                                                text145      000000
__Htext146                                                text146      000000
__Htext147                                                text147      000000
__Htext148                                                text148      000000
__Htext149                                                text149      000000
__Htext15                                                 text15       000000
__Htext150                                                text150      000000
__Htext151                                                text151      000000
__Htext152                                                text152      000000
__Htext153                                                text153      000000
__Htext154                                                text154      000000
__Htext155                                                text155      000000
__Htext156                                                text156      000000
__Htext157                                                text157      000000
__Htext158                                                text158      000000
__Htext159                                                text159      000000
__Htext16                                                 text16       000000
__Htext160                                                text160      000000
__Htext161                                                text161      000000
__Htext162                                                text162      000000
__Htext163                                                text163      000000
__Htext164                                                text164      000000
__Htext165                                                text165      000000
__Htext166                                                text166      000000
__Htext167                                                text167      000000
__Htext168                                                text168      000000
__Htext169                                                text169      000000
__Htext17                                                 text17       000000
__Htext170                                                text170      000000
__Htext171                                                text171      000000
__Htext172                                                text172      000000
__Htext173                                                text173      000000
__Htext174                                                text174      000000
__Htext175                                                text175      000000
__Htext176                                                text176      000000
__Htext177                                                text177      000000
__Htext178                                                text178      000000
__Htext179                                                text179      000000
__Htext18                                                 text18       000000
__Htext180                                                text180      000000
__Htext181                                                text181      000000
__Htext182                                                text182      000000
__Htext183                                                text183      000000
__Htext184                                                text184      000000
__Htext185                                                text185      000000
__Htext186                                                text186      000000
__Htext188                                                text188      000000
__Htext189                                                text189      000000
__Htext19                                                 text19       000000
__Htext190                                                text190      000000
__Htext191                                                text191      000000
__Htext192                                                text192      000000
__Htext193                                                text193      000000
__Htext194                                                text194      000000
__Htext195                                                text195      000000
__Htext196                                                text196      000000
__Htext197                                                text197      000000
__Htext198                                                text198      000000
__Htext199                                                text199      000000
__Htext2                                                  text2        000000
__Htext20                                                 text20       000000
__Htext200                                                text200      000000
__Htext201                                                text201      000000
__Htext202                                                text202      000000
__Htext203                                                text203      000000
__Htext204                                                text204      000000
__Htext205                                                text205      000000
__Htext206                                                text206      000000
__Htext207                                                text207      000000
__Htext208                                                text208      000000
__Htext209                                                text209      000000
__Htext21                                                 text21       000000
__Htext210                                                text210      000000
__Htext211                                                text211      000000
__Htext22                                                 text22       000000
__Htext23                                                 text23       000000
__Htext24                                                 text24       000000
__Htext25                                                 text25       000000
__Htext26                                                 text26       000000
__Htext27                                                 text27       000000
__Htext28                                                 text28       000000
__Htext29                                                 text29       000000
__Htext3                                                  text3        000000
__Htext30                                                 text30       000000
__Htext31                                                 text31       000000
__Htext32                                                 text32       000000
__Htext33                                                 text33       000000
__Htext34                                                 text34       000000
__Htext35                                                 text35       000000
__Htext36                                                 text36       000000
__Htext37                                                 text37       000000
__Htext38                                                 text38       000000
__Htext39                                                 text39       000000
__Htext4                                                  text4        000000
__Htext40                                                 text40       000000
__Htext41                                                 text41       000000
__Htext42                                                 text42       000000
__Htext43                                                 text43       000000
__Htext44                                                 text44       000000
__Htext45                                                 text45       000000
__Htext46                                                 text46       000000
__Htext47                                                 text47       000000
__Htext48                                                 text48       000000
__Htext49                                                 text49       000000
__Htext5                                                  text5        000000
__Htext50                                                 text50       000000
__Htext51                                                 text51       000000
__Htext52                                                 text52       000000
__Htext53                                                 text53       000000
__Htext54                                                 text54       000000
__Htext55                                                 text55       000000
__Htext56                                                 text56       000000
__Htext57                                                 text57       000000
__Htext58                                                 text58       000000
__Htext59                                                 text59       000000
__Htext6                                                  text6        000000
__Htext60                                                 text60       000000
__Htext61                                                 text61       000000
__Htext62                                                 text62       000000
__Htext63                                                 text63       000000
__Htext64                                                 text64       000000
__Htext65                                                 text65       000000
__Htext66                                                 text66       000000
__Htext67                                                 text67       000000
__Htext68                                                 text68       000000
__Htext69                                                 text69       000000
__Htext7                                                  text7        000000
__Htext70                                                 text70       000000
__Htext71                                                 text71       000000
__Htext72                                                 text72       000000
__Htext73                                                 text73       000000
__Htext74                                                 text74       000000
__Htext75                                                 text75       000000
__Htext76                                                 text76       000000
__Htext77                                                 text77       000000
__Htext78                                                 text78       000000
__Htext79                                                 text79       000000
__Htext8                                                  text8        000000
__Htext80                                                 text80       000000
__Htext81                                                 text81       000000
__Htext82                                                 text82       000000
__Htext83                                                 text83       000000
__Htext84                                                 text84       000000
__Htext85                                                 text85       000000
__Htext86                                                 text86       000000
__Htext87                                                 text87       000000
__Htext88                                                 text88       000000
__Htext89                                                 text89       000000
__Htext9                                                  text9        000000
__Htext90                                                 text90       000000
__Htext91                                                 text91       000000
__Htext92                                                 text92       000000
__Htext93                                                 text93       000000
__Htext94                                                 text94       000000
__Htext95                                                 text95       000000
__Htext96                                                 text96       000000
__Htext97                                                 text97       000000
__Htext98                                                 text98       000000
__Htext99                                                 text99       000000
__LRAM                                                    (abs)        000001
__Labs1                                                   abs1         000000
__Lbank0                                                  bank0        000000
__Lbank1                                                  bank1        000000
__Lbank10                                                 bank10       000000
__Lbank11                                                 bank11       000000
__Lbank12                                                 bank12       000000
__Lbank13                                                 bank13       000000
__Lbank14                                                 bank14       000000
__Lbank2                                                  bank2        000000
__Lbank3                                                  bank3        000000
__Lbank4                                                  bank4        000000
__Lbank5                                                  bank5        000000
__Lbank6                                                  bank6        000000
__Lbank7                                                  bank7        000000
__Lbank8                                                  bank8        000000
__Lbank9                                                  bank9        000000
__Lbigbss                                                 bigbss       000000
__Lbigdata                                                bigdata      000000
__Lbigram                                                 bigram       000000
__Lbigsfr                                                 bigsfr       000000
__Lbss                                                    bss          000000
__LbssBANK0                                               bssBANK0     000000
__LbssBANK1                                               bssBANK1     000000
__LbssBANK2                                               bssBANK2     000000
__LbssBANK3                                               bssBANK3     000000
__LbssCOMRAM                                              bssCOMRAM    000000
__Lcinit                                                  cinit        000000
__Lclrtext                                                clrtext      000000
__Lcomram                                                 comram       000000
__Lconfig                                                 config       000000
__Lconst                                                  const        000000
__LcstackBANK0                                            cstackBANK0  000000
__LcstackBANK2                                            cstackBANK2  000000
__LcstackCOMRAM                                           cstackCOMRAM 000000
__Ldata                                                   data         000000
__LdataBANK0                                              dataBANK0    000000
__LdataBANK1                                              dataBANK1    000000
__LdataBANK2                                              dataBANK2    000000
__LdataBANK3                                              dataBANK3    000000
__Leeprom_data                                            eeprom_data  000000
__Lfarbss                                                 farbss       000000
__Lfardata                                                fardata      000000
__Lheap                                                   heap         000000
__Libigdata                                               ibigdata     000000
__Lidata                                                  idata        000000
__LidataBANK0                                             idataBANK0   000000
__LidataBANK1                                             idataBANK1   000000
__LidataBANK2                                             idataBANK2   000000
__LidataBANK3                                             idataBANK3   000000
__Lidloc                                                  idloc        000000
__Lifardata                                               ifardata     000000
__Linit                                                   init         00009C
__Lintcode                                                intcode      000008
__Lintcode_body                                           intcode_body 000000
__Lintcodelo                                              intcodelo    00009C
__Lintentry                                               intentry     000000
__Lintret                                                 intret       000000
__Lintsave_regs                                           intsave_regs 000000
__Lirdata                                                 irdata       000000
__Lmediumconst                                            mediumconst  000000
__LnvBANK1                                                nvBANK1      000000
__LnvBANK2                                                nvBANK2      000000
__LnvFARRAM                                               nvFARRAM     000000
__Lnvbit                                                  nvbit        000000
__Lnvrram                                                 nvrram       000000
__Lparam                                                  rparam       000000
__Lpowerup                                                powerup      00009C
__Lram                                                    ram          000000
__Lramtop                                                 ramtop       000F00
__Lrbit                                                   rbit         000000
__Lrbss                                                   rbss         000000
__Lrdata                                                  rdata        000000
__Lreset_vec                                              reset_vec    000000
__Lrparam                                                 rparam       000000
__Lsfr                                                    sfr          000000
__Lsmallconst                                             smallconst   000F00
__Lspace_0                                                (abs)        000000
__Lspace_1                                                (abs)        000000
__Lspace_2                                                (abs)        000000
__Lspace_4                                                (abs)        000000
__Lstack                                                  stack        000000
__Lstruct                                                 struct       000000
__Ltemp                                                   temp         000050
__Ltext                                                   text         000000
__Ltext0                                                  text0        000000
__Ltext1                                                  text1        000000
__Ltext10                                                 text10       000000
__Ltext100                                                text100      000000
__Ltext101                                                text101      000000
__Ltext102                                                text102      000000
__Ltext103                                                text103      000000
__Ltext104                                                text104      000000
__Ltext105                                                text105      000000
__Ltext106                                                text106      000000
__Ltext107                                                text107      000000
__Ltext108                                                text108      000000
__Ltext109                                                text109      000000
__Ltext11                                                 text11       000000
__Ltext110                                                text110      000000
__Ltext111                                                text111      000000
__Ltext112                                                text112      000000
__Ltext113                                                text113      000000
__Ltext114                                                text114      000000
__Ltext115                                                text115      000000
__Ltext116                                                text116      000000
__Ltext117                                                text117      000000
__Ltext118                                                text118      000000
__Ltext119                                                text119      000000
__Ltext12                                                 text12       000000
__Ltext120                                                text120      000000
__Ltext121                                                text121      000000
__Ltext122                                                text122      000000
__Ltext123                                                text123      000000
__Ltext124                                                text124      000000
__Ltext125                                                text125      000000
__Ltext126                                                text126      000000
__Ltext127                                                text127      000000
__Ltext128                                                text128      000000
__Ltext129                                                text129      000000
__Ltext13                                                 text13       000000
__Ltext130                                                text130      000000
__Ltext131                                                text131      000000
__Ltext132                                                text132      000000
__Ltext133                                                text133      000000
__Ltext134                                                text134      000000
__Ltext135                                                text135      000000
__Ltext136                                                text136      000000
__Ltext137                                                text137      000000
__Ltext138                                                text138      000000
__Ltext139                                                text139      000000
__Ltext14                                                 text14       000000
__Ltext140                                                text140      000000
__Ltext141                                                text141      000000
__Ltext142                                                text142      000000
__Ltext143                                                text143      000000
__Ltext144                                                text144      000000
__Ltext145                                                text145      000000
__Ltext146                                                text146      000000
__Ltext147                                                text147      000000
__Ltext148                                                text148      000000
__Ltext149                                                text149      000000
__Ltext15                                                 text15       000000
__Ltext150                                                text150      000000
__Ltext151                                                text151      000000
__Ltext152                                                text152      000000
__Ltext153                                                text153      000000
__Ltext154                                                text154      000000
__Ltext155                                                text155      000000
__Ltext156                                                text156      000000
__Ltext157                                                text157      000000
__Ltext158                                                text158      000000
__Ltext159                                                text159      000000
__Ltext16                                                 text16       000000
__Ltext160                                                text160      000000
__Ltext161                                                text161      000000
__Ltext162                                                text162      000000
__Ltext163                                                text163      000000
__Ltext164                                                text164      000000
__Ltext165                                                text165      000000
__Ltext166                                                text166      000000
__Ltext167                                                text167      000000
__Ltext168                                                text168      000000
__Ltext169                                                text169      000000
__Ltext17                                                 text17       000000
__Ltext170                                                text170      000000
__Ltext171                                                text171      000000
__Ltext172                                                text172      000000
__Ltext173                                                text173      000000
__Ltext174                                                text174      000000
__Ltext175                                                text175      000000
__Ltext176                                                text176      000000
__Ltext177                                                text177      000000
__Ltext178                                                text178      000000
__Ltext179                                                text179      000000
__Ltext18                                                 text18       000000
__Ltext180                                                text180      000000
__Ltext181                                                text181      000000
__Ltext182                                                text182      000000
__Ltext183                                                text183      000000
__Ltext184                                                text184      000000
__Ltext185                                                text185      000000
__Ltext186                                                text186      000000
__Ltext188                                                text188      000000
__Ltext189                                                text189      000000
__Ltext19                                                 text19       000000
__Ltext190                                                text190      000000
__Ltext191                                                text191      000000
__Ltext192                                                text192      000000
__Ltext193                                                text193      000000
__Ltext194                                                text194      000000
__Ltext195                                                text195      000000
__Ltext196                                                text196      000000
__Ltext197                                                text197      000000
__Ltext198                                                text198      000000
__Ltext199                                                text199      000000
__Ltext2                                                  text2        000000
__Ltext20                                                 text20       000000
__Ltext200                                                text200      000000
__Ltext201                                                text201      000000
__Ltext202                                                text202      000000
__Ltext203                                                text203      000000
__Ltext204                                                text204      000000
__Ltext205                                                text205      000000
__Ltext206                                                text206      000000
__Ltext207                                                text207      000000
__Ltext208                                                text208      000000
__Ltext209                                                text209      000000
__Ltext21                                                 text21       000000
__Ltext210                                                text210      000000
__Ltext211                                                text211      000000
__Ltext22                                                 text22       000000
__Ltext23                                                 text23       000000
__Ltext24                                                 text24       000000
__Ltext25                                                 text25       000000
__Ltext26                                                 text26       000000
__Ltext27                                                 text27       000000
__Ltext28                                                 text28       000000
__Ltext29                                                 text29       000000
__Ltext3                                                  text3        000000
__Ltext30                                                 text30       000000
__Ltext31                                                 text31       000000
__Ltext32                                                 text32       000000
__Ltext33                                                 text33       000000
__Ltext34                                                 text34       000000
__Ltext35                                                 text35       000000
__Ltext36                                                 text36       000000
__Ltext37                                                 text37       000000
__Ltext38                                                 text38       000000
__Ltext39                                                 text39       000000
__Ltext4                                                  text4        000000
__Ltext40                                                 text40       000000
__Ltext41                                                 text41       000000
__Ltext42                                                 text42       000000
__Ltext43                                                 text43       000000
__Ltext44                                                 text44       000000
__Ltext45                                                 text45       000000
__Ltext46                                                 text46       000000
__Ltext47                                                 text47       000000
__Ltext48                                                 text48       000000
__Ltext49                                                 text49       000000
__Ltext5                                                  text5        000000
__Ltext50                                                 text50       000000
__Ltext51                                                 text51       000000
__Ltext52                                                 text52       000000
__Ltext53                                                 text53       000000
__Ltext54                                                 text54       000000
__Ltext55                                                 text55       000000
__Ltext56                                                 text56       000000
__Ltext57                                                 text57       000000
__Ltext58                                                 text58       000000
__Ltext59                                                 text59       000000
__Ltext6                                                  text6        000000
__Ltext60                                                 text60       000000
__Ltext61                                                 text61       000000
__Ltext62                                                 text62       000000
__Ltext63                                                 text63       000000
__Ltext64                                                 text64       000000
__Ltext65                                                 text65       000000
__Ltext66                                                 text66       000000
__Ltext67                                                 text67       000000
__Ltext68                                                 text68       000000
__Ltext69                                                 text69       000000
__Ltext7                                                  text7        000000
__Ltext70                                                 text70       000000
__Ltext71                                                 text71       000000
__Ltext72                                                 text72       000000
__Ltext73                                                 text73       000000
__Ltext74                                                 text74       000000
__Ltext75                                                 text75       000000
__Ltext76                                                 text76       000000
__Ltext77                                                 text77       000000
__Ltext78                                                 text78       000000
__Ltext79                                                 text79       000000
__Ltext8                                                  text8        000000
__Ltext80                                                 text80       000000
__Ltext81                                                 text81       000000
__Ltext82                                                 text82       000000
__Ltext83                                                 text83       000000
__Ltext84                                                 text84       000000
__Ltext85                                                 text85       000000
__Ltext86                                                 text86       000000
__Ltext87                                                 text87       000000
__Ltext88                                                 text88       000000
__Ltext89                                                 text89       000000
__Ltext9                                                  text9        000000
__Ltext90                                                 text90       000000
__Ltext91                                                 text91       000000
__Ltext92                                                 text92       000000
__Ltext93                                                 text93       000000
__Ltext94                                                 text94       000000
__Ltext95                                                 text95       000000
__Ltext96                                                 text96       000000
__Ltext97                                                 text97       000000
__Ltext98                                                 text98       000000
__Ltext99                                                 text99       000000
__S0                                                      (abs)        00A0BD
__S1                                                      (abs)        0003F7
__S4                                                      (abs)        000000
__S5                                                      (abs)        000000
___awdiv                                                  text11       0085C6
___awdiv@counter                                          cstackCOMRAM 000018
___awdiv@dividend                                         cstackCOMRAM 000014
___awdiv@divisor                                          cstackCOMRAM 000016
___awdiv@quotient                                         cstackCOMRAM 00001A
___awdiv@sign                                             cstackCOMRAM 000019
___heap_hi                                                (abs)        000000
___heap_lo                                                (abs)        000000
___inthi_sp                                               stack        000000
___intlo_sp                                               stack        000000
___lbdiv                                                  text51       00979A
___lbdiv@counter                                          cstackCOMRAM 000012
___lbdiv@dividend                                         cstackCOMRAM 000011
___lbdiv@divisor                                          cstackCOMRAM 000010
___lbdiv@quotient                                         cstackCOMRAM 000013
___lbmod                                                  text10       009B44
___lbmod@counter                                          cstackCOMRAM 000012
___lbmod@dividend                                         cstackCOMRAM 000011
___lbmod@divisor                                          cstackCOMRAM 000010
___lbmod@rem                                              cstackCOMRAM 000013
___lldiv                                                  text16       0086CE
___lldiv@counter                                          cstackCOMRAM 00001C
___lldiv@dividend                                         cstackCOMRAM 000010
___lldiv@divisor                                          cstackCOMRAM 000014
___lldiv@quotient                                         cstackCOMRAM 000018
___lmul                                                   text36       00922E
___lmul@multiplicand                                      cstackCOMRAM 000021
___lmul@multiplier                                        cstackCOMRAM 00001D
___lmul@product                                           cstackCOMRAM 000025
___lwdiv                                                  text126      00932E
___lwdiv@counter                                          cstackCOMRAM 000014
___lwdiv@dividend                                         cstackCOMRAM 000010
___lwdiv@divisor                                          cstackCOMRAM 000012
___lwdiv@quotient                                         cstackCOMRAM 000015
___param_bank                                             (abs)        000000
___rparam_used                                            (abs)        000001
___sp                                                     stack        000000
___wmul                                                   text128      009C0C
___wmul@multiplicand                                      cstackCOMRAM 000012
___wmul@multiplier                                        cstackCOMRAM 000010
___wmul@product                                           cstackCOMRAM 000014
__accesstop                                               (abs)        000060
__activetblptr                                            (abs)        000003
__end_of_ADCC_GetSingleConversion                         text195      009ED8
__end_of_ADCC_Initialize                                  text111      009420
__end_of_ClearFlag_rfCMD                                  text13       00A062
__end_of_CloseOrder                                       text32       009BE6
__end_of_ControlCounterMoves                              text130      009180
__end_of_ControlCurrent                                   text120      006D38
__end_of_ControlDecelarationFactor                        text29       009E34
__end_of_ControlInputs                                    text119      00732E
__end_of_ControlLights                                    text115      004A4E
__end_of_ControlMotor                                     text113      0056E4
__end_of_DecCHK                                           text66       009872
__end_of_Decrypt                                          text62       007BD8
__end_of_DecryptPacket_12BIT                              text67       00839E
__end_of_EUSART1_DefaultErrorHandler                      text209      00A086
__end_of_EUSART1_DefaultFramingErrorHandler               text208      00A0BC
__end_of_EUSART1_DefaultOverrunErrorHandler               text207      00A080
__end_of_EUSART1_Initialize                               text105      00884E
__end_of_EUSART1_Read                                     text55       00954E
__end_of_EUSART1_Receive_ISR                              text206      008158
__end_of_EUSART1_RxDataHandler                            text210      009D2A
__end_of_EUSART1_SetErrorHandler                          text110      009FE2
__end_of_EUSART1_SetFramingErrorHandler                   text109      009FD8
__end_of_EUSART1_SetOverrunErrorHandler                   text108      009FCE
__end_of_EUSART1_SetRxInterruptHandler                    text107      009FC4
__end_of_EUSART1_SetTxInterruptHandler                    text106      009FBA
__end_of_EUSART1_Transmit_ISR                             text205      0098D6
__end_of_EUSART1_Write                                    text80       00969E
__end_of_EUSART1_is_rx_ready                              text112      009F36
__end_of_GetMotorPower                                    text129      007C9E
__end_of_GetOpenOrder                                     text50       0060AC
__end_of_GetSecurityStateInClosing                        text38       008018
__end_of_GetSecurityStateInOpening                        text48       0080BE
__end_of_HopCHK                                           text63       008540
__end_of_I2C1_CallbackReturnReset                         text165      00A09A
__end_of_I2C1_CallbackReturnStop                          text166      00A09E
__end_of_I2C1_Close                                       text183      009D08
__end_of_I2C1_DO_ADDRESS_NACK                             text142      0094BC
__end_of_I2C1_DO_IDLE                                     text156      00A000
__end_of_I2C1_DO_RCEN                                     text151      009FF6
__end_of_I2C1_DO_RESET                                    text143      009FEC
__end_of_I2C1_DO_RX                                       text152      008944
__end_of_I2C1_DO_RX_ACK                                   text146      00A028
__end_of_I2C1_DO_RX_NACK_RESTART                          text144      00A018
__end_of_I2C1_DO_RX_NACK_STOP                             text145      00A020
__end_of_I2C1_DO_SEND_ADR_READ                            text155      009F70
__end_of_I2C1_DO_SEND_ADR_WRITE                           text154      009F62
__end_of_I2C1_DO_SEND_RESTART                             text148      00A038
__end_of_I2C1_DO_SEND_RESTART_READ                        text150      00A048
__end_of_I2C1_DO_SEND_RESTART_WRITE                       text149      00A040
__end_of_I2C1_DO_SEND_STOP                                text147      00A030
__end_of_I2C1_DO_TX                                       text153      0084B6
__end_of_I2C1_DO_TX_EMPTY                                 text157      008FB8
__end_of_I2C1_Initialize                                  text104      009F14
__end_of_I2C1_MasterClearIrq                              text186      00A07A
__end_of_I2C1_MasterClose                                 text185      00A0B2
__end_of_I2C1_MasterDisableIrq                            text184      00A0AE
__end_of_I2C1_MasterEnableRestart                         text181      00A0A6
__end_of_I2C1_MasterFsm                                   text141      00932E
__end_of_I2C1_MasterGetRxData                             text162      00A092
__end_of_I2C1_MasterIsNack                                text159      009F7C
__end_of_I2C1_MasterOpen                                  text136      009E94
__end_of_I2C1_MasterOperation                             text138      0099E4
__end_of_I2C1_MasterSendAck                               text161      00A06E
__end_of_I2C1_MasterSendNack                              text163      00A074
__end_of_I2C1_MasterSendTxData                            text160      00A050
__end_of_I2C1_MasterSetIrq                                text158      00A068
__end_of_I2C1_MasterStart                                 text182      00A0AA
__end_of_I2C1_MasterStartRx                               text164      00A096
__end_of_I2C1_MasterStop                                  text180      00A0A2
__end_of_I2C1_MasterWaitForEvent                          text140      00A010
__end_of_I2C1_MasterWrite                                 text137      00A008
__end_of_I2C1_Open                                        text135      0086CE
__end_of_I2C1_Poller                                      text139      009F46
__end_of_I2C1_Read1ByteRegister                           text72       0090CC
__end_of_I2C1_SetAddressNackCallback                      text134      009E7C
__end_of_I2C1_SetBuffer                                   text179      009E1C
__end_of_I2C1_SetCallback                                 text178      008DBE
__end_of_I2C1_SetDataCompleteCallback                     text177      009EAC
__end_of_INTERRUPT_Initialize                             text103      00A08E
__end_of_INTERRUPT_InterruptManager                       intcode      00009C
__end_of_InitFullAutoTime                                 text42       009DE8
__end_of_InitReceiver                                     text5        009DB4
__end_of_InitSoftStart                                    text46       009070
__end_of_InitSoftStop                                     text28       009506
__end_of_InitWalkAutoTime                                 text47       009EEC
__end_of_LoadManufCode                                    text61       009CC4
__end_of_NormalKeyGen                                     text60       00754C
__end_of_OSCILLATOR_Initialize                            text102      009EC2
__end_of_OpenFullOrder                                    text41       009C0C
__end_of_OpenWalkOrder                                    text43       008D50
__end_of_PIN_MANAGER_Initialize                           text101      0081F0
__end_of_PMD_Initialize                                   text100      009D7E
__end_of_RGB_Set                                          text117      009F54
__end_of_ReadADC                                          text194      0092DA
__end_of_ReadSerial                                       text86       008CE2
__end_of_RemoveSerial                                     text85       0087D0
__end_of_ReqResync                                        text65       009E4C
__end_of_ResetDefaultMemory                               text71       006A3C
__end_of_SYSTEM_Initialize                                text92       009934
__end_of_SaveNVM_VarSystem                                text131      00980C
__end_of_Segments_Set                                     text190      009F88
__end_of_SetSegmentValue                                  text91       009E02
__end_of_SetSegmentValueIntermitent                       text49       009960
__end_of_SetSegmentValueIntermitentMain                   text52       009F00
__end_of_SetSegmentValueLearn                             text15       00784E
__end_of_SetSegmentValueMain                              text12       009DCE
__end_of_ShowVersion                                      text90       008EF8
__end_of_StopOrder                                        text37       009D46
__end_of_TMR0_DefaultInterruptHandler                     text204      00A0BA
__end_of_TMR0_ISR                                         text202      009C58
__end_of_TMR0_Initialize                                  text98       009CE6
__end_of_TMR0_SetInterruptHandler                         text99       009FB0
__end_of_TMR1_DefaultInterruptHandler                     text201      00A0B8
__end_of_TMR1_ISR                                         text196      00975E
__end_of_TMR1_Initialize                                  text96       00965E
__end_of_TMR1_SetInterruptHandler                         text97       009FA6
__end_of_TMR1_WriteTimer                                  text200      009D9A
__end_of_TMR2_DefaultInterruptHandler                     text193      00A0B6
__end_of_TMR2_ISR                                         text188      006E86
__end_of_TMR2_Initialize                                  text94       0099B8
__end_of_TMR2_SetInterruptHandler                         text95       009F9C
__end_of_VerifyElectricalBrake                            text114      0089BC
__end_of_VerifyFollowMe                                   text31       009CA2
__end_of_WWDT_Initialize                                  text93       009F92
__end_of_WWDT_SoftEnable                                  text89       00A08A
__end_of_WWDT_TimerClear                                  text88       009D62
__end_of_WaitPreFlash                                     text40       008C02
__end_of___awdiv                                          text11       00864A
__end_of___lbdiv                                          text51       0097D4
__end_of___lbmod                                          text10       009B6E
__end_of___lldiv                                          text16       008750
__end_of___lmul                                           text36       009284
__end_of___lwdiv                                          text126      009380
__end_of___wmul                                           text128      009C32
__end_of__initialization                                  cinit        007EBE
__end_of_actionZone_Closed                                text39       007F72
__end_of_actionZone_Closing                               text33       004FD0
__end_of_actionZone_Opened                                text30       005D12
__end_of_actionZone_Opening                               text24       00549A
__end_of_calculateMean                                    text23       008F5A
__end_of_checkNVM_VarSystem                               text70       00624C
__end_of_clearLearningValue                               text22       0088CA
__end_of_cmdMemoryIsEmpty                                 text84       008282
__end_of_confirmpackage                                   text81       009126
__end_of_controlLearnDigit                                text14       009906
__end_of_controlMotorForce                                text197      005906
__end_of_controlSaveRemote                                text9        007E18
__end_of_controlSelectRemote                              text6        0043DE
__end_of_controlTimeslots                                 text191      00671C
__end_of_controlVelocity                                  text26       005B24
__end_of_decrementTimeslot                                text192      009B98
__end_of_eusartparser                                     text74       001908
__end_of_generateErrorLearnig                             text19       008E92
__end_of_getCurrentComparator                             text127      006582
__end_of_getHopCode                                       text64       006FB4
__end_of_getKeyPressed                                    text73       009E64
__end_of_getSerialCmd                                     text8        00946E
__end_of_getStateOpenPosition                             text27       00743E
__end_of_getTimeDecelaration                              text35       007A30
__end_of_getTypeRemote                                    text7        00A05C
__end_of_i2c1_fsmStateTable                               smallconst   000F21
__end_of_i2c_readDataBlock                                text87       008AAA
__end_of_i2c_writeNBytes                                  text132      008B92
__end_of_init_package                                     text82       0098A4
__end_of_keeloqDecryptPacket                              text57       005EE4
__end_of_keeloq_classic_decrypt_packet                    text59       0091D8
__end_of_loadNVM_VarSystem                                text69       0070E2
__end_of_load_New_Menu                                    text4        004D44
__end_of_main                                             text0        006BC4
__end_of_memcpy                                           text133      00961C
__end_of_rd1RegCompleteHandler                            text174      009AEC
__end_of_rd1RegCompleteHandler@i2c1_master_example$F500   text170      009A68
__end_of_rd2RegCompleteHandler                            text173      009AC0
__end_of_rd2RegCompleteHandler@i2c1_master_example$F511   text169      009A3C
__end_of_rdBlkRegCompleteHandler                          text171      00971E
__end_of_rdBlkRegCompleteHandler@i2c1_master_example$F535 text167      0096DE
__end_of_readInputs                                       text68       007654
__end_of_readRFButtons                                    text56       0068B2
__end_of_read_eusartparser                                text78       003014
__end_of_read_package                                     text54       0093D0
__end_of_readbutton                                       text53       008E2A
__end_of_refreshADCZeroOffset                             text125      007752
__end_of_refreshCurrent                                   text121      009594
__end_of_refreshSegment                                   text189      0085C6
__end_of_rxi                                              text203      005246
__end_of_saveEnergyADCHist                                text124      009BC0
__end_of_saveNewSerial                                    text83       008C72
__end_of_setFlashLigth_ON                                 text118      00979A
__end_of_setPositionInvertionInClosing                    text34       00720A
__end_of_setPositionInvertionInOpening                    text25       007B0C
__end_of_setRGB_ON                                        text116      008312
__end_of_setValueToEdit                                   text3        003AEA
__end_of_sm_execute_ControlGate                           text17       00472A
__end_of_sm_execute_ControlLearning                       text18       002988
__end_of_sm_execute_main                                  text1        003FFC
__end_of_sm_execute_menuConfiguration                     text2        002270
__end_of_sm_get_current_state                             text45       009F26
__end_of_sm_init                                          text20       00922E
__end_of_sm_restart                                       text21       0095D8
__end_of_sm_send_event                                    text44       009014
__end_of_sumEnergyADC                                     text123      00842A
__end_of_sumHIST                                          text122      007948
__end_of_updateChangesToUart                              text77       008B1E
__end_of_validateRemoteSerialNumber                       text76       0063E8
__end_of_verifyProgramingMode                             text58       009840
__end_of_wr1RegCompleteHandler                            text175      009B18
__end_of_wr1RegCompleteHandler@i2c1_master_example$F517   text168      009A10
__end_of_wr2RegCompleteHandler                            text172      009A94
__end_of_wr2RegCompleteHandler@i2c1_master_example$F523   text176      009B44
__end_of_write_eusartparser                               text75       0035B8
__end_of_write_package                                    text79       00998C
__end_ofi2_GetMotorPower                                  text199      007D64
__end_ofi2_VerifyElectricalBrake                          text198      008A34
__initialization                                          cinit        007E18
__mediumconst                                             mediumconst  000000
__pbssBANK0                                               bssBANK0     000060
__pbssBANK1                                               bssBANK1     000100
__pbssBANK2                                               bssBANK2     000200
__pbssBANK3                                               bssBANK3     000300
__pbssCOMRAM                                              bssCOMRAM    00003B
__pcinit                                                  cinit        007E18
__pcstackBANK0                                            cstackBANK0  0000D8
__pcstackBANK2                                            cstackBANK2  0002EF
__pcstackCOMRAM                                           cstackCOMRAM 000001
__pdataBANK0                                              dataBANK0    0000FC
__pdataBANK1                                              dataBANK1    0001FE
__pdataBANK2                                              dataBANK2    0002F6
__pdataBANK3                                              dataBANK3    0003D2
__pidataBANK0                                             idataBANK0   00A0B2
__pidataBANK1                                             idataBANK1   00A0BC
__pidataBANK2                                             idataBANK2   00A050
__pidataBANK3                                             idataBANK3   009C58
__pintcode                                                intcode      000008
__pnvBANK1                                                nvBANK1      0001FD
__pnvBANK2                                                nvBANK2      0002DD
__psmallconst                                             smallconst   000F00
__ptext0                                                  text0        006A3C
__ptext1                                                  text1        003AEA
__ptext10                                                 text10       009B44
__ptext100                                                text100      009D62
__ptext101                                                text101      008158
__ptext102                                                text102      009EAC
__ptext103                                                text103      00A08A
__ptext104                                                text104      009F00
__ptext105                                                text105      0087D0
__ptext106                                                text106      009FB0
__ptext107                                                text107      009FBA
__ptext108                                                text108      009FC4
__ptext109                                                text109      009FCE
__ptext11                                                 text11       0085C6
__ptext110                                                text110      009FD8
__ptext111                                                text111      0093D0
__ptext112                                                text112      009F26
__ptext113                                                text113      00549A
__ptext114                                                text114      008944
__ptext115                                                text115      00472A
__ptext116                                                text116      008282
__ptext117                                                text117      009F46
__ptext118                                                text118      00975E
__ptext119                                                text119      00720A
__ptext12                                                 text12       009DB4
__ptext120                                                text120      006BC4
__ptext121                                                text121      00954E
__ptext122                                                text122      00784E
__ptext123                                                text123      00839E
__ptext124                                                text124      009B98
__ptext125                                                text125      007654
__ptext126                                                text126      00932E
__ptext127                                                text127      0063E8
__ptext128                                                text128      009C0C
__ptext129                                                text129      007BD8
__ptext13                                                 text13       00A05C
__ptext130                                                text130      009126
__ptext131                                                text131      0097D4
__ptext132                                                text132      008B1E
__ptext133                                                text133      0095D8
__ptext134                                                text134      009E64
__ptext135                                                text135      00864A
__ptext136                                                text136      009E7C
__ptext137                                                text137      00A000
__ptext138                                                text138      0099B8
__ptext139                                                text139      009F36
__ptext14                                                 text14       0098D6
__ptext140                                                text140      00A008
__ptext141                                                text141      0092DA
__ptext142                                                text142      00946E
__ptext143                                                text143      009FE2
__ptext144                                                text144      00A010
__ptext145                                                text145      00A018
__ptext146                                                text146      00A020
__ptext147                                                text147      00A028
__ptext148                                                text148      00A030
__ptext149                                                text149      00A038
__ptext15                                                 text15       007752
__ptext150                                                text150      00A040
__ptext151                                                text151      009FEC
__ptext152                                                text152      0088CA
__ptext153                                                text153      00842A
__ptext154                                                text154      009F54
__ptext155                                                text155      009F62
__ptext156                                                text156      009FF6
__ptext157                                                text157      008F5A
__ptext158                                                text158      00A062
__ptext159                                                text159      009F70
__ptext16                                                 text16       0086CE
__ptext160                                                text160      00A048
__ptext161                                                text161      00A068
__ptext162                                                text162      00A08E
__ptext163                                                text163      00A06E
__ptext164                                                text164      00A092
__ptext165                                                text165      00A096
__ptext166                                                text166      00A09A
__ptext167                                                text167      00969E
__ptext168                                                text168      0099E4
__ptext169                                                text169      009A10
__ptext17                                                 text17       0043DE
__ptext170                                                text170      009A3C
__ptext171                                                text171      0096DE
__ptext172                                                text172      009A68
__ptext173                                                text173      009A94
__ptext174                                                text174      009AC0
__ptext175                                                text175      009AEC
__ptext176                                                text176      009B18
__ptext177                                                text177      009E94
__ptext178                                                text178      008D50
__ptext179                                                text179      009E02
__ptext18                                                 text18       002270
__ptext180                                                text180      00A09E
__ptext181                                                text181      00A0A2
__ptext182                                                text182      00A0A6
__ptext183                                                text183      009CE6
__ptext184                                                text184      00A0AA
__ptext185                                                text185      00A0AE
__ptext186                                                text186      00A074
__ptext188                                                text188      006D38
__ptext189                                                text189      008540
__ptext19                                                 text19       008E2A
__ptext190                                                text190      009F7C
__ptext191                                                text191      006582
__ptext192                                                text192      009B6E
__ptext193                                                text193      00A0B4
__ptext194                                                text194      009284
__ptext195                                                text195      009EC2
__ptext196                                                text196      00971E
__ptext197                                                text197      0056E4
__ptext198                                                text198      0089BC
__ptext199                                                text199      007C9E
__ptext2                                                  text2        001908
__ptext20                                                 text20       0091D8
__ptext200                                                text200      009D7E
__ptext201                                                text201      00A0B6
__ptext202                                                text202      009C32
__ptext203                                                text203      004FD0
__ptext204                                                text204      00A0B8
__ptext205                                                text205      0098A4
__ptext206                                                text206      0080BE
__ptext207                                                text207      00A07A
__ptext208                                                text208      00A0BA
__ptext209                                                text209      00A080
__ptext21                                                 text21       009594
__ptext210                                                text210      009D08
__ptext211                                                text211      000000
__ptext22                                                 text22       00884E
__ptext23                                                 text23       008EF8
__ptext24                                                 text24       005246
__ptext25                                                 text25       007A30
__ptext26                                                 text26       005906
__ptext27                                                 text27       00732E
__ptext28                                                 text28       0094BC
__ptext29                                                 text29       009E1C
__ptext3                                                  text3        0035B8
__ptext30                                                 text30       005B24
__ptext31                                                 text31       009C7E
__ptext32                                                 text32       009BC0
__ptext33                                                 text33       004D44
__ptext34                                                 text34       0070E2
__ptext35                                                 text35       007948
__ptext36                                                 text36       00922E
__ptext37                                                 text37       009D2A
__ptext38                                                 text38       007F72
__ptext39                                                 text39       007EC8
__ptext4                                                  text4        004A4E
__ptext40                                                 text40       008B92
__ptext41                                                 text41       009BE6
__ptext42                                                 text42       009DCE
__ptext43                                                 text43       008CE2
__ptext44                                                 text44       008FB8
__ptext45                                                 text45       009F14
__ptext46                                                 text46       009014
__ptext47                                                 text47       009ED8
__ptext48                                                 text48       008018
__ptext49                                                 text49       009934
__ptext5                                                  text5        009D9A
__ptext50                                                 text50       005EE4
__ptext51                                                 text51       00979A
__ptext52                                                 text52       009EEC
__ptext53                                                 text53       008DBE
__ptext54                                                 text54       009380
__ptext55                                                 text55       009506
__ptext56                                                 text56       00671C
__ptext57                                                 text57       005D12
__ptext58                                                 text58       00980C
__ptext59                                                 text59       009180
__ptext6                                                  text6        003FFC
__ptext60                                                 text60       00743E
__ptext61                                                 text61       009CA2
__ptext62                                                 text62       007B0C
__ptext63                                                 text63       0084B6
__ptext64                                                 text64       006E86
__ptext65                                                 text65       009E34
__ptext66                                                 text66       009840
__ptext67                                                 text67       008312
__ptext68                                                 text68       00754C
__ptext69                                                 text69       006FB4
__ptext7                                                  text7        00A056
__ptext70                                                 text70       0060AC
__ptext71                                                 text71       0068B2
__ptext72                                                 text72       009070
__ptext73                                                 text73       009E4C
__ptext74                                                 text74       000F22
__ptext75                                                 text75       003014
__ptext76                                                 text76       00624C
__ptext77                                                 text77       008AAA
__ptext78                                                 text78       002988
__ptext79                                                 text79       009960
__ptext8                                                  text8        009420
__ptext80                                                 text80       00965E
__ptext81                                                 text81       0090CC
__ptext82                                                 text82       009872
__ptext83                                                 text83       008C02
__ptext84                                                 text84       0081F0
__ptext85                                                 text85       008750
__ptext86                                                 text86       008C72
__ptext87                                                 text87       008A34
__ptext88                                                 text88       009D46
__ptext89                                                 text89       00A086
__ptext9                                                  text9        007D64
__ptext90                                                 text90       008E92
__ptext91                                                 text91       009DE8
__ptext92                                                 text92       009906
__ptext93                                                 text93       009F88
__ptext94                                                 text94       00998C
__ptext95                                                 text95       009F92
__ptext96                                                 text96       00961C
__ptext97                                                 text97       009F9C
__ptext98                                                 text98       009CC4
__ptext99                                                 text99       009FA6
__ramtop                                                  ramtop       000F00
__smallconst                                              smallconst   000F00
_actionZone_Closed                                        text39       007EC8
_actionZone_Closing                                       text33       004D44
_actionZone_Opened                                        text30       005B24
_actionZone_Opening                                       text24       005246
_auxCounter                                               dataBANK0    0000FC
_aux_i                                                    bssBANK1     000190
_aux_in_auto_close                                        bssBANK1     00018F
_brakeElectric_st                                         bssBANK0     000078
_button_struct                                            bssCOMRAM    00004C
_calculateMean                                            text23       008EF8
_checkNVM_VarSystem                                       text70       0060AC
_classic_data                                             bssBANK2     000292
_clearLearningValue                                       text22       00884E
_cmdMemoryIsEmpty                                         text84       0081F0
_confirmpackage                                           text81       0090CC
_controlGate_stateMachine                                 bssBANK1     0001E6
_controlLearnDigit                                        text14       0098D6
_controlLearning_stateMachine                             bssBANK2     0002B2
_controlMotorForce                                        text197      0056E4
_controlSaveRemote                                        text9        007D64
_controlSelectRemote                                      text6        003FFC
_controlTimeslots                                         text191      006582
_controlVelocity                                          text26       005906
_control_limit_switch                                     bssBANK0     000081
_decrementTimeslot                                        text192      009B6E
_difTime                                                  bssBANK1     000193
_dispStruct                                               bssBANK0     000072
_done_changes                                             bssBANK1     00018E
_edit_Param                                               bssCOMRAM    000046
_erroranterior                                            bssBANK1     00018B
_eusart1RxBuffer                                          bssBANK2     00027C
_eusart1RxCount                                           bssBANK0     000093
_eusart1RxHead                                            bssBANK0     000095
_eusart1RxLastError                                       bssBANK1     00019D
_eusart1RxStatusBuffer                                    bssBANK2     000274
_eusart1RxTail                                            bssBANK0     000094
_eusart1TxBuffer                                          bssBANK2     000284
_eusart1TxBufferRemaining                                 nvBANK1      0001FD
_eusart1TxHead                                            bssBANK0     000097
_eusart1TxTail                                            bssBANK0     000096
_eusartparser                                             text74       000F22
_fimdecurso                                               bssBANK1     000175
_firstselectflag                                          dataBANK1    0001FE
_fullmotorPower                                           bssBANK0     000082
_generateErrorLearnig                                     text19       008E2A
_getCurrentComparator                                     text127      0063E8
_getHopCode                                               text64       006E86
_getKeyPressed                                            text73       009E4C
_getSerialCmd                                             text8        009420
_getStateOpenPosition                                     text27       00732E
_getTimeDecelaration                                      text35       007948
_getTypeRemote                                            text7        00A056
_i2c1_fsmStateTable                                       smallconst   000F01
_i2c_readDataBlock                                        text87       008A34
_i2c_writeNBytes                                          text132      008B1E
_idxAdcAquisition                                         bssBANK0     000091
_idxAdcZeroAquisition                                     bssBANK0     00008F
_idxSaveEnergyADCHist                                     bssBANK0     000090
_init_package                                             text82       009872
_keeloqDecryptPacket                                      text57       005D12
_keeloq_classic_decrypt_packet                            text59       009180
_lastKey                                                  bssBANK1     000198
_learn_st                                                 bssBANK0     000060
_listSyncValues                                           bssBANK3     000300
_loadNVM_VarSystem                                        text69       006FB4
_load_New_Menu                                            text4        004A4E
_main                                                     text0        006A3C
_main_stateMachine                                        bssBANK1     0001F1
_memcpy                                                   text133      0095D8
_memoryTEMP                                               bssBANK2     0002A2
_menuConfiguration_stateMachine                           bssBANK2     0002BD
_menu_st                                                  bssBANK1     000151
_numberOfErrorCurrent                                     bssBANK0     00008E
_pointSync                                                bssBANK0     00007A
_powerControl_st                                          bssBANK1     00017B
_programmer_enable                                        bssBANK0     000085
_rd1RegCompleteHandler                                    text174      009AC0
_rd1RegCompleteHandler@i2c1_master_example$F500           text170      009A3C
_rd2RegCompleteHandler                                    text173      009A94
_rd2RegCompleteHandler@i2c1_master_example$F511           text169      009A10
_rdBlkRegCompleteHandler                                  text171      0096DE
_rdBlkRegCompleteHandler@i2c1_master_example$F535         text167      00969E
_readInputs                                               text68       00754C
_readRFButtons                                            text56       00671C
_read_eusartparser                                        text78       002988
_read_package                                             text54       009380
_readbutton                                               text53       008DBE
_refreshADCZeroOffset                                     text125      007654
_refreshCurrent                                           text121      00954E
_refreshSegment                                           text189      008540
_rfCMD                                                    bssCOMRAM    00003B
_rxi                                                      text203      004FD0
_saveEnergyADCHist                                        text124      009B98
_saveNewSerial                                            text83       008C02
_security                                                 bssBANK1     00016A
_setFlashLigth_ON                                         text118      00975E
_setPositionInvertionInClosing                            text34       0070E2
_setPositionInvertionInOpening                            text25       007A30
_setRGB_ON                                                text116      008282
_setValueToEdit                                           text3        0035B8
_sm_execute_ControlGate                                   text17       0043DE
_sm_execute_ControlLearning                               text18       002270
_sm_execute_main                                          text1        003AEA
_sm_execute_menuConfiguration                             text2        001908
_sm_get_current_state                                     text45       009F14
_sm_init                                                  text20       0091D8
_sm_restart                                               text21       009594
_sm_send_event                                            text44       008FB8
_stateMotor                                               bssBANK0     000083
_sumEnergyADC                                             text123      00839E
_sumHIST                                                  text122      00784E
_temp                                                     bssBANK0     000080
_tempCounter                                              dataBANK2    0002F6
_temppower                                                bssBANK1     000192
_timer0ReloadVal16bit                                     bssBANK2     000290
_timer1ReloadVal                                          nvBANK2      0002E1
_ts_system                                                bssBANK1     00019E
_updateChangesToUart                                      text77       008AAA
_validateRemoteSerialNumber                               text76       00624C
_var_sys                                                  bssBANK1     000100
_var_sys_NVM                                              bssBANK0     000098
_verifyProgramingMode                                     text58       00980C
_waitZeroPeak                                             bssBANK1     000195
_wr1RegCompleteHandler                                    text175      009AEC
_wr1RegCompleteHandler@i2c1_master_example$F517           text168      0099E4
_wr2RegCompleteHandler                                    text172      009A68
_wr2RegCompleteHandler@i2c1_master_example$F523           text176      009B18
_write_eusartparser                                       text75       003014
_write_package                                            text79       009960
_zeroCrossing                                             bssBANK1     000196
_zeroCrossingLength                                       bssBANK1     000197
_zeroCrossingWaitTime                                     dataBANK2    0002FA
_zeroCrossingWaitTimeIdx                                  bssBANK0     000084
actionZone_Closed@securityOpening                         cstackCOMRAM 000020
actionZone_Closed@typeOpenOrder                           cstackCOMRAM 000021
actionZone_Closing@securityClosing                        cstackCOMRAM 000032
actionZone_Closing@typeOpenOrder                          cstackCOMRAM 000033
actionZone_Opened@securityClosing                         cstackCOMRAM 000020
actionZone_Opened@typeOpenOrder                           cstackCOMRAM 000021
actionZone_Opening@securityClosing                        cstackBANK0  0000E4
actionZone_Opening@securityOpening                        cstackBANK0  0000E5
actionZone_Opening@typeOpenOrder                          cstackBANK0  0000E6
btemp                                                     temp         000050
calculateMean@meanValue                                   cstackCOMRAM 000010
calculateMean@newValue                                    cstackCOMRAM 000014
checkNVM_VarSystem@saveParam                              cstackCOMRAM 00003A
cmdMemoryIsEmpty@cmdType                                  cstackCOMRAM 000031
cmdMemoryIsEmpty@position                                 cstackCOMRAM 00002E
cmdMemoryIsEmpty@tempSerial                               cstackCOMRAM 000032
confirmpackage@confirm                                    cstackCOMRAM 000014
confirmpackage@package                                    cstackCOMRAM 000012
controlSelectRemote@pos                                   cstackBANK0  0000E2
controlSelectRemote@temp                                  cstackBANK0  0000E8
controlSelectRemote@tempSerial                            cstackBANK0  0000E4
controlSelectRemote@typeRemote                            cstackBANK0  0000E3
controlSelectRemote@validSerial                           cstackBANK0  0000E1
decrementTimeslot@ts                                      cstackCOMRAM 000001
end_of_initialization                                     cinit        007EBE
eusartparser@buffer                                       bssBANK1     000185
eusartparser@i                                            cstackBANK0  0000E8
eusartparser@i_7381                                       cstackBANK0  0000E9
eusartparser@i_7382                                       cstackBANK0  0000ED
eusartparser@i_7383                                       cstackBANK0  0000EE
eusartparser@i_7384                                       cstackBANK0  0000F1
eusartparser@i_7385                                       cstackBANK0  0000F2
eusartparser@i_7386                                       cstackBANK0  0000F3
eusartparser@i_7388                                       cstackBANK0  0000EA
eusartparser@i_7389                                       cstackBANK0  0000EB
eusartparser@i_7390                                       cstackBANK0  0000EF
eusartparser@i_7391                                       cstackBANK0  0000F0
eusartparser@i_7392                                       cstackBANK0  0000F4
eusartparser@i_7393                                       cstackBANK0  0000F5
eusartparser@i_7394                                       cstackBANK0  0000F6
eusartparser@package                                      cstackBANK0  0000E0
eusartparser@pos                                          cstackBANK0  0000EC
eusartparser@relcounter                                   cstackBANK0  0000F7
eusartparser@save_f                                       bssBANK1     00018D
eusartparser@serial                                       cstackBANK0  0000F8
getCurrentComparator@tempOffset                           cstackCOMRAM 000020
getCurrentComparator@x                                    cstackCOMRAM 000022
getHopCode@data                                           cstackCOMRAM 000016
getHopCode@i                                              cstackCOMRAM 000023
getHopCode@tempHop                                        cstackCOMRAM 000020
getHopCode@tempPos                                        cstackCOMRAM 000022
getKeyPressed@temp                                        cstackCOMRAM 000010
getSerialCmd@serial                                       cstackCOMRAM 00001B
getSerialCmd@temp                                         cstackCOMRAM 00001C
getStateOpenPosition@state                                cstackBANK0  0000D8
getStateOpenPosition@stateMotor                           cstackBANK0  0000D9
getTimeDecelaration@state                                 cstackCOMRAM 000031
i2GetMotorPower@defineatraso                              cstackCOMRAM 000004
i2VerifyElectricalBrake@actualState                       cstackCOMRAM 000002
i2VerifyElectricalBrake@tempState                         cstackCOMRAM 000001
i2_GetMotorPower                                          text199      007C9E
i2_VerifyElectricalBrake                                  text198      0089BC
i2c_readDataBlock@address                                 cstackCOMRAM 000029
i2c_readDataBlock@d                                       cstackCOMRAM 00002A
i2c_readDataBlock@data                                    cstackCOMRAM 000024
i2c_readDataBlock@len                                     cstackCOMRAM 000026
i2c_readDataBlock@reg                                     cstackCOMRAM 000022
i2c_writeNBytes@address                                   cstackCOMRAM 000039
i2c_writeNBytes@dat                                       cstackCOMRAM 000028
i2c_writeNBytes@data                                      cstackCOMRAM 000024
i2c_writeNBytes@len                                       cstackCOMRAM 000025
i2c_writeNBytes@reg                                       cstackCOMRAM 000022
init_package@package                                      cstackCOMRAM 000010
int$flags                                                 temp         000050
intlevel0                                                 text         000000
intlevel1                                                 text         000000
intlevel2                                                 text         000000
intlevel3                                                 text         000000
isa$std                                                   (abs)        000001
isa$xinst                                                 (abs)        000000
keeloqDecryptPacket@classic_data                          cstackBANK0  0000E2
keeloqDecryptPacket@commandType                           cstackBANK0  0000E9
keeloqDecryptPacket@data                                  cstackBANK0  0000E0
keeloqDecryptPacket@hop_error                             cstackBANK0  0000E8
keeloq_classic_decrypt_packet@data                        cstackCOMRAM 000038
load_New_Menu@Menu                                        cstackCOMRAM 000022
load_New_Menu@i                                           cstackCOMRAM 000023
main@package                                              cstackBANK2  0002EF
memcpy@d                                                  cstackCOMRAM 000017
memcpy@d1                                                 cstackCOMRAM 000010
memcpy@n                                                  cstackCOMRAM 000014
memcpy@s                                                  cstackCOMRAM 000019
memcpy@s1                                                 cstackCOMRAM 000012
memcpy@tmp                                                cstackCOMRAM 000016
rd1RegCompleteHandler@i2c1_master_example$F500@ptr        cstackCOMRAM 000019
rd1RegCompleteHandler@p                                   cstackCOMRAM 000019
rd2RegCompleteHandler@i2c1_master_example$F511@ptr        cstackCOMRAM 000019
rd2RegCompleteHandler@p                                   cstackCOMRAM 000019
rdBlkRegCompleteHandler@i2c1_master_example$F535@ptr      cstackCOMRAM 000019
rdBlkRegCompleteHandler@p                                 cstackCOMRAM 000019
readRFButtons@key1                                        bssBANK0     000088
readRFButtons@keyType                                     bssBANK0     000087
readRFButtons@rollingCode                                 bssBANK1     000187
readRFButtons@serial                                      bssBANK1     000181
readRFButtons@typeRemote                                  bssBANK1     00019B
read_eusartparser@package                                 cstackCOMRAM 000018
read_package@package                                      cstackCOMRAM 000018
readbutton@key1                                           bssBANK0     000086
readbutton@key2                                           bssBANK1     00019A
refreshADCZeroOffset@i                                    cstackCOMRAM 000017
refreshADCZeroOffset@media                                cstackCOMRAM 000018
saveEnergyADCHist@valueToSave                             cstackCOMRAM 000010
saveNewSerial@cmdType                                     cstackCOMRAM 00003A
saveNewSerial@position                                    cstackBANK0  0000DC
saveNewSerial@tempSerial                                  cstackBANK0  0000D8
setFlashLigth_ON@Freq                                     cstackCOMRAM 000010
setRGB_ON@Freq                                            cstackCOMRAM 000011
setRGB_ON@RGBLigth                                        cstackCOMRAM 000015
setValueToEdit@ParameterSelected                          cstackCOMRAM 00003A
setValueToEdit@haveValueToEdit                            cstackBANK0  0000E1
setValueToEdit@menuType                                   cstackBANK0  0000DE
setValueToEdit@posindex                                   cstackBANK0  0000DF
setValueToEdit@posindex_6980                              cstackBANK0  0000E0
setValueToEdit@value                                      bssBANK1     0001FC
sm_execute_ControlGate@psm                                cstackBANK0  0000E7
sm_execute_ControlGate@typeOpenOrder                      cstackBANK0  0000EB
sm_execute_ControlLearning@psm                            cstackBANK0  0000DC
sm_execute_ControlLearning@typeOpenOrder                  cstackCOMRAM 00003A
sm_execute_main@psm                                       cstackBANK0  0000ED
sm_execute_menuConfiguration@psm                          cstackBANK0  0000E9
sm_get_current_state@psm                                  cstackCOMRAM 000010
sm_init@hist_mode                                         cstackCOMRAM 000016
sm_init@initial_state                                     cstackCOMRAM 000014
sm_init@psm                                               cstackCOMRAM 000012
sm_restart@psm                                            cstackCOMRAM 000010
sm_send_event@event                                       cstackCOMRAM 000014
sm_send_event@psm                                         cstackCOMRAM 000012
stackhi                                                   (abs)        000000
stacklo                                                   (abs)        000000
start                                                     init         00009C
start_initialization                                      cinit        007E18
sumEnergyADC@auxValue                                     cstackCOMRAM 000016
sumEnergyADC@i                                            cstackCOMRAM 000018
sumEnergyADC@sumE                                         cstackCOMRAM 000014
sumHIST@i                                                 cstackCOMRAM 000020
sumHIST@max                                               cstackCOMRAM 000018
sumHIST@min                                               cstackCOMRAM 00001A
sumHIST@sumH                                              cstackCOMRAM 00001C
ttemp5                                                    temp         000051
ttemp6                                                    temp         000054
ttemp7                                                    temp         000058
updateChangesToUart@i                                     cstackCOMRAM 00001C
updateChangesToUart@package                               cstackCOMRAM 00001D
validateRemoteSerialNumber@VerifyOnlySerial               cstackCOMRAM 000032
validateRemoteSerialNumber@i                              cstackCOMRAM 00003A
validateRemoteSerialNumber@j                              cstackCOMRAM 000039
validateRemoteSerialNumber@mask                           cstackCOMRAM 000035
validateRemoteSerialNumber@position                       cstackCOMRAM 000033
validateRemoteSerialNumber@serial                         cstackCOMRAM 00002E
verifyProgramingMode@classic_data                         cstackCOMRAM 000010
wr1RegCompleteHandler@i2c1_master_example$F517@ptr        cstackCOMRAM 000019
wr1RegCompleteHandler@p                                   cstackCOMRAM 000019
wr2RegCompleteHandler@i2c1_master_example$F523@ptr        cstackCOMRAM 000019
wr2RegCompleteHandler@p                                   cstackCOMRAM 000019
write_eusartparser@debug                                  cstackCOMRAM 00001F
write_eusartparser@debug2                                 cstackCOMRAM 000021
write_eusartparser@package                                cstackCOMRAM 000010
write_package@package                                     cstackCOMRAM 000011
wtemp8                                                    temp         000051


MODULE INFORMATION

Module		Function		Class		Link	Load	Size
controlMemory_MC50.c
		_SaveNVM_VarSystem		CODE           	97D4	0000	56
		_validateRemoteSerialNumber		CODE           	624C	0000	412
		_checkNVM_VarSystem		CODE           	60AC	0000	416
		_saveNewSerial 		CODE           	8C02	0000	112
		_ReadSerial    		CODE           	8C72	0000	112
		_ControlCounterMoves		CODE           	9126	0000	90
		_ResetDefaultMemory		CODE           	68B2	0000	394
		_RemoveSerial  		CODE           	8750	0000	128
		_loadNVM_VarSystem		CODE           	6FB4	0000	302
		_cmdMemoryIsEmpty		CODE           	81F0	0000	146

controlMemory_MC50.c estimated size: 2168

sm_ControlGate_MC50.c
		_setPositionInvertionInOpening		CODE           	7A30	0000	220
		_WaitPreFlash  		CODE           	8B92	0000	112
		_actionZone_Opened		CODE           	5B24	0000	494
		_actionZone_Closed		CODE           	7EC8	0000	170
		_InitFullAutoTime		CODE           	9DCE	0000	26
		_InitSoftStop  		CODE           	94BC	0000	74
		_InitWalkAutoTime		CODE           	9ED8	0000	20
		_StopOrder     		CODE           	9D2A	0000	28
		_InitSoftStart 		CODE           	9014	0000	92
		_actionZone_Opening		CODE           	5246	0000	596
		_actionZone_Closing		CODE           	4D44	0000	652
		_VerifyFollowMe		CODE           	9C7E	0000	36
		_sm_execute_ControlGate		CODE           	43DE	0000	844
		_CloseOrder    		CODE           	9BC0	0000	38
		_setPositionInvertionInClosing		CODE           	70E2	0000	296
		_OpenFullOrder 		CODE           	9BE6	0000	38
		_OpenWalkOrder 		CODE           	8CE2	0000	110

sm_ControlGate_MC50.c estimated size: 3846

mcc_generated_files/examples/i2c1_master_example.c
		_rdBlkRegCompleteHandler@i2c1_master_example$F535		CODE           	969E	0000	64
		_rd1RegCompleteHandler@i2c1_master_example$F500		CODE           	9A3C	0000	44
		_rd2RegCompleteHandler@i2c1_master_example$F511		CODE           	9A10	0000	44
		_wr1RegCompleteHandler@i2c1_master_example$F517		CODE           	99E4	0000	44
		_wr2RegCompleteHandler@i2c1_master_example$F523		CODE           	9B18	0000	44
		_I2C1_Read1ByteRegister		CODE           	9070	0000	92

mcc_generated_files/examples/i2c1_master_example.c estimated size: 332

controlCurrent_MC50.c
		_refreshADCZeroOffset		CODE           	7654	0000	254
		_getCurrentComparator		CODE           	63E8	0000	410
		_ControlCurrent		CODE           	6BC4	0000	372
		_refreshCurrent		CODE           	954E	0000	70
		_ReadADC       		CODE           	9284	0000	86
		_sumEnergyADC  		CODE           	839E	0000	140
		_sumHIST       		CODE           	784E	0000	250
		_saveEnergyADCHist		CODE           	9B98	0000	40

controlCurrent_MC50.c estimated size: 1622

sm_Main_MC50.c
		_sm_execute_main		CODE           	3AEA	0000	1298

sm_Main_MC50.c estimated size: 1298

outputs_MC50.c
		_getTimeDecelaration		CODE           	7948	0000	232
		_Segments_Set  		CODE           	9F7C	0000	12
		_ControlMotor  		CODE           	549A	0000	586
		_SetSegmentValueMain		CODE           	9DB4	0000	26
		_GetMotorPower 		CODE           	7BD8	0000	198
		_ControlLights 		CODE           	472A	0000	804
		_RGB_Set       		CODE           	9F46	0000	14
		_refreshSegment		CODE           	8540	0000	134
		_setFlashLigth_ON		CODE           	975E	0000	60
		_getStateOpenPosition		CODE           	732E	0000	272
		_controlMotorForce		CODE           	56E4	0000	546
		_SetSegmentValueIntermitent		CODE           	9934	0000	44
		_SetSegmentValueLearn		CODE           	7752	0000	252
		_SetSegmentValue		CODE           	9DE8	0000	26
		_VerifyElectricalBrake		CODE           	8944	0000	120
		_SetSegmentValueIntermitentMain		CODE           	9EEC	0000	20
		_setRGB_ON     		CODE           	8282	0000	144
		_controlVelocity		CODE           	5906	0000	542
		_ControlDecelarationFactor		CODE           	9E1C	0000	24

outputs_MC50.c estimated size: 4056

mcc_generated_files/i2c1_master.c
		_I2C1_DO_SEND_RESTART		CODE           	A030	0000	8
		_I2C1_DO_TX_EMPTY		CODE           	8F5A	0000	94
		_I2C1_DO_SEND_RESTART_READ		CODE           	A040	0000	8
		_I2C1_CallbackReturnStop		CODE           	A09A	0000	4
		_I2C1_DO_RX    		CODE           	88CA	0000	122
		_I2C1_DO_TX    		CODE           	842A	0000	140
		_I2C1_SetAddressNackCallback		CODE           	9E64	0000	24
		_I2C1_DO_IDLE  		CODE           	9FF6	0000	10
		_I2C1_MasterOpen		CODE           	9E7C	0000	24
		_I2C1_DO_RCEN  		CODE           	9FEC	0000	10
		_I2C1_MasterSendTxData		CODE           	A048	0000	8
		_I2C1_MasterStop		CODE           	A09E	0000	4
		_I2C1_CallbackReturnReset		CODE           	A096	0000	4
		_I2C1_DO_RESET 		CODE           	9FE2	0000	10
		_I2C1_MasterStartRx		CODE           	A092	0000	4
		_I2C1_Poller   		CODE           	9F36	0000	16
		_I2C1_DO_RX_ACK		CODE           	A020	0000	8
		_I2C1_MasterWaitForEvent		CODE           	A008	0000	8
		_I2C1_MasterSendNack		CODE           	A06E	0000	6
		_I2C1_DO_RX_NACK_RESTART		CODE           	A010	0000	8
		_I2C1_MasterDisableIrq		CODE           	A0AA	0000	4
		_I2C1_MasterOperation		CODE           	99B8	0000	44
		_I2C1_SetCallback		CODE           	8D50	0000	110
		_I2C1_MasterEnableRestart		CODE           	A0A2	0000	4
		_I2C1_Open     		CODE           	864A	0000	132
		_I2C1_DO_ADDRESS_NACK		CODE           	946E	0000	78
		_I2C1_SetBuffer		CODE           	9E02	0000	26
		_I2C1_DO_SEND_RESTART_WRITE		CODE           	A038	0000	8
		_I2C1_MasterClose		CODE           	A0AE	0000	4
		_I2C1_MasterWrite		CODE           	A000	0000	8
		_I2C1_Initialize		CODE           	9F00	0000	20
		_I2C1_Close    		CODE           	9CE6	0000	34
		_I2C1_MasterIsNack		CODE           	9F70	0000	12
		_I2C1_MasterStart		CODE           	A0A6	0000	4
		_I2C1_DO_SEND_ADR_WRITE		CODE           	9F54	0000	14
		_I2C1_MasterClearIrq		CODE           	A074	0000	6
		_I2C1_SetDataCompleteCallback		CODE           	9E94	0000	24
		_I2C1_DO_SEND_STOP		CODE           	A028	0000	8
		_I2C1_MasterSendAck		CODE           	A068	0000	6
		_I2C1_MasterFsm		CODE           	92DA	0000	84
		_I2C1_MasterGetRxData		CODE           	A08E	0000	4
		_I2C1_MasterSetIrq		CODE           	A062	0000	6
		_I2C1_DO_SEND_ADR_READ		CODE           	9F62	0000	14
		_I2C1_DO_RX_NACK_STOP		CODE           	A018	0000	8

mcc_generated_files/i2c1_master.c estimated size: 1182

eusartparser.c
		_read_eusartparser		CODE           	2988	0000	1676
		_confirmpackage		CODE           	90CC	0000	90
		_write_eusartparser		CODE           	3014	0000	1444
		_eusartparser  		CODE           	0F22	0000	2534
		_updateChangesToUart		CODE           	8AAA	0000	116

eusartparser.c estimated size: 5860

mcc_generated_files/tmr2.c
		_TMR2_ISR      		CODE           	6D38	0000	334
		_TMR2_Initialize		CODE           	998C	0000	44
		_TMR2_SetInterruptHandler		CODE           	9F92	0000	10
		_TMR2_DefaultInterruptHandler		CODE           	A0B4	0000	2

mcc_generated_files/tmr2.c estimated size: 390

mcc_generated_files/interrupt_manager.c
		_INTERRUPT_Initialize		CODE           	A08A	0000	4
		_INTERRUPT_InterruptManager		CODE           	0008	0000	148

mcc_generated_files/interrupt_manager.c estimated size: 152

C:\Program Files\Microchip\xc8\v2.36\pic\sources\c99\common\Umul32.c
		___lmul        		CODE           	922E	0000	86

C:\Program Files\Microchip\xc8\v2.36\pic\sources\c99\common\Umul32.c estimated size: 86

inputs_MC50.c
		_ControlInputs 		CODE           	720A	0000	292
		_readbutton    		CODE           	8DBE	0000	108
		_ClearFlag_rfCMD		CODE           	A05C	0000	6
		_getSerialCmd  		CODE           	9420	0000	78
		_rxi           		CODE           	4FD0	0000	630
		_GetSecurityStateInClosing		CODE           	7F72	0000	166
		_getTypeRemote 		CODE           	A056	0000	6
		_GetOpenOrder  		CODE           	5EE4	0000	456
		_readInputs    		CODE           	754C	0000	264
		_InitReceiver  		CODE           	9D9A	0000	26
		_GetSecurityStateInOpening		CODE           	8018	0000	166
		_getKeyPressed 		CODE           	9E4C	0000	24
		_readRFButtons 		CODE           	671C	0000	406

inputs_MC50.c estimated size: 2628

mcc_generated_files/tmr0.c
		_TMR0_SetInterruptHandler		CODE           	9FA6	0000	10
		_TMR0_DefaultInterruptHandler		CODE           	A0B8	0000	2
		_TMR0_ISR      		CODE           	9C32	0000	38
		_TMR0_Initialize		CODE           	9CC4	0000	34

mcc_generated_files/tmr0.c estimated size: 84

sm_MenuConfiguration_MC50.c
		_load_New_Menu 		CODE           	4A4E	0000	758
		_sm_execute_menuConfiguration		CODE           	1908	0000	2408
		_controlSelectRemote		CODE           	3FFC	0000	994
		_setValueToEdit		CODE           	35B8	0000	1330
		_controlSaveRemote		CODE           	7D64	0000	180
		_controlLearnDigit		CODE           	98D6	0000	48

sm_MenuConfiguration_MC50.c estimated size: 5718

mcc_generated_files/pin_manager.c
		_PIN_MANAGER_Initialize		CODE           	8158	0000	152

mcc_generated_files/pin_manager.c estimated size: 152

main_MC50.c
		_decrementTimeslot		CODE           	9B6E	0000	42
		_ShowVersion   		CODE           	8E92	0000	102
		_main          		CODE           	6A3C	0000	392
		_controlTimeslots		CODE           	6582	0000	410

main_MC50.c estimated size: 946

C:\Program Files\Microchip\xc8\v2.36\pic\sources\c99\common\__lldiv.c
		___lldiv       		CODE           	86CE	0000	130

C:\Program Files\Microchip\xc8\v2.36\pic\sources\c99\common\__lldiv.c estimated size: 130

mcc_generated_files/drivers/i2c_simple_master.c
		_i2c_readDataBlock		CODE           	8A34	0000	118
		_wr1RegCompleteHandler		CODE           	9AEC	0000	44
		_wr2RegCompleteHandler		CODE           	9A68	0000	44
		_i2c_writeNBytes		CODE           	8B1E	0000	116
		_rdBlkRegCompleteHandler		CODE           	96DE	0000	64
		_rd1RegCompleteHandler		CODE           	9AC0	0000	44
		_rd2RegCompleteHandler		CODE           	9A94	0000	44

mcc_generated_files/drivers/i2c_simple_master.c estimated size: 474

C:\Program Files\Microchip\xc8\v2.36\pic\sources\c99\common\lwdiv.c
		___lwdiv       		CODE           	932E	0000	82

C:\Program Files\Microchip\xc8\v2.36\pic\sources\c99\common\lwdiv.c estimated size: 82

C:\Program Files\Microchip\xc8\v2.36\pic\sources\c99\common\awdiv.c
		___awdiv       		CODE           	85C6	0000	132

C:\Program Files\Microchip\xc8\v2.36\pic\sources\c99\common\awdiv.c estimated size: 132

C:\Program Files\Microchip\xc8\v2.36\pic\sources\c99\common\lbmod.c
		___lbmod       		CODE           	9B44	0000	42

C:\Program Files\Microchip\xc8\v2.36\pic\sources\c99\common\lbmod.c estimated size: 42

shared
		i2_VerifyElectricalBrake		CODE           	89BC	0000	120
		__initialization		CODE           	7E18	0000	166
		_i2c1_fsmStateTable		SMALLCONST     	0F01	0000	32
		i2_GetMotorPower		CODE           	7C9E	0000	198

shared estimated size: 516

mcc_generated_files/eusart1.c
		_EUSART1_SetRxInterruptHandler		CODE           	9FBA	0000	10
		_EUSART1_SetTxInterruptHandler		CODE           	9FB0	0000	10
		_EUSART1_is_rx_ready		CODE           	9F26	0000	16
		_EUSART1_Initialize		CODE           	87D0	0000	126
		_EUSART1_DefaultErrorHandler		CODE           	A080	0000	6
		_EUSART1_SetFramingErrorHandler		CODE           	9FCE	0000	10
		_EUSART1_Read  		CODE           	9506	0000	72
		_EUSART1_SetOverrunErrorHandler		CODE           	9FC4	0000	10
		_EUSART1_SetErrorHandler		CODE           	9FD8	0000	10
		_EUSART1_Write 		CODE           	965E	0000	64
		_EUSART1_Receive_ISR		CODE           	80BE	0000	154
		_EUSART1_RxDataHandler		CODE           	9D08	0000	34
		_EUSART1_DefaultOverrunErrorHandler		CODE           	A07A	0000	6
		_EUSART1_Transmit_ISR		CODE           	98A4	0000	50
		_EUSART1_DefaultFramingErrorHandler		CODE           	A0BA	0000	2

mcc_generated_files/eusart1.c estimated size: 580

mcc_generated_files/mcc.c
		_WWDT_TimerClear		CODE           	9D46	0000	28
		_PMD_Initialize		CODE           	9D62	0000	28
		_OSCILLATOR_Initialize		CODE           	9EAC	0000	22
		_SYSTEM_Initialize		CODE           	9906	0000	46
		_WWDT_Initialize		CODE           	9F88	0000	10
		_WWDT_SoftEnable		CODE           	A086	0000	4

mcc_generated_files/mcc.c estimated size: 138

sm_common_MC50.c
		_sm_restart    		CODE           	9594	0000	68
		_sm_get_current_state		CODE           	9F14	0000	18
		_sm_init       		CODE           	91D8	0000	86
		_sm_send_event 		CODE           	8FB8	0000	92

sm_common_MC50.c estimated size: 264

mcc_generated_files/tmr1.c
		_TMR1_Initialize		CODE           	961C	0000	66
		_TMR1_SetInterruptHandler		CODE           	9F9C	0000	10
		_TMR1_DefaultInterruptHandler		CODE           	A0B6	0000	2
		_TMR1_WriteTimer		CODE           	9D7E	0000	28
		_TMR1_ISR      		CODE           	971E	0000	64

mcc_generated_files/tmr1.c estimated size: 170

eusartpackage.c
		_write_package 		CODE           	9960	0000	44
		_init_package  		CODE           	9872	0000	50
		_read_package  		CODE           	9380	0000	80

eusartpackage.c estimated size: 174

keeloqDecrypt_MC50.c
		_NormalKeyGen  		CODE           	743E	0000	270
		_keeloqDecryptPacket		CODE           	5D12	0000	466
		_DecCHK        		CODE           	9840	0000	50
		_Decrypt       		CODE           	7B0C	0000	204
		_ReqResync     		CODE           	9E34	0000	24
		_getHopCode    		CODE           	6E86	0000	302
		_LoadManufCode 		CODE           	9CA2	0000	34
		_keeloq_classic_decrypt_packet		CODE           	9180	0000	88
		_DecryptPacket_12BIT		CODE           	8312	0000	140
		_verifyProgramingMode		CODE           	980C	0000	52
		_HopCHK        		CODE           	84B6	0000	138

keeloqDecrypt_MC50.c estimated size: 1768

mcc_generated_files/adcc.c
		_ADCC_GetSingleConversion		CODE           	9EC2	0000	22
		_ADCC_Initialize		CODE           	93D0	0000	80

mcc_generated_files/adcc.c estimated size: 102

C:\Program Files\Microchip\xc8\v2.36\pic\sources\c99\common\memcpy.c
		_memcpy        		CODE           	95D8	0000	68

C:\Program Files\Microchip\xc8\v2.36\pic\sources\c99\common\memcpy.c estimated size: 68

C:\Program Files\Microchip\xc8\v2.36\pic\sources\c99\common\Umul16.c
		___wmul        		CODE           	9C0C	0000	38

C:\Program Files\Microchip\xc8\v2.36\pic\sources\c99\common\Umul16.c estimated size: 38

C:\Program Files\Microchip\xc8\v2.36\pic\sources\c99\common\lbdiv.c
		___lbdiv       		CODE           	979A	0000	58

C:\Program Files\Microchip\xc8\v2.36\pic\sources\c99\common\lbdiv.c estimated size: 58

sm_ControlLearning_MC50.c
		_sm_execute_ControlLearning		CODE           	2270	0000	1816
		_calculateMean 		CODE           	8EF8	0000	98
		_generateErrorLearnig		CODE           	8E2A	0000	104
		_clearLearningValue		CODE           	884E	0000	124

sm_ControlLearning_MC50.c estimated size: 2142

