Microchip MPLAB XC8 Compiler V2.36

Linker command line:

-W-3 --edf=C:\Program Files\Microchip\xc8\v2.36\pic\dat\en_msgs.txt -cn \
  -h+dist/default/debug\MC50UNI.V.0.2.3.X.debug.sym \
  --cmf=dist/default/debug\MC50UNI.V.0.2.3.X.debug.cmf -z -Q18F46K40 \
  -oC:\Users\RAFAEL~1\AppData\Local\Temp\xcAs8gk.4 --defsym=__MPLAB_BUILD=1 \
  -Mdist/default/debug/MC50UNI.V.0.2.3.X.debug.map \
  --md=C:\Users\RAFAEL~1\AppData\Local\Temp\xcAs8gk.dat -E1 \
  -ver=XC8 Compiler --acfsm=1493 -ACODE=00h-0FFFFh -ACONST=00h-0FFFFh \
  -ASMALLCONST=0F00h-0FFFhx241 -AMEDIUMCONST=0F00h-0FFFFh -ACOMRAM=01h-05Fh \
  -AABS1=00h-0E87h -ABIGRAM=01h-0E87h \
  -ARAM=060h-0FFh,0100h-01FFhx13,0E00h-0E87h -ABANK0=060h-0FFh \
  -ABANK1=0100h-01FFh -ABANK2=0200h-02FFh -ABANK3=0300h-03FFh \
  -ABANK4=0400h-04FFh -ABANK5=0500h-05FFh -ABANK6=0600h-06FFh \
  -ABANK7=0700h-07FFh -ABANK8=0800h-08FFh -ABANK9=0900h-09FFh \
  -ABANK10=0A00h-0AFFh -ABANK11=0B00h-0BFFh -ABANK12=0C00h-0CFFh \
  -ABANK13=0D00h-0DFFh -ABANK14=0E00h-0E87h \
  -ASFR=0E8Dh-0EFFh,0F00h-0F5Fh,0F60h-0FFFh -ABIGSFR=0E8Dh-0FFFh \
  -ACONFIG=0300000h-030000Bh -AIDLOC=0200000h-020000Fh \
  -AEEDATA=0310000h-03103FFh -peeprom_data=EEDATA \
  -preset_vec=00h,intcode=08h,intcodelo,powerup,init -pramtop=0F00h \
  -psmallconst=SMALLCONST -pmediumconst=MEDIUMCONST -pconst=CONST \
  -AFARRAM=00h-00h \
  -prdata=COMRAM,nvrram=COMRAM,nvbit=COMRAM,rbss=COMRAM,rbit=COMRAM \
  -pfarbss=FARRAM,fardata=FARRAM,nvFARRAM=FARRAM \
  -pintsave_regs=BIGRAM,bigbss=BIGRAM,bigdata=BIGRAM -pbss=RAM \
  -pidata=CODE,irdata=CODE,ibigdata=CODE,ifardata=CODE -prparam=COMRAM \
  C:\Users\RAFAEL~1\AppData\Local\Temp\xcAs8gk.o \
  dist/default/debug\MC50UNI.V.0.2.3.X.debug.o 

Object code version is 3.11

Machine type is 18F46K40



                Name                               Link     Load   Length Selector   Space Scale
C:\Users\RAFAEL~1\AppData\Local\Temp\xcAs8gk.o
                idloc                            200000   200000       10        0       5
                config                           300000   300000        C        0       4
                init                                 9C       9C        4        4       0
                reset_vec                             0        0        6        0       0
dist/default/debug\MC50UNI.V.0.2.3.X.debug.o
                intcode                               8        8       94        4       0
                idloc                            200000   200000       10        0       5
                config                           300000   300000        C        0       4
                temp                                 50       50        1        1       1
                smallconst                          F00      F00       22      780       0
                text206                            8EFC     8EFC       22     4739       0
                text205                            926E     926E        6     4739       0
                text204                            92B0     92B0        2     493D       0
                text203                            9268     9268        6     4739       0
                text202                            7422     7422       9A      791       0
                text201                            8A98     8A98       32      791       0
                text200                            92AE     92AE        2     493D       0
                text199                            426A     426A      276      791       0
                text198                            8E26     8E26       26      791       0
                text197                            92AC     92AC        2     493D       0
                text196                            8F72     8F72       1C     4739       0
                text195                            6FFC     6FFC       C6      791       0
                text194                            7D20     7D20       78      791       0
                text193                            497E     497E      222      791       0
                text192                            8944     8944       40      791       0
                text191                            90B6     90B6       16     4739       0
                text190                            84AA     84AA       56      791       0
                text189                            92AA     92AA        2     493D       0
                text188                            8D62     8D62       2A      791       0
                text187                            581C     581C      19A      791       0
                text186                            9170     9170        C     4739       0
                text185                            78A4     78A4       86      791       0
                text184                            5FCC     5FCC      14E      791       0
                text182                            9262     9262        6     4739       0
                text181                            92A2     92A2        4     493D       0
                text180                            929E     929E        4     493D       0
                text179                            8EDA     8EDA       22     4739       0
                text178                            929A     929A        4     493D       0
                text177                            9296     9296        4     493D       0
                text176                            9292     9292        4     493D       0
                text175                            8FF6     8FF6       1A     4739       0
                text174                            7FD0     7FD0       6E      791       0
                text173                            9088     9088       18     4739       0
                text172                            8D0C     8D0C       2C      791       0
                text171                            8CE0     8CE0       2C      791       0
                text170                            8CB4     8CB4       2C      791       0
                text169                            8C88     8C88       2C      791       0
                text168                            8C5C     8C5C       2C      791       0
                text167                            8904     8904       40      791       0
                text166                            8C30     8C30       2C      791       0
                text165                            8C04     8C04       2C      791       0
                text164                            8BD8     8BD8       2C      791       0
                text163                            88C4     88C4       40      791       0
                text162                            928E     928E        4     493D       0
                text161                            928A     928A        4     493D       0
                text160                            9286     9286        4     493D       0
                text159                            925C     925C        6     4739       0
                text158                            9282     9282        4     493D       0
                text157                            9256     9256        6     4739       0
                text156                            923C     923C        8     4739       0
                text155                            9164     9164        C     4739       0
                text154                            9250     9250        6     4739       0
                text153                            81DA     81DA       5E      791       0
                text152                            91EA     91EA        A     4739       0
                text151                            9156     9156        E     4739       0
                text150                            9148     9148        E     4739       0
                text149                            778E     778E       8C      791       0
                text148                            7C2E     7C2E       7A      791       0
                text147                            91E0     91E0        A     4739       0
                text146                            9234     9234        8     4739       0
                text145                            922C     922C        8     4739       0
                text144                            9224     9224        8     4739       0
                text143                            921C     921C        8     4739       0
                text142                            9214     9214        8     4739       0
                text141                            920C     920C        8     4739       0
                text140                            9204     9204        8     4739       0
                text139                            91D6     91D6        A     4739       0
                text138                            8694     8694       4E      791       0
                text137                            8500     8500       54      791       0
                text136                            91FC     91FC        8     4739       0
                text135                            912A     912A       10     4739       0
                text134                            8BAC     8BAC       2C      791       0
                text133                            91F4     91F4        8     4739       0
                text132                            9070     9070       18     4739       0
                text131                            79AE     79AE       84      791       0
                text130                            9058     9058       18     4739       0
                text129                            87FE     87FE       44      791       0
                text128                            7E0E     7E0E       74      791       0
                text127                            89FA     89FA       38      791       0
                text126                            834C     834C       5A      791       0
                text125                            6F36     6F36       C6      791       0
                text124                            8E00     8E00       26      791       0
                text123                            5682     5682      19A      791       0
                text122                            8554     8554       52      791       0
                text121                            68E8     68E8       FE      791       0
                text120                            8D8C     8D8C       28      791       0
                text119                            7702     7702       8C      791       0
                text118                            6AE2     6AE2       FA      791       0
                text117                            8774     8774       46      791       0
                text116                            5E58     5E58      174      791       0
                text115                            649E     649E      124      791       0
                text114                            8984     8984       3C      791       0
                text113                            913A     913A        E     4739       0
                text112                            75E6     75E6       90      791       0
                text111                            39C4     39C4      324      791       0
                text110                            7CA8     7CA8       78      791       0
                text109                            4734     4734      24A      791       0
                text108                            911A     911A       10     4739       0
                text107                            85F6     85F6       50      791       0
                text106                            91CC     91CC        A     4739       0
                text105                            91C2     91C2        A     4739       0
                text104                            91B8     91B8        A     4739       0
                text103                            91AE     91AE        A     4739       0
                text102                            91A4     91A4        A     4739       0
                text101                            7B34     7B34       7E      791       0
                text100                            90F4     90F4       14     4739       0
                text99                             927E     927E        4     493D       0
                text98                             90A0     90A0       16     4739       0
                text97                             74BC     74BC       98      791       0
                text96                             8F56     8F56       1C     4739       0
                text95                             919A     919A        A     4739       0
                text94                             8EB8     8EB8       22     4739       0
                text93                             9190     9190        A     4739       0
                text92                             8842     8842       42      791       0
                text91                             9186     9186        A     4739       0
                text90                             8B80     8B80       2C      791       0
                text89                             917C     917C        A     4739       0
                text88                             8AFA     8AFA       2E      791       0
                text87                             8FDC     8FDC       1A     4739       0
                text86                             8112     8112       66      791       0
                text85                             927A     927A        4     493D       0
                text84                             8F3A     8F3A       1C     4739       0
                text83                             8884     8884       40      791       0
                text82                             8B54     8B54       2C      791       0
                text81                             249C     249C      508      791       0
                text80                             2EA8     2EA8      424      791       0
                text79                             6E6C     6E6C       CA      791       0
                text78                             9040     9040       18     4739       0
                text77                             82F0     82F0       5C      791       0
                text76                             5B4C     5B4C      18A      791       0
                text75                             5346     5346      1A0      791       0
                text74                             7D98     7D98       76      791       0
                text73                             6248     6248      12E      791       0
                text72                             67E0     67E0      108      791       0
                text71                             54E6     54E6      19C      791       0
                text70                             7676     7676       8C      791       0
                text69                             8A66     8A66       32      791       0
                text68                             9028     9028       18     4739       0
                text67                             611A     611A      12E      791       0
                text66                             781A     781A       8A      791       0
                text65                             6DA0     6DA0       CC      791       0
                text64                             8E96     8E96       22     4739       0
                text63                             66D2     66D2      10E      791       0
                text62                             83A6     83A6       58      791       0
                text61                             8A32     8A32       34      791       0
                text60                             4FAC     4FAC      1D2      791       0
                text59                             59B6     59B6      196      791       0
                text58                             872C     872C       48      791       0
                text57                             85A6     85A6       50      791       0
                text56                             803E     803E       6C      791       0
                text55                             90E0     90E0       14     4739       0
                text54                             89C0     89C0       3A      791       0
                text53                             517E     517E      1C8      791       0
                text52                             8B28     8B28       2C      791       0
                text51                             737C     737C       A6      791       0
                text50                             90CC     90CC       14     4739       0
                text49                             8294     8294       5C      791       0
                text48                             9108     9108       12     4739       0
                text47                             8238     8238       5C      791       0
                text46                             7F62     7F62       6E      791       0
                text45                             8FC2     8FC2       1A     4739       0
                text44                             8DDA     8DDA       26      791       0
                text43                             7EF2     7EF2       70      791       0
                text42                             722C     722C       AA      791       0
                text41                             72D6     72D6       A6      791       0
                text40                             8F1E     8F1E       1C     4739       0
                text39                             8454     8454       56      791       0
                text38                             6BDC     6BDC       E8      791       0
                text37                             6376     6376      128      791       0
                text36                             3FDE     3FDE      28C      791       0
                text35                             8DB4     8DB4       26      791       0
                text34                             8E72     8E72       24     4739       0
                text33                             4DBE     4DBE      1EE      791       0
                text32                             9010     9010       18     4739       0
                text31                             86E2     86E2       4A      791       0
                text30                             65C2     65C2      110      791       0
                text29                             4BA0     4BA0      21E      791       0
                text28                             6CC4     6CC4       DC      791       0
                text27                             44E0     44E0      254      791       0
                text26                             8178     8178       62      791       0
                text25                             7BB2     7BB2       7C      791       0
                text24                             87BA     87BA       44      791       0
                text23                             83FE     83FE       56      791       0
                text22                             80AA     80AA       68      791       0
                text21                             1886     1886      70E      791       0
                text20                             367A     367A      34A      791       0
                text19                             7A32     7A32       82      791       0
                text18                             69E6     69E6       FC      791       0
                text17                             8ACA     8ACA       30      791       0
                text16                             924A     924A        6     4739       0
                text15                             8FA8     8FA8       1A     4739       0
                text14                             792A     792A       84      791       0
                text13                             8D38     8D38       2A      791       0
                text12                             7178     7178       B4      791       0
                text11                             7AB4     7AB4       80      791       0
                text10                             7554     7554       92      791       0
                text9                              8646     8646       4E      791       0
                text8                              9244     9244        6     4739       0
                text7                              7E82     7E82       70      791       0
                text6                              32CC     32CC      3AE      791       0
                text5                              8F8E     8F8E       1A     4739       0
                text4                              3CE8     3CE8      2F6      791       0
                text3                              29A4     29A4      504      791       0
                text2                               F22      F22      964      791       0
                text1                              1F94     1F94      508      791       0
                text0                              5CD6     5CD6      182      791       0
                cstackCOMRAM                          1        1       3A        1       1
                cstackBANK0                          D8       D8       20       60       1
                dataBANK3                           3D2      3D2       25      300       1
                bssBANK3                            300      300       D2      300       1
                dataBANK2                           2EF      2EF        2      200       1
                bssBANK2                            200      200       DD      200       1
                dataBANK1                           1F9      1F9        5      100       1
                bssBANK1                            100      100       F9      100       1
                dataBANK0                            F8       F8        2       60       1
                bssBANK0                             60       60       78       60       1
                bssCOMRAM                            3B       3B       15        1       1
                cinit                              70C2     70C2       B6      791       0
                nvBANK2                             2DD      2DD       12      200       1
                nvBANK1                             1FE      1FE        1      100       1
                idataBANK3                         8E4C     8E4C       25      791       0
                idataBANK2                         92A8     92A8        2     493D       0
                idataBANK1                         9274     9274        5     4739       0
                idataBANK0                         92A6     92A6        2     493D       0

TOTAL           Name                               Link     Load   Length     Space
        CLASS   CODE           
                intcode                               8        8       94         0
                init                                 9C       9C        4         0
                reset_vec                             0        0        6         0
                text206                            8EFC     8EFC       22         0
                text205                            926E     926E        6         0
                text204                            92B0     92B0        2         0
                text203                            9268     9268        6         0
                text202                            7422     7422       9A         0
                text201                            8A98     8A98       32         0
                text200                            92AE     92AE        2         0
                text199                            426A     426A      276         0
                text198                            8E26     8E26       26         0
                text197                            92AC     92AC        2         0
                text196                            8F72     8F72       1C         0
                text195                            6FFC     6FFC       C6         0
                text194                            7D20     7D20       78         0
                text193                            497E     497E      222         0
                text192                            8944     8944       40         0
                text191                            90B6     90B6       16         0
                text190                            84AA     84AA       56         0
                text189                            92AA     92AA        2         0
                text188                            8D62     8D62       2A         0
                text187                            581C     581C      19A         0
                text186                            9170     9170        C         0
                text185                            78A4     78A4       86         0
                text184                            5FCC     5FCC      14E         0
                text182                            9262     9262        6         0
                text181                            92A2     92A2        4         0
                text180                            929E     929E        4         0
                text179                            8EDA     8EDA       22         0
                text178                            929A     929A        4         0
                text177                            9296     9296        4         0
                text176                            9292     9292        4         0
                text175                            8FF6     8FF6       1A         0
                text174                            7FD0     7FD0       6E         0
                text173                            9088     9088       18         0
                text172                            8D0C     8D0C       2C         0
                text171                            8CE0     8CE0       2C         0
                text170                            8CB4     8CB4       2C         0
                text169                            8C88     8C88       2C         0
                text168                            8C5C     8C5C       2C         0
                text167                            8904     8904       40         0
                text166                            8C30     8C30       2C         0
                text165                            8C04     8C04       2C         0
                text164                            8BD8     8BD8       2C         0
                text163                            88C4     88C4       40         0
                text162                            928E     928E        4         0
                text161                            928A     928A        4         0
                text160                            9286     9286        4         0
                text159                            925C     925C        6         0
                text158                            9282     9282        4         0
                text157                            9256     9256        6         0
                text156                            923C     923C        8         0
                text155                            9164     9164        C         0
                text154                            9250     9250        6         0
                text153                            81DA     81DA       5E         0
                text152                            91EA     91EA        A         0
                text151                            9156     9156        E         0
                text150                            9148     9148        E         0
                text149                            778E     778E       8C         0
                text148                            7C2E     7C2E       7A         0
                text147                            91E0     91E0        A         0
                text146                            9234     9234        8         0
                text145                            922C     922C        8         0
                text144                            9224     9224        8         0
                text143                            921C     921C        8         0
                text142                            9214     9214        8         0
                text141                            920C     920C        8         0
                text140                            9204     9204        8         0
                text139                            91D6     91D6        A         0
                text138                            8694     8694       4E         0
                text137                            8500     8500       54         0
                text136                            91FC     91FC        8         0
                text135                            912A     912A       10         0
                text134                            8BAC     8BAC       2C         0
                text133                            91F4     91F4        8         0
                text132                            9070     9070       18         0
                text131                            79AE     79AE       84         0
                text130                            9058     9058       18         0
                text129                            87FE     87FE       44         0
                text128                            7E0E     7E0E       74         0
                text127                            89FA     89FA       38         0
                text126                            834C     834C       5A         0
                text125                            6F36     6F36       C6         0
                text124                            8E00     8E00       26         0
                text123                            5682     5682      19A         0
                text122                            8554     8554       52         0
                text121                            68E8     68E8       FE         0
                text120                            8D8C     8D8C       28         0
                text119                            7702     7702       8C         0
                text118                            6AE2     6AE2       FA         0
                text117                            8774     8774       46         0
                text116                            5E58     5E58      174         0
                text115                            649E     649E      124         0
                text114                            8984     8984       3C         0
                text113                            913A     913A        E         0
                text112                            75E6     75E6       90         0
                text111                            39C4     39C4      324         0
                text110                            7CA8     7CA8       78         0
                text109                            4734     4734      24A         0
                text108                            911A     911A       10         0
                text107                            85F6     85F6       50         0
                text106                            91CC     91CC        A         0
                text105                            91C2     91C2        A         0
                text104                            91B8     91B8        A         0
                text103                            91AE     91AE        A         0
                text102                            91A4     91A4        A         0
                text101                            7B34     7B34       7E         0
                text100                            90F4     90F4       14         0
                text99                             927E     927E        4         0
                text98                             90A0     90A0       16         0
                text97                             74BC     74BC       98         0
                text96                             8F56     8F56       1C         0
                text95                             919A     919A        A         0
                text94                             8EB8     8EB8       22         0
                text93                             9190     9190        A         0
                text92                             8842     8842       42         0
                text91                             9186     9186        A         0
                text90                             8B80     8B80       2C         0
                text89                             917C     917C        A         0
                text88                             8AFA     8AFA       2E         0
                text87                             8FDC     8FDC       1A         0
                text86                             8112     8112       66         0
                text85                             927A     927A        4         0
                text84                             8F3A     8F3A       1C         0
                text83                             8884     8884       40         0
                text82                             8B54     8B54       2C         0
                text81                             249C     249C      508         0
                text80                             2EA8     2EA8      424         0
                text79                             6E6C     6E6C       CA         0
                text78                             9040     9040       18         0
                text77                             82F0     82F0       5C         0
                text76                             5B4C     5B4C      18A         0
                text75                             5346     5346      1A0         0
                text74                             7D98     7D98       76         0
                text73                             6248     6248      12E         0
                text72                             67E0     67E0      108         0
                text71                             54E6     54E6      19C         0
                text70                             7676     7676       8C         0
                text69                             8A66     8A66       32         0
                text68                             9028     9028       18         0
                text67                             611A     611A      12E         0
                text66                             781A     781A       8A         0
                text65                             6DA0     6DA0       CC         0
                text64                             8E96     8E96       22         0
                text63                             66D2     66D2      10E         0
                text62                             83A6     83A6       58         0
                text61                             8A32     8A32       34         0
                text60                             4FAC     4FAC      1D2         0
                text59                             59B6     59B6      196         0
                text58                             872C     872C       48         0
                text57                             85A6     85A6       50         0
                text56                             803E     803E       6C         0
                text55                             90E0     90E0       14         0
                text54                             89C0     89C0       3A         0
                text53                             517E     517E      1C8         0
                text52                             8B28     8B28       2C         0
                text51                             737C     737C       A6         0
                text50                             90CC     90CC       14         0
                text49                             8294     8294       5C         0
                text48                             9108     9108       12         0
                text47                             8238     8238       5C         0
                text46                             7F62     7F62       6E         0
                text45                             8FC2     8FC2       1A         0
                text44                             8DDA     8DDA       26         0
                text43                             7EF2     7EF2       70         0
                text42                             722C     722C       AA         0
                text41                             72D6     72D6       A6         0
                text40                             8F1E     8F1E       1C         0
                text39                             8454     8454       56         0
                text38                             6BDC     6BDC       E8         0
                text37                             6376     6376      128         0
                text36                             3FDE     3FDE      28C         0
                text35                             8DB4     8DB4       26         0
                text34                             8E72     8E72       24         0
                text33                             4DBE     4DBE      1EE         0
                text32                             9010     9010       18         0
                text31                             86E2     86E2       4A         0
                text30                             65C2     65C2      110         0
                text29                             4BA0     4BA0      21E         0
                text28                             6CC4     6CC4       DC         0
                text27                             44E0     44E0      254         0
                text26                             8178     8178       62         0
                text25                             7BB2     7BB2       7C         0
                text24                             87BA     87BA       44         0
                text23                             83FE     83FE       56         0
                text22                             80AA     80AA       68         0
                text21                             1886     1886      70E         0
                text20                             367A     367A      34A         0
                text19                             7A32     7A32       82         0
                text18                             69E6     69E6       FC         0
                text17                             8ACA     8ACA       30         0
                text16                             924A     924A        6         0
                text15                             8FA8     8FA8       1A         0
                text14                             792A     792A       84         0
                text13                             8D38     8D38       2A         0
                text12                             7178     7178       B4         0
                text11                             7AB4     7AB4       80         0
                text10                             7554     7554       92         0
                text9                              8646     8646       4E         0
                text8                              9244     9244        6         0
                text7                              7E82     7E82       70         0
                text6                              32CC     32CC      3AE         0
                text5                              8F8E     8F8E       1A         0
                text4                              3CE8     3CE8      2F6         0
                text3                              29A4     29A4      504         0
                text2                               F22      F22      964         0
                text1                              1F94     1F94      508         0
                text0                              5CD6     5CD6      182         0
                cinit                              70C2     70C2       B6         0
                idataBANK3                         8E4C     8E4C       25         0
                idataBANK2                         92A8     92A8        2         0
                idataBANK1                         9274     9274        5         0
                idataBANK0                         92A6     92A6        2         0

        CLASS   CONST          

        CLASS   SMALLCONST     
                smallconst                          F00      F00       22         0

        CLASS   MEDIUMCONST    

        CLASS   COMRAM         
                temp                                 50       50        1         1
                cstackCOMRAM                          1        1       3A         1
                bssCOMRAM                            3B       3B       15         1

        CLASS   ABS1           

        CLASS   BIGRAM         

        CLASS   RAM            

        CLASS   BANK0          
                cstackBANK0                          D8       D8       20         1
                dataBANK0                            F8       F8        2         1
                bssBANK0                             60       60       78         1

        CLASS   BANK1          
                dataBANK1                           1F9      1F9        5         1
                bssBANK1                            100      100       F9         1
                nvBANK1                             1FE      1FE        1         1

        CLASS   BANK2          
                dataBANK2                           2EF      2EF        2         1
                bssBANK2                            200      200       DD         1
                nvBANK2                             2DD      2DD       12         1

        CLASS   BANK3          
                dataBANK3                           3D2      3D2       25         1
                bssBANK3                            300      300       D2         1

        CLASS   BANK4          

        CLASS   BANK5          

        CLASS   BANK6          

        CLASS   BANK7          

        CLASS   BANK8          

        CLASS   BANK9          

        CLASS   BANK10         

        CLASS   BANK11         

        CLASS   BANK12         

        CLASS   BANK13         

        CLASS   BANK14         

        CLASS   SFR            

        CLASS   BIGSFR         

        CLASS   CONFIG         
                config                           300000   300000        C         4

        CLASS   IDLOC          
                idloc                            200000   200000       10         5

        CLASS   EEDATA         

        CLASS   FARRAM         

        CLASS   HEAP           

        CLASS   STACK          



SEGMENTS        Name                           Load    Length   Top    Selector   Space  Class

                reset_vec                      000000  000006  000006         0       0  CODE    
                cstackCOMRAM                   000001  000050  000051         1       1  COMRAM  
                intcode                        000008  000098  0000A0         4       0  CODE    
                bssBANK0                       000060  00009A  0000FA        60       1  BANK0   
                bssBANK1                       000100  0000FF  0001FF       100       1  BANK1   
                bssBANK2                       000200  0000F1  0002F1       200       1  BANK2   
                bssBANK3                       000300  0000F7  0003F7       300       1  BANK3   
                smallconst                     000F00  000022  000F22       780       0  SMALLCON
                text2                          000F22  007F4F  008E71       791       0  CODE    
                text34                         008E72  000407  009279      4739       0  CODE    
                text85                         00927A  000038  0092B2      493D       0  CODE    


UNUSED ADDRESS RANGES

        Name                Unused          Largest block    Delta
        BANK0            0000FA-0000FF                6
        BANK1            0001FF-0001FF                1
        BANK10           000A00-000AFF              100
        BANK11           000B00-000BFF              100
        BANK12           000C00-000CFF              100
        BANK13           000D00-000DFF              100
        BANK14           000E00-000E87               88
        BANK2            0002F1-0002FF                F
        BANK3            0003F7-0003FF                9
        BANK4            000400-0004FF              100
        BANK5            000500-0005FF              100
        BANK6            000600-0006FF              100
        BANK7            000700-0007FF              100
        BANK8            000800-0008FF              100
        BANK9            000900-0009FF              100
        BIGRAM           000051-00005F                F
                         0000FA-0000FF                6
                         0001FF-0001FF                1
                         0002F1-0002FF                F
                         0003F7-000E87              A91
        BIGSFR           000E8D-000FFF              173
        CODE             000006-000007                2
                         0000A0-000EFF              E60
                         008E71-008E71                1
                         009279-009279                1
                         0092B2-00FFFF             6D4E
        COMRAM           000051-00005F                F
        CONST            000006-000007                2
                         0000A0-000EFF              E60
                         008E71-008E71                1
                         009279-009279                1
                         0092B2-00FFFF             6D4E
        EEDATA           310000-3103FF              400
        MEDIUMCONST      008E71-008E71                1
                         009279-009279                1
                         0092B2-00FFFF             6D4E
        RAM              0000FA-0000FF                6
                         0001FF-0001FF                1
                         0002F1-0002FF                F
                         0003F7-000E87              100
        SFR              000E8D-000FFF               73
        SMALLCONST       008E71-008E71                1
                         009279-009279                1
                         0092B2-00FFFF              100

                                  Symbol Table

?___awdiv                                                 cstackCOMRAM 000014
?___lldiv                                                 cstackCOMRAM 000010
?___lmul                                                  cstackCOMRAM 00001D
?___lwdiv                                                 cstackCOMRAM 000010
?___wmul                                                  cstackCOMRAM 000010
?_calculateMean                                           cstackCOMRAM 000010
?_getCurrentComparator                                    cstackCOMRAM 000016
?_getHopCode                                              cstackCOMRAM 000016
?_getTimeDecelaration                                     cstackCOMRAM 000029
?_read_package                                            cstackCOMRAM 000011
?_sm_get_current_state                                    cstackCOMRAM 000010
?_sumEnergyADC                                            cstackCOMRAM 000010
?_sumHIST                                                 cstackCOMRAM 000010
ADCC_GetSingleConversion@channel                          cstackCOMRAM 000001
ControlMotor@stateMotor                                   cstackCOMRAM 000018
DecCHK@data                                               cstackCOMRAM 000010
Decrypt@Buffer                                            cstackCOMRAM 000022
Decrypt@aux                                               cstackCOMRAM 000021
Decrypt@i                                                 cstackCOMRAM 00001E
Decrypt@j                                                 cstackCOMRAM 00001F
Decrypt@key                                               cstackCOMRAM 00001D
Decrypt@p                                                 cstackCOMRAM 000020
Decrypt@packet                                            cstackCOMRAM 00001B
DecryptPacket_12BIT@classic_data                          cstackBANK0  0000E2
DecryptPacket_12BIT@commandType                           cstackBANK0  0000E4
DecryptPacket_12BIT@data                                  cstackBANK0  0000E0
EUSART1_Read@readValue                                    cstackCOMRAM 000010
EUSART1_SetErrorHandler@interruptHandler                  cstackCOMRAM 000010
EUSART1_SetFramingErrorHandler@interruptHandler           cstackCOMRAM 000010
EUSART1_SetOverrunErrorHandler@interruptHandler           cstackCOMRAM 000010
EUSART1_SetRxInterruptHandler@interruptHandler            cstackCOMRAM 000010
EUSART1_SetTxInterruptHandler@interruptHandler            cstackCOMRAM 000010
EUSART1_Write@txData                                      cstackCOMRAM 000010
GetMotorPower@defineatraso                                cstackCOMRAM 000013
HopCHK@data                                               cstackCOMRAM 000024
HopCHK@hopDiff                                            cstackCOMRAM 000026
I2C1_CallbackReturnReset@funPtr                           cstackCOMRAM 000019
I2C1_Close@returnValue                                    cstackCOMRAM 000010
I2C1_MasterOperation@read                                 cstackCOMRAM 000020
I2C1_MasterOperation@returnValue                          cstackCOMRAM 000021
I2C1_MasterSendTxData@data                                cstackCOMRAM 000010
I2C1_Open@address                                         cstackCOMRAM 000010
I2C1_Open@returnValue                                     cstackCOMRAM 000011
I2C1_Read1ByteRegister@address                            cstackCOMRAM 000023
I2C1_Read1ByteRegister@reg                                cstackCOMRAM 000022
I2C1_Read1ByteRegister@returnValue                        cstackCOMRAM 000024
I2C1_SetAddressNackCallback@cb                            cstackCOMRAM 000015
I2C1_SetAddressNackCallback@ptr                           cstackCOMRAM 000017
I2C1_SetBuffer@buffer                                     cstackCOMRAM 000010
I2C1_SetBuffer@bufferSize                                 cstackCOMRAM 000012
I2C1_SetCallback@cb                                       cstackCOMRAM 000010
I2C1_SetCallback@idx                                      cstackCOMRAM 000014
I2C1_SetCallback@ptr                                      cstackCOMRAM 000012
I2C1_SetDataCompleteCallback@cb                           cstackCOMRAM 000015
I2C1_SetDataCompleteCallback@ptr                          cstackCOMRAM 000017
NormalKeyGen@Buffer                                       cstackCOMRAM 000030
NormalKeyGen@HOPtemp                                      cstackCOMRAM 000028
NormalKeyGen@SEED                                         bssBANK2     0002D9
NormalKeyGen@SKEYtemp                                     cstackCOMRAM 00002C
NormalKeyGen@serial                                       cstackCOMRAM 000026
OpenWalkOrder@diffTime                                    cstackCOMRAM 00001A
RGB_Set@value                                             cstackCOMRAM 000010
RemoveSerial@cmdType                                      cstackBANK0  0000DA
RemoveSerial@position                                     cstackCOMRAM 00003A
RemoveSerial@tempSerial                                   cstackBANK0  0000DB
ReqResync@CurrentHop                                      cstackCOMRAM 000010
ResetDefaultMemory@type                                   cstackCOMRAM 00003A
SaveNVM_VarSystem@page                                    cstackBANK0  0000D8
SaveNVM_VarSystem@point                                   cstackBANK0  0000DB
SaveNVM_VarSystem@tempAdd                                 cstackBANK0  0000D9
Segments_Set@value                                        cstackCOMRAM 000001
SetSegmentValue@d1                                        cstackCOMRAM 00001D
SetSegmentValue@d2                                        cstackCOMRAM 00001C
SetSegmentValueIntermitent@d1                             cstackCOMRAM 000013
SetSegmentValueIntermitent@d2                             cstackCOMRAM 000010
SetSegmentValueIntermitent@time                           cstackCOMRAM 000011
SetSegmentValueIntermitentMain@d1                         cstackCOMRAM 00001F
SetSegmentValueIntermitentMain@d2                         cstackCOMRAM 00001C
SetSegmentValueIntermitentMain@time                       cstackCOMRAM 00001D
SetSegmentValueLearn@direction                            cstackCOMRAM 000012
SetSegmentValueMain@d1                                    cstackCOMRAM 00001D
SetSegmentValueMain@d2                                    cstackCOMRAM 00001C
TMR0_SetInterruptHandler@InterruptHandler                 cstackCOMRAM 000010
TMR1_SetInterruptHandler@InterruptHandler                 cstackCOMRAM 000010
TMR1_WriteTimer@timerVal                                  cstackCOMRAM 000001
TMR2_SetInterruptHandler@InterruptHandler                 cstackCOMRAM 000010
VerifyElectricalBrake@actualState                         cstackCOMRAM 000011
VerifyElectricalBrake@tempState                           cstackCOMRAM 000010
VerifyFollowMe@securityClose                              cstackCOMRAM 000010
WWDT_TimerClear@state                                     cstackCOMRAM 000010
_ADACCH                                                   (abs)        000F71
_ADACCL                                                   (abs)        000F70
_ADACQ                                                    (abs)        000F5C
_ADACT                                                    (abs)        000F56
_ADCAP                                                    (abs)        000F5D
_ADCC_GetSingleConversion                                 text191      0090B6
_ADCC_Initialize                                          text107      0085F6
_ADCLK                                                    (abs)        000F57
_ADCNT                                                    (abs)        000F67
_ADCON0                                                   (abs)        000F60
_ADCON0bits                                               (abs)        000F60
_ADCON1                                                   (abs)        000F59
_ADCON2                                                   (abs)        000F5A
_ADCON3                                                   (abs)        000F5B
_ADC_array                                                bssBANK2     000200
_ADC_zero_array                                           bssBANK3     000396
_ADERRH                                                   (abs)        000F6F
_ADERRL                                                   (abs)        000F6E
_ADFLTRH                                                  (abs)        000F73
_ADFLTRL                                                  (abs)        000F72
_ADLTHH                                                   (abs)        000F6B
_ADLTHL                                                   (abs)        000F6A
_ADPCH                                                    (abs)        000F5F
_ADPRE                                                    (abs)        000F5E
_ADPREVH                                                  (abs)        000F62
_ADPREVL                                                  (abs)        000F61
_ADREF                                                    (abs)        000F58
_ADRESH                                                   (abs)        000F64
_ADRESL                                                   (abs)        000F63
_ADRPT                                                    (abs)        000F66
_ADSTAT                                                   (abs)        000F65
_ADSTPTH                                                  (abs)        000F69
_ADSTPTL                                                  (abs)        000F68
_ADUTHH                                                   (abs)        000F6D
_ADUTHL                                                   (abs)        000F6C
_ANSELA                                                   (abs)        000F11
_ANSELB                                                   (abs)        000F19
_ANSELC                                                   (abs)        000F21
_ANSELD                                                   (abs)        000F26
_ANSELE                                                   (abs)        000F2E
_Abertura_pedonal                                         bssBANK1     00018D
_BAUD1CON                                                 (abs)        000F9F
_BitCount                                                 bssBANK0     00008C
_Bptr                                                     bssBANK0     00008D
_BufferRF                                                 bssBANK2     0002C8
_BufferRF_12BIT                                           bssBANK1     000187
_ClearFlag_rfCMD                                          text16       00924A
_CloseOrder                                               text35       008DB4
_ControlCounterMoves                                      text126      00834C
_ControlCurrent                                           text116      005E58
_ControlDecelarationFactor                                text32       009010
_ControlInputs                                            text115      00649E
_ControlLights                                            text111      0039C4
_ControlMotor                                             text109      004734
_Counterchoose                                            bssBANK0     000092
_DKEY                                                     bssBANK2     0002D1
_DecCHK                                                   text69       008A66
_Decrypt                                                  text65       006DA0
_DecryptPacket_12BIT                                      text70       007676
_DispTable                                                dataBANK3    0003D2
_EHop                                                     bssBANK2     00028C
_EUSART1_DefaultErrorHandler                              text205      00926E
_EUSART1_DefaultFramingErrorHandler                       text204      0092B0
_EUSART1_DefaultOverrunErrorHandler                       text203      009268
_EUSART1_ErrorHandler                                     nvBANK2      0002E5
_EUSART1_FramingErrorHandler                              nvBANK2      0002E9
_EUSART1_Initialize                                       text101      007B34
_EUSART1_OverrunErrorHandler                              nvBANK2      0002E7
_EUSART1_Read                                             text58       00872C
_EUSART1_Receive_ISR                                      text202      007422
_EUSART1_RxDataHandler                                    text206      008EFC
_EUSART1_RxDefaultInterruptHandler                        nvBANK2      0002EB
_EUSART1_SetErrorHandler                                  text106      0091CC
_EUSART1_SetFramingErrorHandler                           text105      0091C2
_EUSART1_SetOverrunErrorHandler                           text104      0091B8
_EUSART1_SetRxInterruptHandler                            text103      0091AE
_EUSART1_SetTxInterruptHandler                            text102      0091A4
_EUSART1_Transmit_ISR                                     text201      008A98
_EUSART1_TxDefaultInterruptHandler                        nvBANK2      0002ED
_EUSART1_Write                                            text83       008884
_EUSART1_is_rx_ready                                      text108      00911A
_F2Chance                                                 bssBANK1     000195
_GIE                                                      (abs)        007F97
_GetMotorPower                                            text125      006F36
_GetOpenOrder                                             text53       00517E
_GetSecurityStateInClosing                                text41       0072D6
_GetSecurityStateInOpening                                text51       00737C
_Hop                                                      bssBANK0     00007C
_HopCHK                                                   text66       00781A
_I2C1_CallbackReturnReset                                 text161      00928A
_I2C1_CallbackReturnStop                                  text162      00928E
_I2C1_Close                                               text179      008EDA
_I2C1_DO_ADDRESS_NACK                                     text138      008694
_I2C1_DO_IDLE                                             text152      0091EA
_I2C1_DO_RCEN                                             text147      0091E0
_I2C1_DO_RESET                                            text139      0091D6
_I2C1_DO_RX                                               text148      007C2E
_I2C1_DO_RX_ACK                                           text142      009214
_I2C1_DO_RX_NACK_RESTART                                  text140      009204
_I2C1_DO_RX_NACK_STOP                                     text141      00920C
_I2C1_DO_SEND_ADR_READ                                    text151      009156
_I2C1_DO_SEND_ADR_WRITE                                   text150      009148
_I2C1_DO_SEND_RESTART                                     text144      009224
_I2C1_DO_SEND_RESTART_READ                                text146      009234
_I2C1_DO_SEND_RESTART_WRITE                               text145      00922C
_I2C1_DO_SEND_STOP                                        text143      00921C
_I2C1_DO_TX                                               text149      00778E
_I2C1_DO_TX_EMPTY                                         text153      0081DA
_I2C1_Initialize                                          text100      0090F4
_I2C1_MasterClearIrq                                      text182      009262
_I2C1_MasterClose                                         text181      0092A2
_I2C1_MasterDisableIrq                                    text180      00929E
_I2C1_MasterEnableRestart                                 text177      009296
_I2C1_MasterFsm                                           text137      008500
_I2C1_MasterGetRxData                                     text158      009282
_I2C1_MasterIsNack                                        text155      009164
_I2C1_MasterOpen                                          text132      009070
_I2C1_MasterOperation                                     text134      008BAC
_I2C1_MasterSendAck                                       text157      009256
_I2C1_MasterSendNack                                      text159      00925C
_I2C1_MasterSendTxData                                    text156      00923C
_I2C1_MasterSetIrq                                        text154      009250
_I2C1_MasterStart                                         text178      00929A
_I2C1_MasterStartRx                                       text160      009286
_I2C1_MasterStop                                          text176      009292
_I2C1_MasterWaitForEvent                                  text136      0091FC
_I2C1_MasterWrite                                         text133      0091F4
_I2C1_Open                                                text131      0079AE
_I2C1_Poller                                              text135      00912A
_I2C1_Read1ByteRegister                                   text77       0082F0
_I2C1_SetAddressNackCallback                              text130      009058
_I2C1_SetBuffer                                           text175      008FF6
_I2C1_SetCallback                                         text174      007FD0
_I2C1_SetDataCompleteCallback                             text173      009088
_I2C1_Status                                              bssBANK2     00023C
_INLVLA                                                   (abs)        000F0D
_INLVLB                                                   (abs)        000F15
_INLVLC                                                   (abs)        000F1D
_INLVLD                                                   (abs)        000F22
_INLVLE                                                   (abs)        000F2A
_INTCONbits                                               (abs)        000FF2
_INTERRUPT_Initialize                                     text99       00927E
_INTERRUPT_InterruptManager                               intcode      000008
_IOCBN3                                                   (abs)        00789B
_IOCBP3                                                   (abs)        0078A3
_InitFullAutoTime                                         text45       008FC2
_InitReceiver                                             text5        008F8E
_InitSoftStart                                            text49       008294
_InitSoftStop                                             text31       0086E2
_InitWalkAutoTime                                         text50       0090CC
_LATA                                                     (abs)        000F83
_LATAbits                                                 (abs)        000F83
_LATB                                                     (abs)        000F84
_LATC                                                     (abs)        000F85
_LATCbits                                                 (abs)        000F85
_LATD                                                     (abs)        000F86
_LATDbits                                                 (abs)        000F86
_LATE                                                     (abs)        000F87
_LATEbits                                                 (abs)        000F87
_LoadManufCode                                            text64       008E96
_NextHop                                                  bssBANK2     00028E
_NormalKeyGen                                             text63       0066D2
_ODCONA                                                   (abs)        000F0F
_ODCONB                                                   (abs)        000F17
_ODCONC                                                   (abs)        000F1F
_ODCOND                                                   (abs)        000F24
_ODCONE                                                   (abs)        000F2C
_OSCCON1                                                  (abs)        000ED8
_OSCCON3                                                  (abs)        000EDA
_OSCEN                                                    (abs)        000EDC
_OSCFRQ                                                   (abs)        000EDE
_OSCILLATOR_Initialize                                    text98       0090A0
_OSCTUNE                                                  (abs)        000EDD
_OpenFullOrder                                            text44       008DDA
_OpenWalkOrder                                            text46       007F62
_PCON0bits                                                (abs)        000FD7
_PIE0bits                                                 (abs)        000EC2
_PIE3bits                                                 (abs)        000EC5
_PIE4bits                                                 (abs)        000EC6
_PIN_MANAGER_Initialize                                   text97       0074BC
_PIR0bits                                                 (abs)        000ECA
_PIR3bits                                                 (abs)        000ECD
_PIR4bits                                                 (abs)        000ECE
_PMD0                                                     (abs)        000EE1
_PMD1                                                     (abs)        000EE2
_PMD2                                                     (abs)        000EE3
_PMD3                                                     (abs)        000EE4
_PMD4                                                     (abs)        000EE5
_PMD5                                                     (abs)        000EE6
_PMD_Initialize                                           text96       008F56
_PORTAbits                                                (abs)        000F8D
_PORTB                                                    (abs)        000F8E
_PORTBbits                                                (abs)        000F8E
_PORTEbits                                                (abs)        000F91
_RC1REG                                                   (abs)        000F99
_RC1STA                                                   (abs)        000F9D
_RC1STAbits                                               (abs)        000F9D
_RC3PPS                                                   (abs)        000EFA
_RC4PPS                                                   (abs)        000EFB
_RC7PPS                                                   (abs)        000EFE
_RFBit                                                    bssBANK0     000089
_RFFull                                                   bssBANK0     00008B
_RFFull_12BIT                                             bssBANK0     00008A
_RFcount                                                  bssBANK0     00007E
_RFstate                                                  bssBANK1     000198
_RGB_Set                                                  text113      00913A
_RX1PPS                                                   (abs)        000EB5
_ReadADC                                                  text190      0084AA
_RemoveSerial                                             text11       007AB4
_ReqResync                                                text68       009028
_ResetDefaultMemory                                       text76       005B4C
_SLRCONA                                                  (abs)        000F0E
_SLRCONB                                                  (abs)        000F16
_SLRCONC                                                  (abs)        000F1E
_SLRCOND                                                  (abs)        000F23
_SLRCONE                                                  (abs)        000F2B
_SP1BRGH                                                  (abs)        000F9C
_SP1BRGL                                                  (abs)        000F9B
_SSP1ADD                                                  (abs)        000F93
_SSP1BUF                                                  (abs)        000F92
_SSP1CLKPPS                                               (abs)        000EB7
_SSP1CON1                                                 (abs)        000F96
_SSP1CON1bits                                             (abs)        000F96
_SSP1CON2                                                 (abs)        000F97
_SSP1CON2bits                                             (abs)        000F97
_SSP1DATPPS                                               (abs)        000EB8
_SSP1STAT                                                 (abs)        000F95
_SYSTEM_Initialize                                        text88       008AFA
_SaveNVM_VarSystem                                        text127      0089FA
_Segments_Set                                             text186      009170
_SetSegmentValue                                          text87       008FDC
_SetSegmentValueIntermitent                               text52       008B28
_SetSegmentValueIntermitentMain                           text55       0090E0
_SetSegmentValueLearn                                     text18       0069E6
_SetSegmentValueMain                                      text15       008FA8
_ShowVersion                                              text86       008112
_StateTRIAC                                               bssBANK1     000190
_StopOrder                                                text40       008F1E
_SumEnergyADCHist_array                                   bssBANK2     000260
_T0CON0                                                   (abs)        000FD5
_T0CON1                                                   (abs)        000FD6
_T1CLK                                                    (abs)        000FD2
_T1CON                                                    (abs)        000FCF
_T1CONbits                                                (abs)        000FCF
_T1GATE                                                   (abs)        000FD1
_T1GCON                                                   (abs)        000FD0
_T2CLKCON                                                 (abs)        000FBF
_T2CON                                                    (abs)        000FBD
_T2HLT                                                    (abs)        000FBE
_T2PR                                                     (abs)        000FBC
_T2RST                                                    (abs)        000FC0
_T2TMR                                                    (abs)        000FBB
_TMR0H                                                    (abs)        000FD4
_TMR0IE                                                   (abs)        007615
_TMR0IF                                                   (abs)        007655
_TMR0L                                                    (abs)        000FD3
_TMR0_DefaultInterruptHandler                             text200      0092AE
_TMR0_ISR                                                 text198      008E26
_TMR0_Initialize                                          text94       008EB8
_TMR0_InterruptHandler                                    nvBANK2      0002E3
_TMR0_SetInterruptHandler                                 text95       00919A
_TMR1H                                                    (abs)        000FCE
_TMR1L                                                    (abs)        000FCD
_TMR1_DefaultInterruptHandler                             text197      0092AC
_TMR1_ISR                                                 text192      008944
_TMR1_Initialize                                          text92       008842
_TMR1_InterruptHandler                                    nvBANK2      0002DF
_TMR1_SetInterruptHandler                                 text93       009190
_TMR1_WriteTimer                                          text196      008F72
_TMR2_DefaultInterruptHandler                             text189      0092AA
_TMR2_ISR                                                 text184      005FCC
_TMR2_Initialize                                          text90       008B80
_TMR2_InterruptHandler                                    nvBANK2      0002DD
_TMR2_SetInterruptHandler                                 text91       009186
_TRISA                                                    (abs)        000F88
_TRISB                                                    (abs)        000F89
_TRISC                                                    (abs)        000F8A
_TRISD                                                    (abs)        000F8B
_TRISE                                                    (abs)        000F8C
_TX1REG                                                   (abs)        000F9A
_TX1STA                                                   (abs)        000F9E
_VerifyElectricalBrake                                    text110      007CA8
_VerifyFollowMe                                           text34       008E72
_WDTCON0                                                  (abs)        000ED2
_WDTCON0bits                                              (abs)        000ED2
_WDTCON1                                                  (abs)        000ED3
_WPUA                                                     (abs)        000F10
_WPUB                                                     (abs)        000F18
_WPUC                                                     (abs)        000F20
_WPUD                                                     (abs)        000F25
_WPUE                                                     (abs)        000F2D
_WWDT_Initialize                                          text89       00917C
_WWDT_SoftEnable                                          text85       00927A
_WWDT_TimerClear                                          text84       008F3A
_WaitPreFlash                                             text43       007EF2
__HRAM                                                    (abs)        000000
__Habs1                                                   abs1         000000
__Hbank0                                                  bank0        000000
__Hbank1                                                  bank1        000000
__Hbank10                                                 bank10       000000
__Hbank11                                                 bank11       000000
__Hbank12                                                 bank12       000000
__Hbank13                                                 bank13       000000
__Hbank14                                                 bank14       000000
__Hbank2                                                  bank2        000000
__Hbank3                                                  bank3        000000
__Hbank4                                                  bank4        000000
__Hbank5                                                  bank5        000000
__Hbank6                                                  bank6        000000
__Hbank7                                                  bank7        000000
__Hbank8                                                  bank8        000000
__Hbank9                                                  bank9        000000
__Hbigbss                                                 bigbss       000000
__Hbigdata                                                bigdata      000000
__Hbigram                                                 bigram       000000
__Hbigsfr                                                 bigsfr       000000
__Hbss                                                    bss          000000
__HbssBANK0                                               bssBANK0     000000
__HbssBANK1                                               bssBANK1     000000
__HbssBANK2                                               bssBANK2     000000
__HbssBANK3                                               bssBANK3     000000
__HbssCOMRAM                                              bssCOMRAM    000000
__Hcinit                                                  cinit        000000
__Hclrtext                                                clrtext      000000
__Hcomram                                                 comram       000000
__Hconfig                                                 config       30000C
__Hconst                                                  const        000000
__HcstackBANK0                                            cstackBANK0  000000
__HcstackCOMRAM                                           cstackCOMRAM 000000
__Hdata                                                   data         000000
__HdataBANK0                                              dataBANK0    000000
__HdataBANK1                                              dataBANK1    000000
__HdataBANK2                                              dataBANK2    000000
__HdataBANK3                                              dataBANK3    000000
__Heeprom_data                                            eeprom_data  000000
__Hfarbss                                                 farbss       000000
__Hfardata                                                fardata      000000
__Hheap                                                   heap         000000
__Hibigdata                                               ibigdata     000000
__Hidata                                                  idata        000000
__HidataBANK0                                             idataBANK0   000000
__HidataBANK1                                             idataBANK1   000000
__HidataBANK2                                             idataBANK2   000000
__HidataBANK3                                             idataBANK3   000000
__Hidloc                                                  idloc        200010
__Hifardata                                               ifardata     000000
__Hinit                                                   init         0000A0
__Hintcode                                                intcode      00009C
__Hintcode_body                                           intcode_body 000000
__Hintcodelo                                              intcodelo    00009C
__Hintentry                                               intentry     000000
__Hintret                                                 intret       000000
__Hintsave_regs                                           intsave_regs 000000
__Hirdata                                                 irdata       000000
__Hmediumconst                                            mediumconst  000000
__HnvBANK1                                                nvBANK1      000000
__HnvBANK2                                                nvBANK2      000000
__HnvFARRAM                                               nvFARRAM     000000
__Hnvbit                                                  nvbit        000000
__Hnvrram                                                 nvrram       000000
__Hparam                                                  rparam       000000
__Hpowerup                                                powerup      00009C
__Hram                                                    ram          000000
__Hramtop                                                 ramtop       000F00
__Hrbit                                                   rbit         000000
__Hrbss                                                   rbss         000000
__Hrdata                                                  rdata        000000
__Hreset_vec                                              reset_vec    000006
__Hrparam                                                 rparam       000000
__Hsfr                                                    sfr          000000
__Hsmallconst                                             smallconst   000F22
__Hspace_0                                                (abs)        0092B2
__Hspace_1                                                (abs)        0003F7
__Hspace_2                                                (abs)        000000
__Hspace_4                                                (abs)        60000C
__Hstack                                                  stack        000000
__Hstruct                                                 struct       000000
__Htemp                                                   temp         000051
__Htext                                                   text         000000
__Htext0                                                  text0        000000
__Htext1                                                  text1        000000
__Htext10                                                 text10       000000
__Htext100                                                text100      000000
__Htext101                                                text101      000000
__Htext102                                                text102      000000
__Htext103                                                text103      000000
__Htext104                                                text104      000000
__Htext105                                                text105      000000
__Htext106                                                text106      000000
__Htext107                                                text107      000000
__Htext108                                                text108      000000
__Htext109                                                text109      000000
__Htext11                                                 text11       000000
__Htext110                                                text110      000000
__Htext111                                                text111      000000
__Htext112                                                text112      000000
__Htext113                                                text113      000000
__Htext114                                                text114      000000
__Htext115                                                text115      000000
__Htext116                                                text116      000000
__Htext117                                                text117      000000
__Htext118                                                text118      000000
__Htext119                                                text119      000000
__Htext12                                                 text12       000000
__Htext120                                                text120      000000
__Htext121                                                text121      000000
__Htext122                                                text122      000000
__Htext123                                                text123      000000
__Htext124                                                text124      000000
__Htext125                                                text125      000000
__Htext126                                                text126      000000
__Htext127                                                text127      000000
__Htext128                                                text128      000000
__Htext129                                                text129      000000
__Htext13                                                 text13       000000
__Htext130                                                text130      000000
__Htext131                                                text131      000000
__Htext132                                                text132      000000
__Htext133                                                text133      000000
__Htext134                                                text134      000000
__Htext135                                                text135      000000
__Htext136                                                text136      000000
__Htext137                                                text137      000000
__Htext138                                                text138      000000
__Htext139                                                text139      000000
__Htext14                                                 text14       000000
__Htext140                                                text140      000000
__Htext141                                                text141      000000
__Htext142                                                text142      000000
__Htext143                                                text143      000000
__Htext144                                                text144      000000
__Htext145                                                text145      000000
__Htext146                                                text146      000000
__Htext147                                                text147      000000
__Htext148                                                text148      000000
__Htext149                                                text149      000000
__Htext15                                                 text15       000000
__Htext150                                                text150      000000
__Htext151                                                text151      000000
__Htext152                                                text152      000000
__Htext153                                                text153      000000
__Htext154                                                text154      000000
__Htext155                                                text155      000000
__Htext156                                                text156      000000
__Htext157                                                text157      000000
__Htext158                                                text158      000000
__Htext159                                                text159      000000
__Htext16                                                 text16       000000
__Htext160                                                text160      000000
__Htext161                                                text161      000000
__Htext162                                                text162      000000
__Htext163                                                text163      000000
__Htext164                                                text164      000000
__Htext165                                                text165      000000
__Htext166                                                text166      000000
__Htext167                                                text167      000000
__Htext168                                                text168      000000
__Htext169                                                text169      000000
__Htext17                                                 text17       000000
__Htext170                                                text170      000000
__Htext171                                                text171      000000
__Htext172                                                text172      000000
__Htext173                                                text173      000000
__Htext174                                                text174      000000
__Htext175                                                text175      000000
__Htext176                                                text176      000000
__Htext177                                                text177      000000
__Htext178                                                text178      000000
__Htext179                                                text179      000000
__Htext18                                                 text18       000000
__Htext180                                                text180      000000
__Htext181                                                text181      000000
__Htext182                                                text182      000000
__Htext184                                                text184      000000
__Htext185                                                text185      000000
__Htext186                                                text186      000000
__Htext187                                                text187      000000
__Htext188                                                text188      000000
__Htext189                                                text189      000000
__Htext19                                                 text19       000000
__Htext190                                                text190      000000
__Htext191                                                text191      000000
__Htext192                                                text192      000000
__Htext193                                                text193      000000
__Htext194                                                text194      000000
__Htext195                                                text195      000000
__Htext196                                                text196      000000
__Htext197                                                text197      000000
__Htext198                                                text198      000000
__Htext199                                                text199      000000
__Htext2                                                  text2        000000
__Htext20                                                 text20       000000
__Htext200                                                text200      000000
__Htext201                                                text201      000000
__Htext202                                                text202      000000
__Htext203                                                text203      000000
__Htext204                                                text204      000000
__Htext205                                                text205      000000
__Htext206                                                text206      000000
__Htext207                                                text207      000000
__Htext21                                                 text21       000000
__Htext22                                                 text22       000000
__Htext23                                                 text23       000000
__Htext24                                                 text24       000000
__Htext25                                                 text25       000000
__Htext26                                                 text26       000000
__Htext27                                                 text27       000000
__Htext28                                                 text28       000000
__Htext29                                                 text29       000000
__Htext3                                                  text3        000000
__Htext30                                                 text30       000000
__Htext31                                                 text31       000000
__Htext32                                                 text32       000000
__Htext33                                                 text33       000000
__Htext34                                                 text34       000000
__Htext35                                                 text35       000000
__Htext36                                                 text36       000000
__Htext37                                                 text37       000000
__Htext38                                                 text38       000000
__Htext39                                                 text39       000000
__Htext4                                                  text4        000000
__Htext40                                                 text40       000000
__Htext41                                                 text41       000000
__Htext42                                                 text42       000000
__Htext43                                                 text43       000000
__Htext44                                                 text44       000000
__Htext45                                                 text45       000000
__Htext46                                                 text46       000000
__Htext47                                                 text47       000000
__Htext48                                                 text48       000000
__Htext49                                                 text49       000000
__Htext5                                                  text5        000000
__Htext50                                                 text50       000000
__Htext51                                                 text51       000000
__Htext52                                                 text52       000000
__Htext53                                                 text53       000000
__Htext54                                                 text54       000000
__Htext55                                                 text55       000000
__Htext56                                                 text56       000000
__Htext57                                                 text57       000000
__Htext58                                                 text58       000000
__Htext59                                                 text59       000000
__Htext6                                                  text6        000000
__Htext60                                                 text60       000000
__Htext61                                                 text61       000000
__Htext62                                                 text62       000000
__Htext63                                                 text63       000000
__Htext64                                                 text64       000000
__Htext65                                                 text65       000000
__Htext66                                                 text66       000000
__Htext67                                                 text67       000000
__Htext68                                                 text68       000000
__Htext69                                                 text69       000000
__Htext7                                                  text7        000000
__Htext70                                                 text70       000000
__Htext71                                                 text71       000000
__Htext72                                                 text72       000000
__Htext73                                                 text73       000000
__Htext74                                                 text74       000000
__Htext75                                                 text75       000000
__Htext76                                                 text76       000000
__Htext77                                                 text77       000000
__Htext78                                                 text78       000000
__Htext79                                                 text79       000000
__Htext8                                                  text8        000000
__Htext80                                                 text80       000000
__Htext81                                                 text81       000000
__Htext82                                                 text82       000000
__Htext83                                                 text83       000000
__Htext84                                                 text84       000000
__Htext85                                                 text85       000000
__Htext86                                                 text86       000000
__Htext87                                                 text87       000000
__Htext88                                                 text88       000000
__Htext89                                                 text89       000000
__Htext9                                                  text9        000000
__Htext90                                                 text90       000000
__Htext91                                                 text91       000000
__Htext92                                                 text92       000000
__Htext93                                                 text93       000000
__Htext94                                                 text94       000000
__Htext95                                                 text95       000000
__Htext96                                                 text96       000000
__Htext97                                                 text97       000000
__Htext98                                                 text98       000000
__Htext99                                                 text99       000000
__LRAM                                                    (abs)        000001
__Labs1                                                   abs1         000000
__Lbank0                                                  bank0        000000
__Lbank1                                                  bank1        000000
__Lbank10                                                 bank10       000000
__Lbank11                                                 bank11       000000
__Lbank12                                                 bank12       000000
__Lbank13                                                 bank13       000000
__Lbank14                                                 bank14       000000
__Lbank2                                                  bank2        000000
__Lbank3                                                  bank3        000000
__Lbank4                                                  bank4        000000
__Lbank5                                                  bank5        000000
__Lbank6                                                  bank6        000000
__Lbank7                                                  bank7        000000
__Lbank8                                                  bank8        000000
__Lbank9                                                  bank9        000000
__Lbigbss                                                 bigbss       000000
__Lbigdata                                                bigdata      000000
__Lbigram                                                 bigram       000000
__Lbigsfr                                                 bigsfr       000000
__Lbss                                                    bss          000000
__LbssBANK0                                               bssBANK0     000000
__LbssBANK1                                               bssBANK1     000000
__LbssBANK2                                               bssBANK2     000000
__LbssBANK3                                               bssBANK3     000000
__LbssCOMRAM                                              bssCOMRAM    000000
__Lcinit                                                  cinit        000000
__Lclrtext                                                clrtext      000000
__Lcomram                                                 comram       000000
__Lconfig                                                 config       000000
__Lconst                                                  const        000000
__LcstackBANK0                                            cstackBANK0  000000
__LcstackCOMRAM                                           cstackCOMRAM 000000
__Ldata                                                   data         000000
__LdataBANK0                                              dataBANK0    000000
__LdataBANK1                                              dataBANK1    000000
__LdataBANK2                                              dataBANK2    000000
__LdataBANK3                                              dataBANK3    000000
__Leeprom_data                                            eeprom_data  000000
__Lfarbss                                                 farbss       000000
__Lfardata                                                fardata      000000
__Lheap                                                   heap         000000
__Libigdata                                               ibigdata     000000
__Lidata                                                  idata        000000
__LidataBANK0                                             idataBANK0   000000
__LidataBANK1                                             idataBANK1   000000
__LidataBANK2                                             idataBANK2   000000
__LidataBANK3                                             idataBANK3   000000
__Lidloc                                                  idloc        000000
__Lifardata                                               ifardata     000000
__Linit                                                   init         00009C
__Lintcode                                                intcode      000008
__Lintcode_body                                           intcode_body 000000
__Lintcodelo                                              intcodelo    00009C
__Lintentry                                               intentry     000000
__Lintret                                                 intret       000000
__Lintsave_regs                                           intsave_regs 000000
__Lirdata                                                 irdata       000000
__Lmediumconst                                            mediumconst  000000
__LnvBANK1                                                nvBANK1      000000
__LnvBANK2                                                nvBANK2      000000
__LnvFARRAM                                               nvFARRAM     000000
__Lnvbit                                                  nvbit        000000
__Lnvrram                                                 nvrram       000000
__Lparam                                                  rparam       000000
__Lpowerup                                                powerup      00009C
__Lram                                                    ram          000000
__Lramtop                                                 ramtop       000F00
__Lrbit                                                   rbit         000000
__Lrbss                                                   rbss         000000
__Lrdata                                                  rdata        000000
__Lreset_vec                                              reset_vec    000000
__Lrparam                                                 rparam       000000
__Lsfr                                                    sfr          000000
__Lsmallconst                                             smallconst   000F00
__Lspace_0                                                (abs)        000000
__Lspace_1                                                (abs)        000000
__Lspace_2                                                (abs)        000000
__Lspace_4                                                (abs)        000000
__Lstack                                                  stack        000000
__Lstruct                                                 struct       000000
__Ltemp                                                   temp         000050
__Ltext                                                   text         000000
__Ltext0                                                  text0        000000
__Ltext1                                                  text1        000000
__Ltext10                                                 text10       000000
__Ltext100                                                text100      000000
__Ltext101                                                text101      000000
__Ltext102                                                text102      000000
__Ltext103                                                text103      000000
__Ltext104                                                text104      000000
__Ltext105                                                text105      000000
__Ltext106                                                text106      000000
__Ltext107                                                text107      000000
__Ltext108                                                text108      000000
__Ltext109                                                text109      000000
__Ltext11                                                 text11       000000
__Ltext110                                                text110      000000
__Ltext111                                                text111      000000
__Ltext112                                                text112      000000
__Ltext113                                                text113      000000
__Ltext114                                                text114      000000
__Ltext115                                                text115      000000
__Ltext116                                                text116      000000
__Ltext117                                                text117      000000
__Ltext118                                                text118      000000
__Ltext119                                                text119      000000
__Ltext12                                                 text12       000000
__Ltext120                                                text120      000000
__Ltext121                                                text121      000000
__Ltext122                                                text122      000000
__Ltext123                                                text123      000000
__Ltext124                                                text124      000000
__Ltext125                                                text125      000000
__Ltext126                                                text126      000000
__Ltext127                                                text127      000000
__Ltext128                                                text128      000000
__Ltext129                                                text129      000000
__Ltext13                                                 text13       000000
__Ltext130                                                text130      000000
__Ltext131                                                text131      000000
__Ltext132                                                text132      000000
__Ltext133                                                text133      000000
__Ltext134                                                text134      000000
__Ltext135                                                text135      000000
__Ltext136                                                text136      000000
__Ltext137                                                text137      000000
__Ltext138                                                text138      000000
__Ltext139                                                text139      000000
__Ltext14                                                 text14       000000
__Ltext140                                                text140      000000
__Ltext141                                                text141      000000
__Ltext142                                                text142      000000
__Ltext143                                                text143      000000
__Ltext144                                                text144      000000
__Ltext145                                                text145      000000
__Ltext146                                                text146      000000
__Ltext147                                                text147      000000
__Ltext148                                                text148      000000
__Ltext149                                                text149      000000
__Ltext15                                                 text15       000000
__Ltext150                                                text150      000000
__Ltext151                                                text151      000000
__Ltext152                                                text152      000000
__Ltext153                                                text153      000000
__Ltext154                                                text154      000000
__Ltext155                                                text155      000000
__Ltext156                                                text156      000000
__Ltext157                                                text157      000000
__Ltext158                                                text158      000000
__Ltext159                                                text159      000000
__Ltext16                                                 text16       000000
__Ltext160                                                text160      000000
__Ltext161                                                text161      000000
__Ltext162                                                text162      000000
__Ltext163                                                text163      000000
__Ltext164                                                text164      000000
__Ltext165                                                text165      000000
__Ltext166                                                text166      000000
__Ltext167                                                text167      000000
__Ltext168                                                text168      000000
__Ltext169                                                text169      000000
__Ltext17                                                 text17       000000
__Ltext170                                                text170      000000
__Ltext171                                                text171      000000
__Ltext172                                                text172      000000
__Ltext173                                                text173      000000
__Ltext174                                                text174      000000
__Ltext175                                                text175      000000
__Ltext176                                                text176      000000
__Ltext177                                                text177      000000
__Ltext178                                                text178      000000
__Ltext179                                                text179      000000
__Ltext18                                                 text18       000000
__Ltext180                                                text180      000000
__Ltext181                                                text181      000000
__Ltext182                                                text182      000000
__Ltext184                                                text184      000000
__Ltext185                                                text185      000000
__Ltext186                                                text186      000000
__Ltext187                                                text187      000000
__Ltext188                                                text188      000000
__Ltext189                                                text189      000000
__Ltext19                                                 text19       000000
__Ltext190                                                text190      000000
__Ltext191                                                text191      000000
__Ltext192                                                text192      000000
__Ltext193                                                text193      000000
__Ltext194                                                text194      000000
__Ltext195                                                text195      000000
__Ltext196                                                text196      000000
__Ltext197                                                text197      000000
__Ltext198                                                text198      000000
__Ltext199                                                text199      000000
__Ltext2                                                  text2        000000
__Ltext20                                                 text20       000000
__Ltext200                                                text200      000000
__Ltext201                                                text201      000000
__Ltext202                                                text202      000000
__Ltext203                                                text203      000000
__Ltext204                                                text204      000000
__Ltext205                                                text205      000000
__Ltext206                                                text206      000000
__Ltext207                                                text207      000000
__Ltext21                                                 text21       000000
__Ltext22                                                 text22       000000
__Ltext23                                                 text23       000000
__Ltext24                                                 text24       000000
__Ltext25                                                 text25       000000
__Ltext26                                                 text26       000000
__Ltext27                                                 text27       000000
__Ltext28                                                 text28       000000
__Ltext29                                                 text29       000000
__Ltext3                                                  text3        000000
__Ltext30                                                 text30       000000
__Ltext31                                                 text31       000000
__Ltext32                                                 text32       000000
__Ltext33                                                 text33       000000
__Ltext34                                                 text34       000000
__Ltext35                                                 text35       000000
__Ltext36                                                 text36       000000
__Ltext37                                                 text37       000000
__Ltext38                                                 text38       000000
__Ltext39                                                 text39       000000
__Ltext4                                                  text4        000000
__Ltext40                                                 text40       000000
__Ltext41                                                 text41       000000
__Ltext42                                                 text42       000000
__Ltext43                                                 text43       000000
__Ltext44                                                 text44       000000
__Ltext45                                                 text45       000000
__Ltext46                                                 text46       000000
__Ltext47                                                 text47       000000
__Ltext48                                                 text48       000000
__Ltext49                                                 text49       000000
__Ltext5                                                  text5        000000
__Ltext50                                                 text50       000000
__Ltext51                                                 text51       000000
__Ltext52                                                 text52       000000
__Ltext53                                                 text53       000000
__Ltext54                                                 text54       000000
__Ltext55                                                 text55       000000
__Ltext56                                                 text56       000000
__Ltext57                                                 text57       000000
__Ltext58                                                 text58       000000
__Ltext59                                                 text59       000000
__Ltext6                                                  text6        000000
__Ltext60                                                 text60       000000
__Ltext61                                                 text61       000000
__Ltext62                                                 text62       000000
__Ltext63                                                 text63       000000
__Ltext64                                                 text64       000000
__Ltext65                                                 text65       000000
__Ltext66                                                 text66       000000
__Ltext67                                                 text67       000000
__Ltext68                                                 text68       000000
__Ltext69                                                 text69       000000
__Ltext7                                                  text7        000000
__Ltext70                                                 text70       000000
__Ltext71                                                 text71       000000
__Ltext72                                                 text72       000000
__Ltext73                                                 text73       000000
__Ltext74                                                 text74       000000
__Ltext75                                                 text75       000000
__Ltext76                                                 text76       000000
__Ltext77                                                 text77       000000
__Ltext78                                                 text78       000000
__Ltext79                                                 text79       000000
__Ltext8                                                  text8        000000
__Ltext80                                                 text80       000000
__Ltext81                                                 text81       000000
__Ltext82                                                 text82       000000
__Ltext83                                                 text83       000000
__Ltext84                                                 text84       000000
__Ltext85                                                 text85       000000
__Ltext86                                                 text86       000000
__Ltext87                                                 text87       000000
__Ltext88                                                 text88       000000
__Ltext89                                                 text89       000000
__Ltext9                                                  text9        000000
__Ltext90                                                 text90       000000
__Ltext91                                                 text91       000000
__Ltext92                                                 text92       000000
__Ltext93                                                 text93       000000
__Ltext94                                                 text94       000000
__Ltext95                                                 text95       000000
__Ltext96                                                 text96       000000
__Ltext97                                                 text97       000000
__Ltext98                                                 text98       000000
__Ltext99                                                 text99       000000
__S0                                                      (abs)        0092B2
__S1                                                      (abs)        0003F7
__S4                                                      (abs)        000000
__S5                                                      (abs)        000000
___awdiv                                                  text14       00792A
___awdiv@counter                                          cstackCOMRAM 000018
___awdiv@dividend                                         cstackCOMRAM 000014
___awdiv@divisor                                          cstackCOMRAM 000016
___awdiv@quotient                                         cstackCOMRAM 00001A
___awdiv@sign                                             cstackCOMRAM 000019
___heap_hi                                                (abs)        000000
___heap_lo                                                (abs)        000000
___inthi_sp                                               stack        000000
___intlo_sp                                               stack        000000
___lbdiv                                                  text54       0089C0
___lbdiv@counter                                          cstackCOMRAM 000012
___lbdiv@dividend                                         cstackCOMRAM 000011
___lbdiv@divisor                                          cstackCOMRAM 000010
___lbdiv@quotient                                         cstackCOMRAM 000013
___lbmod                                                  text13       008D38
___lbmod@counter                                          cstackCOMRAM 000012
___lbmod@dividend                                         cstackCOMRAM 000011
___lbmod@divisor                                          cstackCOMRAM 000010
___lbmod@rem                                              cstackCOMRAM 000013
___lldiv                                                  text19       007A32
___lldiv@counter                                          cstackCOMRAM 00001C
___lldiv@dividend                                         cstackCOMRAM 000010
___lldiv@divisor                                          cstackCOMRAM 000014
___lldiv@quotient                                         cstackCOMRAM 000018
___lmul                                                   text39       008454
___lmul@multiplicand                                      cstackCOMRAM 000021
___lmul@multiplier                                        cstackCOMRAM 00001D
___lmul@product                                           cstackCOMRAM 000025
___lwdiv                                                  text122      008554
___lwdiv@counter                                          cstackCOMRAM 000016
___lwdiv@dividend                                         cstackCOMRAM 000010
___lwdiv@divisor                                          cstackCOMRAM 000012
___lwdiv@quotient                                         cstackCOMRAM 000014
___param_bank                                             (abs)        000000
___rparam_used                                            (abs)        000001
___sp                                                     stack        000000
___wmul                                                   text124      008E00
___wmul@multiplicand                                      cstackCOMRAM 000012
___wmul@multiplier                                        cstackCOMRAM 000010
___wmul@product                                           cstackCOMRAM 000014
__accesstop                                               (abs)        000060
__activetblptr                                            (abs)        000003
__end_of_ADCC_GetSingleConversion                         text191      0090CC
__end_of_ADCC_Initialize                                  text107      008646
__end_of_ClearFlag_rfCMD                                  text16       009250
__end_of_CloseOrder                                       text35       008DDA
__end_of_ControlCounterMoves                              text126      0083A6
__end_of_ControlCurrent                                   text116      005FCC
__end_of_ControlDecelarationFactor                        text32       009028
__end_of_ControlInputs                                    text115      0065C2
__end_of_ControlLights                                    text111      003CE8
__end_of_ControlMotor                                     text109      00497E
__end_of_DecCHK                                           text69       008A98
__end_of_Decrypt                                          text65       006E6C
__end_of_DecryptPacket_12BIT                              text70       007702
__end_of_EUSART1_DefaultErrorHandler                      text205      009274
__end_of_EUSART1_DefaultFramingErrorHandler               text204      0092B2
__end_of_EUSART1_DefaultOverrunErrorHandler               text203      00926E
__end_of_EUSART1_Initialize                               text101      007BB2
__end_of_EUSART1_Read                                     text58       008774
__end_of_EUSART1_Receive_ISR                              text202      0074BC
__end_of_EUSART1_RxDataHandler                            text206      008F1E
__end_of_EUSART1_SetErrorHandler                          text106      0091D6
__end_of_EUSART1_SetFramingErrorHandler                   text105      0091CC
__end_of_EUSART1_SetOverrunErrorHandler                   text104      0091C2
__end_of_EUSART1_SetRxInterruptHandler                    text103      0091B8
__end_of_EUSART1_SetTxInterruptHandler                    text102      0091AE
__end_of_EUSART1_Transmit_ISR                             text201      008ACA
__end_of_EUSART1_Write                                    text83       0088C4
__end_of_EUSART1_is_rx_ready                              text108      00912A
__end_of_GetMotorPower                                    text125      006FFC
__end_of_GetOpenOrder                                     text53       005346
__end_of_GetSecurityStateInClosing                        text41       00737C
__end_of_GetSecurityStateInOpening                        text51       007422
__end_of_HopCHK                                           text66       0078A4
__end_of_I2C1_CallbackReturnReset                         text161      00928E
__end_of_I2C1_CallbackReturnStop                          text162      009292
__end_of_I2C1_Close                                       text179      008EFC
__end_of_I2C1_DO_ADDRESS_NACK                             text138      0086E2
__end_of_I2C1_DO_IDLE                                     text152      0091F4
__end_of_I2C1_DO_RCEN                                     text147      0091EA
__end_of_I2C1_DO_RESET                                    text139      0091E0
__end_of_I2C1_DO_RX                                       text148      007CA8
__end_of_I2C1_DO_RX_ACK                                   text142      00921C
__end_of_I2C1_DO_RX_NACK_RESTART                          text140      00920C
__end_of_I2C1_DO_RX_NACK_STOP                             text141      009214
__end_of_I2C1_DO_SEND_ADR_READ                            text151      009164
__end_of_I2C1_DO_SEND_ADR_WRITE                           text150      009156
__end_of_I2C1_DO_SEND_RESTART                             text144      00922C
__end_of_I2C1_DO_SEND_RESTART_READ                        text146      00923C
__end_of_I2C1_DO_SEND_RESTART_WRITE                       text145      009234
__end_of_I2C1_DO_SEND_STOP                                text143      009224
__end_of_I2C1_DO_TX                                       text149      00781A
__end_of_I2C1_DO_TX_EMPTY                                 text153      008238
__end_of_I2C1_Initialize                                  text100      009108
__end_of_I2C1_MasterClearIrq                              text182      009268
__end_of_I2C1_MasterClose                                 text181      0092A6
__end_of_I2C1_MasterDisableIrq                            text180      0092A2
__end_of_I2C1_MasterEnableRestart                         text177      00929A
__end_of_I2C1_MasterFsm                                   text137      008554
__end_of_I2C1_MasterGetRxData                             text158      009286
__end_of_I2C1_MasterIsNack                                text155      009170
__end_of_I2C1_MasterOpen                                  text132      009088
__end_of_I2C1_MasterOperation                             text134      008BD8
__end_of_I2C1_MasterSendAck                               text157      00925C
__end_of_I2C1_MasterSendNack                              text159      009262
__end_of_I2C1_MasterSendTxData                            text156      009244
__end_of_I2C1_MasterSetIrq                                text154      009256
__end_of_I2C1_MasterStart                                 text178      00929E
__end_of_I2C1_MasterStartRx                               text160      00928A
__end_of_I2C1_MasterStop                                  text176      009296
__end_of_I2C1_MasterWaitForEvent                          text136      009204
__end_of_I2C1_MasterWrite                                 text133      0091FC
__end_of_I2C1_Open                                        text131      007A32
__end_of_I2C1_Poller                                      text135      00913A
__end_of_I2C1_Read1ByteRegister                           text77       00834C
__end_of_I2C1_SetAddressNackCallback                      text130      009070
__end_of_I2C1_SetBuffer                                   text175      009010
__end_of_I2C1_SetCallback                                 text174      00803E
__end_of_I2C1_SetDataCompleteCallback                     text173      0090A0
__end_of_INTERRUPT_Initialize                             text99       009282
__end_of_INTERRUPT_InterruptManager                       intcode      00009C
__end_of_InitFullAutoTime                                 text45       008FDC
__end_of_InitReceiver                                     text5        008FA8
__end_of_InitSoftStart                                    text49       0082F0
__end_of_InitSoftStop                                     text31       00872C
__end_of_InitWalkAutoTime                                 text50       0090E0
__end_of_LoadManufCode                                    text64       008EB8
__end_of_NormalKeyGen                                     text63       0067E0
__end_of_OSCILLATOR_Initialize                            text98       0090B6
__end_of_OpenFullOrder                                    text44       008E00
__end_of_OpenWalkOrder                                    text46       007FD0
__end_of_PIN_MANAGER_Initialize                           text97       007554
__end_of_PMD_Initialize                                   text96       008F72
__end_of_RGB_Set                                          text113      009148
__end_of_ReadADC                                          text190      008500
__end_of_RemoveSerial                                     text11       007B34
__end_of_ReqResync                                        text68       009040
__end_of_ResetDefaultMemory                               text76       005CD6
__end_of_SYSTEM_Initialize                                text88       008B28
__end_of_SaveNVM_VarSystem                                text127      008A32
__end_of_Segments_Set                                     text186      00917C
__end_of_SetSegmentValue                                  text87       008FF6
__end_of_SetSegmentValueIntermitent                       text52       008B54
__end_of_SetSegmentValueIntermitentMain                   text55       0090F4
__end_of_SetSegmentValueLearn                             text18       006AE2
__end_of_SetSegmentValueMain                              text15       008FC2
__end_of_ShowVersion                                      text86       008178
__end_of_StopOrder                                        text40       008F3A
__end_of_TMR0_DefaultInterruptHandler                     text200      0092B0
__end_of_TMR0_ISR                                         text198      008E4C
__end_of_TMR0_Initialize                                  text94       008EDA
__end_of_TMR0_SetInterruptHandler                         text95       0091A4
__end_of_TMR1_DefaultInterruptHandler                     text197      0092AE
__end_of_TMR1_ISR                                         text192      008984
__end_of_TMR1_Initialize                                  text92       008884
__end_of_TMR1_SetInterruptHandler                         text93       00919A
__end_of_TMR1_WriteTimer                                  text196      008F8E
__end_of_TMR2_DefaultInterruptHandler                     text189      0092AC
__end_of_TMR2_ISR                                         text184      00611A
__end_of_TMR2_Initialize                                  text90       008BAC
__end_of_TMR2_SetInterruptHandler                         text91       009190
__end_of_VerifyElectricalBrake                            text110      007D20
__end_of_VerifyFollowMe                                   text34       008E96
__end_of_WWDT_Initialize                                  text89       009186
__end_of_WWDT_SoftEnable                                  text85       00927E
__end_of_WWDT_TimerClear                                  text84       008F56
__end_of_WaitPreFlash                                     text43       007F62
__end_of___awdiv                                          text14       0079AE
__end_of___lbdiv                                          text54       0089FA
__end_of___lbmod                                          text13       008D62
__end_of___lldiv                                          text19       007AB4
__end_of___lmul                                           text39       0084AA
__end_of___lwdiv                                          text122      0085A6
__end_of___wmul                                           text124      008E26
__end_of__initialization                                  cinit        00716E
__end_of_actionZone_Closed                                text42       0072D6
__end_of_actionZone_Closing                               text36       00426A
__end_of_actionZone_Opened                                text33       004FAC
__end_of_actionZone_Opening                               text27       004734
__end_of_calculateMean                                    text26       0081DA
__end_of_checkNVM_VarSystem                               text75       0054E6
__end_of_clearLearningValue                               text25       007C2E
__end_of_cmdMemoryIsEmpty                                 text10       0075E6
__end_of_controlLearnDigit                                text17       008AFA
__end_of_controlMotorForce                                text193      004BA0
__end_of_controlSaveRemote                                text12       00722C
__end_of_controlSelectRemote                              text6        00367A
__end_of_controlTimeslots                                 text187      0059B6
__end_of_controlVelocity                                  text29       004DBE
__end_of_decrementTimeslot                                text188      008D8C
__end_of_eusartparser                                     text79       006F36
__end_of_generateErrorLearnig                             text22       008112
__end_of_getCurrentComparator                             text123      00581C
__end_of_getHopCode                                       text67       006248
__end_of_getKeyPressed                                    text78       009058
__end_of_getSerialCmd                                     text9        008694
__end_of_getStateOpenPosition                             text30       0066D2
__end_of_getTimeDecelaration                              text38       006CC4
__end_of_getTypeRemote                                    text8        00924A
__end_of_i2c1_fsmStateTable                               smallconst   000F21
__end_of_i2c_readDataBlock                                text74       007E0E
__end_of_i2c_writeNBytes                                  text128      007E82
__end_of_keeloqDecryptPacket                              text60       00517E
__end_of_keeloq_classic_decrypt_packet                    text62       0083FE
__end_of_loadNVM_VarSystem                                text73       006376
__end_of_load_New_Menu                                    text4        003FDE
__end_of_main                                             text0        005E58
__end_of_memcpy                                           text129      008842
__end_of_rd1RegCompleteHandler                            text170      008CE0
__end_of_rd1RegCompleteHandler@i2c1_master_example$F500   text166      008C5C
__end_of_rd2RegCompleteHandler                            text169      008CB4
__end_of_rd2RegCompleteHandler@i2c1_master_example$F511   text165      008C30
__end_of_rdBlkRegCompleteHandler                          text167      008944
__end_of_rdBlkRegCompleteHandler@i2c1_master_example$F535 text163      008904
__end_of_readInputs                                       text72       0068E8
__end_of_readRFButtons                                    text59       005B4C
__end_of_read_eusartparser                                text81       0029A4
__end_of_read_package                                     text57       0085F6
__end_of_readbutton                                       text56       0080AA
__end_of_refreshADCZeroOffset                             text121      0069E6
__end_of_refreshCurrent                                   text117      0087BA
__end_of_refreshSegment                                   text185      00792A
__end_of_rxi                                              text199      0044E0
__end_of_saveEnergyADCHist                                text120      008DB4
__end_of_saveNewSerial                                    text7        007EF2
__end_of_setFlashLigth_ON                                 text114      0089C0
__end_of_setPositionInvertionInClosing                    text37       00649E
__end_of_setPositionInvertionInOpening                    text28       006DA0
__end_of_setRGB_ON                                        text112      007676
__end_of_setValueToEdit                                   text3        002EA8
__end_of_sm_execute_ControlGate                           text20       0039C4
__end_of_sm_execute_ControlLearning                       text21       001F94
__end_of_sm_execute_main                                  text1        00249C
__end_of_sm_execute_menuConfiguration                     text2        001886
__end_of_sm_get_current_state                             text48       00911A
__end_of_sm_init                                          text23       008454
__end_of_sm_restart                                       text24       0087FE
__end_of_sm_send_event                                    text47       008294
__end_of_sumEnergyADC                                     text119      00778E
__end_of_sumHIST                                          text118      006BDC
__end_of_validateRemoteSerialNumber                       text71       005682
__end_of_verifyProgramingMode                             text61       008A66
__end_of_wr1RegCompleteHandler                            text171      008D0C
__end_of_wr1RegCompleteHandler@i2c1_master_example$F517   text164      008C04
__end_of_wr2RegCompleteHandler                            text168      008C88
__end_of_wr2RegCompleteHandler@i2c1_master_example$F523   text172      008D38
__end_of_write_eusartparser                               text80       0032CC
__end_of_write_package                                    text82       008B80
__end_ofi2_GetMotorPower                                  text195      0070C2
__end_ofi2_VerifyElectricalBrake                          text194      007D98
__initialization                                          cinit        0070C2
__mediumconst                                             mediumconst  000000
__pbssBANK0                                               bssBANK0     000060
__pbssBANK1                                               bssBANK1     000100
__pbssBANK2                                               bssBANK2     000200
__pbssBANK3                                               bssBANK3     000300
__pbssCOMRAM                                              bssCOMRAM    00003B
__pcinit                                                  cinit        0070C2
__pcstackBANK0                                            cstackBANK0  0000D8
__pcstackCOMRAM                                           cstackCOMRAM 000001
__pdataBANK0                                              dataBANK0    0000F8
__pdataBANK1                                              dataBANK1    0001F9
__pdataBANK2                                              dataBANK2    0002EF
__pdataBANK3                                              dataBANK3    0003D2
__pidataBANK0                                             idataBANK0   0092A6
__pidataBANK1                                             idataBANK1   009274
__pidataBANK2                                             idataBANK2   0092A8
__pidataBANK3                                             idataBANK3   008E4C
__pintcode                                                intcode      000008
__pnvBANK1                                                nvBANK1      0001FE
__pnvBANK2                                                nvBANK2      0002DD
__psmallconst                                             smallconst   000F00
__ptext0                                                  text0        005CD6
__ptext1                                                  text1        001F94
__ptext10                                                 text10       007554
__ptext100                                                text100      0090F4
__ptext101                                                text101      007B34
__ptext102                                                text102      0091A4
__ptext103                                                text103      0091AE
__ptext104                                                text104      0091B8
__ptext105                                                text105      0091C2
__ptext106                                                text106      0091CC
__ptext107                                                text107      0085F6
__ptext108                                                text108      00911A
__ptext109                                                text109      004734
__ptext11                                                 text11       007AB4
__ptext110                                                text110      007CA8
__ptext111                                                text111      0039C4
__ptext112                                                text112      0075E6
__ptext113                                                text113      00913A
__ptext114                                                text114      008984
__ptext115                                                text115      00649E
__ptext116                                                text116      005E58
__ptext117                                                text117      008774
__ptext118                                                text118      006AE2
__ptext119                                                text119      007702
__ptext12                                                 text12       007178
__ptext120                                                text120      008D8C
__ptext121                                                text121      0068E8
__ptext122                                                text122      008554
__ptext123                                                text123      005682
__ptext124                                                text124      008E00
__ptext125                                                text125      006F36
__ptext126                                                text126      00834C
__ptext127                                                text127      0089FA
__ptext128                                                text128      007E0E
__ptext129                                                text129      0087FE
__ptext13                                                 text13       008D38
__ptext130                                                text130      009058
__ptext131                                                text131      0079AE
__ptext132                                                text132      009070
__ptext133                                                text133      0091F4
__ptext134                                                text134      008BAC
__ptext135                                                text135      00912A
__ptext136                                                text136      0091FC
__ptext137                                                text137      008500
__ptext138                                                text138      008694
__ptext139                                                text139      0091D6
__ptext14                                                 text14       00792A
__ptext140                                                text140      009204
__ptext141                                                text141      00920C
__ptext142                                                text142      009214
__ptext143                                                text143      00921C
__ptext144                                                text144      009224
__ptext145                                                text145      00922C
__ptext146                                                text146      009234
__ptext147                                                text147      0091E0
__ptext148                                                text148      007C2E
__ptext149                                                text149      00778E
__ptext15                                                 text15       008FA8
__ptext150                                                text150      009148
__ptext151                                                text151      009156
__ptext152                                                text152      0091EA
__ptext153                                                text153      0081DA
__ptext154                                                text154      009250
__ptext155                                                text155      009164
__ptext156                                                text156      00923C
__ptext157                                                text157      009256
__ptext158                                                text158      009282
__ptext159                                                text159      00925C
__ptext16                                                 text16       00924A
__ptext160                                                text160      009286
__ptext161                                                text161      00928A
__ptext162                                                text162      00928E
__ptext163                                                text163      0088C4
__ptext164                                                text164      008BD8
__ptext165                                                text165      008C04
__ptext166                                                text166      008C30
__ptext167                                                text167      008904
__ptext168                                                text168      008C5C
__ptext169                                                text169      008C88
__ptext17                                                 text17       008ACA
__ptext170                                                text170      008CB4
__ptext171                                                text171      008CE0
__ptext172                                                text172      008D0C
__ptext173                                                text173      009088
__ptext174                                                text174      007FD0
__ptext175                                                text175      008FF6
__ptext176                                                text176      009292
__ptext177                                                text177      009296
__ptext178                                                text178      00929A
__ptext179                                                text179      008EDA
__ptext18                                                 text18       0069E6
__ptext180                                                text180      00929E
__ptext181                                                text181      0092A2
__ptext182                                                text182      009262
__ptext184                                                text184      005FCC
__ptext185                                                text185      0078A4
__ptext186                                                text186      009170
__ptext187                                                text187      00581C
__ptext188                                                text188      008D62
__ptext189                                                text189      0092AA
__ptext19                                                 text19       007A32
__ptext190                                                text190      0084AA
__ptext191                                                text191      0090B6
__ptext192                                                text192      008944
__ptext193                                                text193      00497E
__ptext194                                                text194      007D20
__ptext195                                                text195      006FFC
__ptext196                                                text196      008F72
__ptext197                                                text197      0092AC
__ptext198                                                text198      008E26
__ptext199                                                text199      00426A
__ptext2                                                  text2        000F22
__ptext20                                                 text20       00367A
__ptext200                                                text200      0092AE
__ptext201                                                text201      008A98
__ptext202                                                text202      007422
__ptext203                                                text203      009268
__ptext204                                                text204      0092B0
__ptext205                                                text205      00926E
__ptext206                                                text206      008EFC
__ptext207                                                text207      000000
__ptext21                                                 text21       001886
__ptext22                                                 text22       0080AA
__ptext23                                                 text23       0083FE
__ptext24                                                 text24       0087BA
__ptext25                                                 text25       007BB2
__ptext26                                                 text26       008178
__ptext27                                                 text27       0044E0
__ptext28                                                 text28       006CC4
__ptext29                                                 text29       004BA0
__ptext3                                                  text3        0029A4
__ptext30                                                 text30       0065C2
__ptext31                                                 text31       0086E2
__ptext32                                                 text32       009010
__ptext33                                                 text33       004DBE
__ptext34                                                 text34       008E72
__ptext35                                                 text35       008DB4
__ptext36                                                 text36       003FDE
__ptext37                                                 text37       006376
__ptext38                                                 text38       006BDC
__ptext39                                                 text39       008454
__ptext4                                                  text4        003CE8
__ptext40                                                 text40       008F1E
__ptext41                                                 text41       0072D6
__ptext42                                                 text42       00722C
__ptext43                                                 text43       007EF2
__ptext44                                                 text44       008DDA
__ptext45                                                 text45       008FC2
__ptext46                                                 text46       007F62
__ptext47                                                 text47       008238
__ptext48                                                 text48       009108
__ptext49                                                 text49       008294
__ptext5                                                  text5        008F8E
__ptext50                                                 text50       0090CC
__ptext51                                                 text51       00737C
__ptext52                                                 text52       008B28
__ptext53                                                 text53       00517E
__ptext54                                                 text54       0089C0
__ptext55                                                 text55       0090E0
__ptext56                                                 text56       00803E
__ptext57                                                 text57       0085A6
__ptext58                                                 text58       00872C
__ptext59                                                 text59       0059B6
__ptext6                                                  text6        0032CC
__ptext60                                                 text60       004FAC
__ptext61                                                 text61       008A32
__ptext62                                                 text62       0083A6
__ptext63                                                 text63       0066D2
__ptext64                                                 text64       008E96
__ptext65                                                 text65       006DA0
__ptext66                                                 text66       00781A
__ptext67                                                 text67       00611A
__ptext68                                                 text68       009028
__ptext69                                                 text69       008A66
__ptext7                                                  text7        007E82
__ptext70                                                 text70       007676
__ptext71                                                 text71       0054E6
__ptext72                                                 text72       0067E0
__ptext73                                                 text73       006248
__ptext74                                                 text74       007D98
__ptext75                                                 text75       005346
__ptext76                                                 text76       005B4C
__ptext77                                                 text77       0082F0
__ptext78                                                 text78       009040
__ptext79                                                 text79       006E6C
__ptext8                                                  text8        009244
__ptext80                                                 text80       002EA8
__ptext81                                                 text81       00249C
__ptext82                                                 text82       008B54
__ptext83                                                 text83       008884
__ptext84                                                 text84       008F3A
__ptext85                                                 text85       00927A
__ptext86                                                 text86       008112
__ptext87                                                 text87       008FDC
__ptext88                                                 text88       008AFA
__ptext89                                                 text89       00917C
__ptext9                                                  text9        008646
__ptext90                                                 text90       008B80
__ptext91                                                 text91       009186
__ptext92                                                 text92       008842
__ptext93                                                 text93       009190
__ptext94                                                 text94       008EB8
__ptext95                                                 text95       00919A
__ptext96                                                 text96       008F56
__ptext97                                                 text97       0074BC
__ptext98                                                 text98       0090A0
__ptext99                                                 text99       00927E
__ramtop                                                  ramtop       000F00
__smallconst                                              smallconst   000F00
_actionZone_Closed                                        text42       00722C
_actionZone_Closing                                       text36       003FDE
_actionZone_Opened                                        text33       004DBE
_actionZone_Opening                                       text27       0044E0
_auxCounter                                               dataBANK0    0000F8
_aux_i                                                    bssBANK1     00018C
_aux_in_auto_close                                        bssBANK1     00018B
_brakeElectric_st                                         bssBANK0     000078
_button_struct                                            bssCOMRAM    00004C
_calculateMean                                            text26       008178
_checkNVM_VarSystem                                       text75       005346
_classic_data                                             bssBANK2     000292
_clearLearningValue                                       text25       007BB2
_cmdMemoryIsEmpty                                         text10       007554
_controlGate_stateMachine                                 bssBANK1     0001E2
_controlLearnDigit                                        text17       008ACA
_controlLearning_stateMachine                             bssBANK2     0002B2
_controlMotorForce                                        text193      00497E
_controlSaveRemote                                        text12       007178
_controlSelectRemote                                      text6        0032CC
_controlTimeslots                                         text187      00581C
_controlVelocity                                          text29       004BA0
_control_limit_switch                                     bssBANK0     000081
_decrementTimeslot                                        text188      008D62
_difTime                                                  bssBANK1     00018F
_dispStruct                                               bssBANK0     000072
_edit_Param                                               bssCOMRAM    000046
_erroranterior                                            bssBANK1     000189
_eusart1RxBuffer                                          bssBANK2     00027C
_eusart1RxCount                                           bssBANK0     000093
_eusart1RxHead                                            bssBANK0     000095
_eusart1RxLastError                                       bssBANK1     000199
_eusart1RxStatusBuffer                                    bssBANK2     000274
_eusart1RxTail                                            bssBANK0     000094
_eusart1TxBuffer                                          bssBANK2     000284
_eusart1TxBufferRemaining                                 nvBANK1      0001FE
_eusart1TxHead                                            bssBANK0     000097
_eusart1TxTail                                            bssBANK0     000096
_eusartparser                                             text79       006E6C
_fimdecurso                                               bssBANK1     000175
_firstselectflag                                          dataBANK1    0001FD
_fullmotorPower                                           bssBANK0     000082
_generateErrorLearnig                                     text22       0080AA
_getCurrentComparator                                     text123      005682
_getHopCode                                               text67       00611A
_getKeyPressed                                            text78       009040
_getSerialCmd                                             text9        008646
_getStateOpenPosition                                     text30       0065C2
_getTimeDecelaration                                      text38       006BDC
_getTypeRemote                                            text8        009244
_i2c1_fsmStateTable                                       smallconst   000F01
_i2c_readDataBlock                                        text74       007D98
_i2c_writeNBytes                                          text128      007E0E
_idxAdcAquisition                                         bssBANK0     000091
_idxAdcZeroAquisition                                     bssBANK0     00008F
_idxSaveEnergyADCHist                                     bssBANK0     000090
_keeloqDecryptPacket                                      text60       004FAC
_keeloq_classic_decrypt_packet                            text62       0083A6
_lastKey                                                  bssBANK1     000194
_learn_st                                                 bssBANK0     000060
_listSyncValues                                           bssBANK3     000300
_loadNVM_VarSystem                                        text73       006248
_load_New_Menu                                            text4        003CE8
_main                                                     text0        005CD6
_main_stateMachine                                        bssBANK1     0001ED
_memcpy                                                   text129      0087FE
_memoryTEMP                                               bssBANK2     0002A2
_menuConfiguration_stateMachine                           bssBANK2     0002BD
_menu_st                                                  bssBANK1     000151
_numberOfErrorCurrent                                     bssBANK0     00008E
_pointSync                                                bssBANK0     00007A
_powerControl_st                                          bssBANK1     00017B
_programmer_enable                                        bssBANK0     000085
_rd1RegCompleteHandler                                    text170      008CB4
_rd1RegCompleteHandler@i2c1_master_example$F500           text166      008C30
_rd2RegCompleteHandler                                    text169      008C88
_rd2RegCompleteHandler@i2c1_master_example$F511           text165      008C04
_rdBlkRegCompleteHandler                                  text167      008904
_rdBlkRegCompleteHandler@i2c1_master_example$F535         text163      0088C4
_readInputs                                               text72       0067E0
_readRFButtons                                            text59       0059B6
_read_eusartparser                                        text81       00249C
_read_package                                             text57       0085A6
_readbutton                                               text56       00803E
_refreshADCZeroOffset                                     text121      0068E8
_refreshCurrent                                           text117      008774
_refreshSegment                                           text185      0078A4
_rfCMD                                                    bssCOMRAM    00003B
_rxi                                                      text199      00426A
_saveEnergyADCHist                                        text120      008D8C
_saveNewSerial                                            text7        007E82
_security                                                 bssBANK1     00016A
_setFlashLigth_ON                                         text114      008984
_setPositionInvertionInClosing                            text37       006376
_setPositionInvertionInOpening                            text28       006CC4
_setRGB_ON                                                text112      0075E6
_setValueToEdit                                           text3        0029A4
_sm_execute_ControlGate                                   text20       00367A
_sm_execute_ControlLearning                               text21       001886
_sm_execute_main                                          text1        001F94
_sm_execute_menuConfiguration                             text2        000F22
_sm_get_current_state                                     text48       009108
_sm_init                                                  text23       0083FE
_sm_restart                                               text24       0087BA
_sm_send_event                                            text47       008238
_stateMotor                                               bssBANK0     000083
_sumEnergyADC                                             text119      007702
_sumHIST                                                  text118      006AE2
_temp                                                     bssBANK0     000080
_tempCounter                                              dataBANK1    0001F9
_temppower                                                bssBANK1     00018E
_timer0ReloadVal16bit                                     bssBANK2     000290
_timer1ReloadVal                                          nvBANK2      0002E1
_ts_system                                                bssBANK1     00019A
_validateRemoteSerialNumber                               text71       0054E6
_var_sys                                                  bssBANK1     000100
_var_sys_NVM                                              bssBANK0     000098
_verifyProgramingMode                                     text61       008A32
_waitZeroPeak                                             bssBANK1     000191
_wr1RegCompleteHandler                                    text171      008CE0
_wr1RegCompleteHandler@i2c1_master_example$F517           text164      008BD8
_wr2RegCompleteHandler                                    text168      008C5C
_wr2RegCompleteHandler@i2c1_master_example$F523           text172      008D0C
_write_eusartparser                                       text80       002EA8
_write_package                                            text82       008B54
_zeroCrossing                                             bssBANK1     000192
_zeroCrossingLength                                       bssBANK1     000193
_zeroCrossingWaitTime                                     dataBANK2    0002EF
_zeroCrossingWaitTimeIdx                                  bssBANK0     000084
actionZone_Closed@securityOpening                         cstackCOMRAM 000020
actionZone_Closed@typeOpenOrder                           cstackCOMRAM 000021
actionZone_Closing@securityClosing                        cstackCOMRAM 000032
actionZone_Closing@typeOpenOrder                          cstackCOMRAM 000033
actionZone_Opened@securityClosing                         cstackCOMRAM 000020
actionZone_Opened@typeOpenOrder                           cstackCOMRAM 000021
actionZone_Opening@securityClosing                        cstackBANK0  0000E4
actionZone_Opening@securityOpening                        cstackBANK0  0000E5
actionZone_Opening@typeOpenOrder                          cstackBANK0  0000E6
btemp                                                     temp         000050
calculateMean@meanValue                                   cstackCOMRAM 000010
calculateMean@newValue                                    cstackCOMRAM 000014
checkNVM_VarSystem@saveParam                              cstackCOMRAM 00003A
cmdMemoryIsEmpty@cmdType                                  cstackCOMRAM 000031
cmdMemoryIsEmpty@position                                 cstackCOMRAM 00002E
cmdMemoryIsEmpty@tempSerial                               cstackCOMRAM 000032
controlSelectRemote@pos                                   cstackBANK0  0000E2
controlSelectRemote@temp                                  cstackBANK0  0000E8
controlSelectRemote@tempSerial                            cstackBANK0  0000E4
controlSelectRemote@typeRemote                            cstackBANK0  0000E3
controlSelectRemote@validSerial                           cstackBANK0  0000E1
decrementTimeslot@ts                                      cstackCOMRAM 000001
end_of_initialization                                     cinit        00716E
eusartparser@package                                      cstackCOMRAM 00003A
getCurrentComparator@tempOffset                           cstackCOMRAM 000020
getCurrentComparator@x                                    cstackCOMRAM 000022
getHopCode@data                                           cstackCOMRAM 000016
getHopCode@i                                              cstackCOMRAM 000023
getHopCode@tempHop                                        cstackCOMRAM 000020
getHopCode@tempPos                                        cstackCOMRAM 000022
getKeyPressed@temp                                        cstackCOMRAM 000010
getSerialCmd@serial                                       cstackCOMRAM 00001B
getSerialCmd@temp                                         cstackCOMRAM 00001C
getStateOpenPosition@state                                cstackBANK0  0000D8
getStateOpenPosition@stateMotor                           cstackBANK0  0000D9
getTimeDecelaration@state                                 cstackCOMRAM 000031
i2GetMotorPower@defineatraso                              cstackCOMRAM 000004
i2VerifyElectricalBrake@actualState                       cstackCOMRAM 000002
i2VerifyElectricalBrake@tempState                         cstackCOMRAM 000001
i2_GetMotorPower                                          text195      006FFC
i2_VerifyElectricalBrake                                  text194      007D20
i2c_readDataBlock@address                                 cstackCOMRAM 000029
i2c_readDataBlock@d                                       cstackCOMRAM 00002A
i2c_readDataBlock@data                                    cstackCOMRAM 000024
i2c_readDataBlock@len                                     cstackCOMRAM 000026
i2c_readDataBlock@reg                                     cstackCOMRAM 000022
i2c_writeNBytes@address                                   cstackCOMRAM 000039
i2c_writeNBytes@dat                                       cstackCOMRAM 000028
i2c_writeNBytes@data                                      cstackCOMRAM 000024
i2c_writeNBytes@len                                       cstackCOMRAM 000025
i2c_writeNBytes@reg                                       cstackCOMRAM 000022
int$flags                                                 temp         000050
intlevel0                                                 text         000000
intlevel1                                                 text         000000
intlevel2                                                 text         000000
intlevel3                                                 text         000000
isa$std                                                   (abs)        000001
isa$xinst                                                 (abs)        000000
keeloqDecryptPacket@classic_data                          cstackBANK0  0000E2
keeloqDecryptPacket@commandType                           cstackBANK0  0000E9
keeloqDecryptPacket@data                                  cstackBANK0  0000E0
keeloqDecryptPacket@hop_error                             cstackBANK0  0000E8
keeloq_classic_decrypt_packet@data                        cstackCOMRAM 000038
load_New_Menu@Menu                                        cstackCOMRAM 000022
load_New_Menu@i                                           cstackCOMRAM 000023
main@package                                              cstackBANK0  0000F1
memcpy@d                                                  cstackCOMRAM 000017
memcpy@d1                                                 cstackCOMRAM 000010
memcpy@n                                                  cstackCOMRAM 000014
memcpy@s                                                  cstackCOMRAM 000019
memcpy@s1                                                 cstackCOMRAM 000012
memcpy@tmp                                                cstackCOMRAM 000016
rd1RegCompleteHandler@i2c1_master_example$F500@ptr        cstackCOMRAM 000019
rd1RegCompleteHandler@p                                   cstackCOMRAM 000019
rd2RegCompleteHandler@i2c1_master_example$F511@ptr        cstackCOMRAM 000019
rd2RegCompleteHandler@p                                   cstackCOMRAM 000019
rdBlkRegCompleteHandler@i2c1_master_example$F535@ptr      cstackCOMRAM 000019
rdBlkRegCompleteHandler@p                                 cstackCOMRAM 000019
readRFButtons@key1                                        bssBANK0     000088
readRFButtons@keyType                                     bssBANK0     000087
readRFButtons@rollingCode                                 bssBANK1     000185
readRFButtons@serial                                      bssBANK1     000181
readRFButtons@typeRemote                                  bssBANK1     000197
read_eusartparser@package                                 cstackCOMRAM 000018
read_package@package                                      cstackCOMRAM 000018
readbutton@key1                                           bssBANK0     000086
readbutton@key2                                           bssBANK1     000196
refreshADCZeroOffset@i                                    cstackCOMRAM 000017
refreshADCZeroOffset@media                                cstackCOMRAM 000018
saveEnergyADCHist@valueToSave                             cstackCOMRAM 000010
saveNewSerial@cmdType                                     cstackCOMRAM 00003A
saveNewSerial@position                                    cstackBANK0  0000DC
saveNewSerial@tempSerial                                  cstackBANK0  0000D8
setFlashLigth_ON@Freq                                     cstackCOMRAM 000010
setRGB_ON@Freq                                            cstackCOMRAM 000011
setRGB_ON@RGBLigth                                        cstackCOMRAM 000015
setValueToEdit@ParameterSelected                          cstackCOMRAM 00003A
setValueToEdit@haveValueToEdit                            cstackBANK0  0000E0
setValueToEdit@menuType                                   cstackBANK0  0000DE
setValueToEdit@posindex                                   cstackBANK0  0000DF
setValueToEdit@value                                      bssBANK1     0001F8
sm_execute_ControlGate@psm                                cstackBANK0  0000E7
sm_execute_ControlGate@typeOpenOrder                      cstackBANK0  0000EB
sm_execute_ControlLearning@psm                            cstackBANK0  0000DC
sm_execute_ControlLearning@typeOpenOrder                  cstackCOMRAM 00003A
sm_execute_main@psm                                       cstackBANK0  0000ED
sm_execute_menuConfiguration@psm                          cstackBANK0  0000E9
sm_get_current_state@psm                                  cstackCOMRAM 000010
sm_init@hist_mode                                         cstackCOMRAM 000016
sm_init@initial_state                                     cstackCOMRAM 000014
sm_init@psm                                               cstackCOMRAM 000012
sm_restart@psm                                            cstackCOMRAM 000010
sm_send_event@event                                       cstackCOMRAM 000014
sm_send_event@psm                                         cstackCOMRAM 000012
stackhi                                                   (abs)        000000
stacklo                                                   (abs)        000000
start                                                     init         00009C
start_initialization                                      cinit        0070C2
sumEnergyADC@auxValue                                     cstackCOMRAM 000016
sumEnergyADC@i                                            cstackCOMRAM 000018
sumEnergyADC@sumE                                         cstackCOMRAM 000014
sumHIST@i                                                 cstackCOMRAM 000020
sumHIST@max                                               cstackCOMRAM 000018
sumHIST@min                                               cstackCOMRAM 00001A
sumHIST@sumH                                              cstackCOMRAM 00001C
ttemp5                                                    temp         000051
ttemp6                                                    temp         000054
ttemp7                                                    temp         000058
validateRemoteSerialNumber@VerifyOnlySerial               cstackCOMRAM 000032
validateRemoteSerialNumber@i                              cstackCOMRAM 00003A
validateRemoteSerialNumber@j                              cstackCOMRAM 000039
validateRemoteSerialNumber@mask                           cstackCOMRAM 000035
validateRemoteSerialNumber@position                       cstackCOMRAM 000033
validateRemoteSerialNumber@serial                         cstackCOMRAM 00002E
verifyProgramingMode@classic_data                         cstackCOMRAM 000010
wr1RegCompleteHandler@i2c1_master_example$F517@ptr        cstackCOMRAM 000019
wr1RegCompleteHandler@p                                   cstackCOMRAM 000019
wr2RegCompleteHandler@i2c1_master_example$F523@ptr        cstackCOMRAM 000019
wr2RegCompleteHandler@p                                   cstackCOMRAM 000019
write_eusartparser@debug                                  cstackCOMRAM 00001F
write_eusartparser@debug2                                 cstackCOMRAM 000021
write_eusartparser@package                                cstackCOMRAM 000010
write_package@package                                     cstackCOMRAM 000011
wtemp8                                                    temp         000051


MODULE INFORMATION

Module		Function		Class		Link	Load	Size
controlMemory_MC50.c
		_SaveNVM_VarSystem		CODE           	89FA	0000	56
		_validateRemoteSerialNumber		CODE           	54E6	0000	412
		_checkNVM_VarSystem		CODE           	5346	0000	416
		_saveNewSerial 		CODE           	7E82	0000	112
		_ControlCounterMoves		CODE           	834C	0000	90
		_ResetDefaultMemory		CODE           	5B4C	0000	394
		_RemoveSerial  		CODE           	7AB4	0000	128
		_loadNVM_VarSystem		CODE           	6248	0000	302
		_cmdMemoryIsEmpty		CODE           	7554	0000	146

controlMemory_MC50.c estimated size: 2056

sm_ControlGate_MC50.c
		_setPositionInvertionInOpening		CODE           	6CC4	0000	220
		_WaitPreFlash  		CODE           	7EF2	0000	112
		_actionZone_Opened		CODE           	4DBE	0000	494
		_actionZone_Closed		CODE           	722C	0000	170
		_InitFullAutoTime		CODE           	8FC2	0000	26
		_InitSoftStop  		CODE           	86E2	0000	74
		_InitWalkAutoTime		CODE           	90CC	0000	20
		_StopOrder     		CODE           	8F1E	0000	28
		_InitSoftStart 		CODE           	8294	0000	92
		_actionZone_Opening		CODE           	44E0	0000	596
		_actionZone_Closing		CODE           	3FDE	0000	652
		_VerifyFollowMe		CODE           	8E72	0000	36
		_sm_execute_ControlGate		CODE           	367A	0000	842
		_CloseOrder    		CODE           	8DB4	0000	38
		_setPositionInvertionInClosing		CODE           	6376	0000	296
		_OpenFullOrder 		CODE           	8DDA	0000	38
		_OpenWalkOrder 		CODE           	7F62	0000	110

sm_ControlGate_MC50.c estimated size: 3844

mcc_generated_files/examples/i2c1_master_example.c
		_rdBlkRegCompleteHandler@i2c1_master_example$F535		CODE           	88C4	0000	64
		_rd1RegCompleteHandler@i2c1_master_example$F500		CODE           	8C30	0000	44
		_rd2RegCompleteHandler@i2c1_master_example$F511		CODE           	8C04	0000	44
		_wr1RegCompleteHandler@i2c1_master_example$F517		CODE           	8BD8	0000	44
		_wr2RegCompleteHandler@i2c1_master_example$F523		CODE           	8D0C	0000	44
		_I2C1_Read1ByteRegister		CODE           	82F0	0000	92

mcc_generated_files/examples/i2c1_master_example.c estimated size: 332

controlCurrent_MC50.c
		_refreshADCZeroOffset		CODE           	68E8	0000	254
		_getCurrentComparator		CODE           	5682	0000	410
		_ControlCurrent		CODE           	5E58	0000	372
		_refreshCurrent		CODE           	8774	0000	70
		_ReadADC       		CODE           	84AA	0000	86
		_sumEnergyADC  		CODE           	7702	0000	140
		_sumHIST       		CODE           	6AE2	0000	250
		_saveEnergyADCHist		CODE           	8D8C	0000	40

controlCurrent_MC50.c estimated size: 1622

sm_Main_MC50.c
		_sm_execute_main		CODE           	1F94	0000	1288

sm_Main_MC50.c estimated size: 1288

outputs_MC50.c
		_getTimeDecelaration		CODE           	6BDC	0000	232
		_Segments_Set  		CODE           	9170	0000	12
		_ControlMotor  		CODE           	4734	0000	586
		_SetSegmentValueMain		CODE           	8FA8	0000	26
		_GetMotorPower 		CODE           	6F36	0000	198
		_ControlLights 		CODE           	39C4	0000	804
		_RGB_Set       		CODE           	913A	0000	14
		_refreshSegment		CODE           	78A4	0000	134
		_setFlashLigth_ON		CODE           	8984	0000	60
		_getStateOpenPosition		CODE           	65C2	0000	272
		_controlMotorForce		CODE           	497E	0000	546
		_SetSegmentValueIntermitent		CODE           	8B28	0000	44
		_SetSegmentValueLearn		CODE           	69E6	0000	252
		_SetSegmentValue		CODE           	8FDC	0000	26
		_VerifyElectricalBrake		CODE           	7CA8	0000	120
		_SetSegmentValueIntermitentMain		CODE           	90E0	0000	20
		_setRGB_ON     		CODE           	75E6	0000	144
		_controlVelocity		CODE           	4BA0	0000	542
		_ControlDecelarationFactor		CODE           	9010	0000	24

outputs_MC50.c estimated size: 4056

mcc_generated_files/i2c1_master.c
		_I2C1_DO_SEND_RESTART		CODE           	9224	0000	8
		_I2C1_DO_TX_EMPTY		CODE           	81DA	0000	94
		_I2C1_DO_SEND_RESTART_READ		CODE           	9234	0000	8
		_I2C1_CallbackReturnStop		CODE           	928E	0000	4
		_I2C1_DO_RX    		CODE           	7C2E	0000	122
		_I2C1_DO_TX    		CODE           	778E	0000	140
		_I2C1_SetAddressNackCallback		CODE           	9058	0000	24
		_I2C1_DO_IDLE  		CODE           	91EA	0000	10
		_I2C1_MasterOpen		CODE           	9070	0000	24
		_I2C1_DO_RCEN  		CODE           	91E0	0000	10
		_I2C1_MasterSendTxData		CODE           	923C	0000	8
		_I2C1_MasterStop		CODE           	9292	0000	4
		_I2C1_CallbackReturnReset		CODE           	928A	0000	4
		_I2C1_DO_RESET 		CODE           	91D6	0000	10
		_I2C1_MasterStartRx		CODE           	9286	0000	4
		_I2C1_Poller   		CODE           	912A	0000	16
		_I2C1_DO_RX_ACK		CODE           	9214	0000	8
		_I2C1_MasterWaitForEvent		CODE           	91FC	0000	8
		_I2C1_MasterSendNack		CODE           	925C	0000	6
		_I2C1_DO_RX_NACK_RESTART		CODE           	9204	0000	8
		_I2C1_MasterDisableIrq		CODE           	929E	0000	4
		_I2C1_MasterOperation		CODE           	8BAC	0000	44
		_I2C1_SetCallback		CODE           	7FD0	0000	110
		_I2C1_MasterEnableRestart		CODE           	9296	0000	4
		_I2C1_Open     		CODE           	79AE	0000	132
		_I2C1_DO_ADDRESS_NACK		CODE           	8694	0000	78
		_I2C1_SetBuffer		CODE           	8FF6	0000	26
		_I2C1_DO_SEND_RESTART_WRITE		CODE           	922C	0000	8
		_I2C1_MasterClose		CODE           	92A2	0000	4
		_I2C1_MasterWrite		CODE           	91F4	0000	8
		_I2C1_Initialize		CODE           	90F4	0000	20
		_I2C1_Close    		CODE           	8EDA	0000	34
		_I2C1_MasterIsNack		CODE           	9164	0000	12
		_I2C1_MasterStart		CODE           	929A	0000	4
		_I2C1_DO_SEND_ADR_WRITE		CODE           	9148	0000	14
		_I2C1_MasterClearIrq		CODE           	9262	0000	6
		_I2C1_SetDataCompleteCallback		CODE           	9088	0000	24
		_I2C1_DO_SEND_STOP		CODE           	921C	0000	8
		_I2C1_MasterSendAck		CODE           	9256	0000	6
		_I2C1_MasterFsm		CODE           	8500	0000	84
		_I2C1_MasterGetRxData		CODE           	9282	0000	4
		_I2C1_MasterSetIrq		CODE           	9250	0000	6
		_I2C1_DO_SEND_ADR_READ		CODE           	9156	0000	14
		_I2C1_DO_RX_NACK_STOP		CODE           	920C	0000	8

mcc_generated_files/i2c1_master.c estimated size: 1182

eusartparser.c
		_read_eusartparser		CODE           	249C	0000	1288
		_write_eusartparser		CODE           	2EA8	0000	1060
		_eusartparser  		CODE           	6E6C	0000	202

eusartparser.c estimated size: 2550

mcc_generated_files/tmr2.c
		_TMR2_ISR      		CODE           	5FCC	0000	334
		_TMR2_Initialize		CODE           	8B80	0000	44
		_TMR2_SetInterruptHandler		CODE           	9186	0000	10
		_TMR2_DefaultInterruptHandler		CODE           	92AA	0000	2

mcc_generated_files/tmr2.c estimated size: 390

mcc_generated_files/interrupt_manager.c
		_INTERRUPT_Initialize		CODE           	927E	0000	4
		_INTERRUPT_InterruptManager		CODE           	0008	0000	148

mcc_generated_files/interrupt_manager.c estimated size: 152

C:\Program Files\Microchip\xc8\v2.36\pic\sources\c99\common\Umul32.c
		___lmul        		CODE           	8454	0000	86

C:\Program Files\Microchip\xc8\v2.36\pic\sources\c99\common\Umul32.c estimated size: 86

inputs_MC50.c
		_ControlInputs 		CODE           	649E	0000	292
		_readbutton    		CODE           	803E	0000	108
		_ClearFlag_rfCMD		CODE           	924A	0000	6
		_getSerialCmd  		CODE           	8646	0000	78
		_rxi           		CODE           	426A	0000	630
		_GetSecurityStateInClosing		CODE           	72D6	0000	166
		_getTypeRemote 		CODE           	9244	0000	6
		_GetOpenOrder  		CODE           	517E	0000	456
		_readInputs    		CODE           	67E0	0000	264
		_InitReceiver  		CODE           	8F8E	0000	26
		_GetSecurityStateInOpening		CODE           	737C	0000	166
		_getKeyPressed 		CODE           	9040	0000	24
		_readRFButtons 		CODE           	59B6	0000	406

inputs_MC50.c estimated size: 2628

mcc_generated_files/tmr0.c
		_TMR0_SetInterruptHandler		CODE           	919A	0000	10
		_TMR0_DefaultInterruptHandler		CODE           	92AE	0000	2
		_TMR0_ISR      		CODE           	8E26	0000	38
		_TMR0_Initialize		CODE           	8EB8	0000	34

mcc_generated_files/tmr0.c estimated size: 84

sm_MenuConfiguration_MC50.c
		_load_New_Menu 		CODE           	3CE8	0000	758
		_sm_execute_menuConfiguration		CODE           	0F22	0000	2404
		_controlSelectRemote		CODE           	32CC	0000	942
		_setValueToEdit		CODE           	29A4	0000	1284
		_controlSaveRemote		CODE           	7178	0000	180
		_controlLearnDigit		CODE           	8ACA	0000	48

sm_MenuConfiguration_MC50.c estimated size: 5616

mcc_generated_files/pin_manager.c
		_PIN_MANAGER_Initialize		CODE           	74BC	0000	152

mcc_generated_files/pin_manager.c estimated size: 152

main_MC50.c
		_decrementTimeslot		CODE           	8D62	0000	42
		_ShowVersion   		CODE           	8112	0000	102
		_main          		CODE           	5CD6	0000	386
		_controlTimeslots		CODE           	581C	0000	410

main_MC50.c estimated size: 940

C:\Program Files\Microchip\xc8\v2.36\pic\sources\c99\common\__lldiv.c
		___lldiv       		CODE           	7A32	0000	130

C:\Program Files\Microchip\xc8\v2.36\pic\sources\c99\common\__lldiv.c estimated size: 130

mcc_generated_files/drivers/i2c_simple_master.c
		_i2c_readDataBlock		CODE           	7D98	0000	118
		_wr1RegCompleteHandler		CODE           	8CE0	0000	44
		_wr2RegCompleteHandler		CODE           	8C5C	0000	44
		_i2c_writeNBytes		CODE           	7E0E	0000	116
		_rdBlkRegCompleteHandler		CODE           	8904	0000	64
		_rd1RegCompleteHandler		CODE           	8CB4	0000	44
		_rd2RegCompleteHandler		CODE           	8C88	0000	44

mcc_generated_files/drivers/i2c_simple_master.c estimated size: 474

C:\Program Files\Microchip\xc8\v2.36\pic\sources\c99\common\lwdiv.c
		___lwdiv       		CODE           	8554	0000	82

C:\Program Files\Microchip\xc8\v2.36\pic\sources\c99\common\lwdiv.c estimated size: 82

C:\Program Files\Microchip\xc8\v2.36\pic\sources\c99\common\awdiv.c
		___awdiv       		CODE           	792A	0000	132

C:\Program Files\Microchip\xc8\v2.36\pic\sources\c99\common\awdiv.c estimated size: 132

C:\Program Files\Microchip\xc8\v2.36\pic\sources\c99\common\lbmod.c
		___lbmod       		CODE           	8D38	0000	42

C:\Program Files\Microchip\xc8\v2.36\pic\sources\c99\common\lbmod.c estimated size: 42

shared
		i2_VerifyElectricalBrake		CODE           	7D20	0000	120
		__initialization		CODE           	70C2	0000	172
		_i2c1_fsmStateTable		SMALLCONST     	0F01	0000	32
		i2_GetMotorPower		CODE           	6FFC	0000	198

shared estimated size: 522

mcc_generated_files/eusart1.c
		_EUSART1_SetRxInterruptHandler		CODE           	91AE	0000	10
		_EUSART1_SetTxInterruptHandler		CODE           	91A4	0000	10
		_EUSART1_is_rx_ready		CODE           	911A	0000	16
		_EUSART1_Initialize		CODE           	7B34	0000	126
		_EUSART1_DefaultErrorHandler		CODE           	926E	0000	6
		_EUSART1_SetFramingErrorHandler		CODE           	91C2	0000	10
		_EUSART1_Read  		CODE           	872C	0000	72
		_EUSART1_SetOverrunErrorHandler		CODE           	91B8	0000	10
		_EUSART1_SetErrorHandler		CODE           	91CC	0000	10
		_EUSART1_Write 		CODE           	8884	0000	64
		_EUSART1_Receive_ISR		CODE           	7422	0000	154
		_EUSART1_RxDataHandler		CODE           	8EFC	0000	34
		_EUSART1_DefaultOverrunErrorHandler		CODE           	9268	0000	6
		_EUSART1_Transmit_ISR		CODE           	8A98	0000	50
		_EUSART1_DefaultFramingErrorHandler		CODE           	92B0	0000	2

mcc_generated_files/eusart1.c estimated size: 580

mcc_generated_files/mcc.c
		_WWDT_TimerClear		CODE           	8F3A	0000	28
		_PMD_Initialize		CODE           	8F56	0000	28
		_OSCILLATOR_Initialize		CODE           	90A0	0000	22
		_SYSTEM_Initialize		CODE           	8AFA	0000	46
		_WWDT_Initialize		CODE           	917C	0000	10
		_WWDT_SoftEnable		CODE           	927A	0000	4

mcc_generated_files/mcc.c estimated size: 138

sm_common_MC50.c
		_sm_restart    		CODE           	87BA	0000	68
		_sm_get_current_state		CODE           	9108	0000	18
		_sm_init       		CODE           	83FE	0000	86
		_sm_send_event 		CODE           	8238	0000	92

sm_common_MC50.c estimated size: 264

mcc_generated_files/tmr1.c
		_TMR1_Initialize		CODE           	8842	0000	66
		_TMR1_SetInterruptHandler		CODE           	9190	0000	10
		_TMR1_DefaultInterruptHandler		CODE           	92AC	0000	2
		_TMR1_WriteTimer		CODE           	8F72	0000	28
		_TMR1_ISR      		CODE           	8944	0000	64

mcc_generated_files/tmr1.c estimated size: 170

eusartpackage.c
		_write_package 		CODE           	8B54	0000	44
		_read_package  		CODE           	85A6	0000	80

eusartpackage.c estimated size: 124

keeloqDecrypt_MC50.c
		_NormalKeyGen  		CODE           	66D2	0000	270
		_keeloqDecryptPacket		CODE           	4FAC	0000	466
		_DecCHK        		CODE           	8A66	0000	50
		_Decrypt       		CODE           	6DA0	0000	204
		_ReqResync     		CODE           	9028	0000	24
		_getHopCode    		CODE           	611A	0000	302
		_LoadManufCode 		CODE           	8E96	0000	34
		_keeloq_classic_decrypt_packet		CODE           	83A6	0000	88
		_DecryptPacket_12BIT		CODE           	7676	0000	140
		_verifyProgramingMode		CODE           	8A32	0000	52
		_HopCHK        		CODE           	781A	0000	138

keeloqDecrypt_MC50.c estimated size: 1768

mcc_generated_files/adcc.c
		_ADCC_GetSingleConversion		CODE           	90B6	0000	22
		_ADCC_Initialize		CODE           	85F6	0000	80

mcc_generated_files/adcc.c estimated size: 102

C:\Program Files\Microchip\xc8\v2.36\pic\sources\c99\common\memcpy.c
		_memcpy        		CODE           	87FE	0000	68

C:\Program Files\Microchip\xc8\v2.36\pic\sources\c99\common\memcpy.c estimated size: 68

C:\Program Files\Microchip\xc8\v2.36\pic\sources\c99\common\Umul16.c
		___wmul        		CODE           	8E00	0000	38

C:\Program Files\Microchip\xc8\v2.36\pic\sources\c99\common\Umul16.c estimated size: 38

C:\Program Files\Microchip\xc8\v2.36\pic\sources\c99\common\lbdiv.c
		___lbdiv       		CODE           	89C0	0000	58

C:\Program Files\Microchip\xc8\v2.36\pic\sources\c99\common\lbdiv.c estimated size: 58

sm_ControlLearning_MC50.c
		_sm_execute_ControlLearning		CODE           	1886	0000	1806
		_calculateMean 		CODE           	8178	0000	98
		_generateErrorLearnig		CODE           	80AA	0000	104
		_clearLearningValue		CODE           	7BB2	0000	124

sm_ControlLearning_MC50.c estimated size: 2132

