Microchip MPLAB XC8 Compiler V2.36

Linker command line:

-W-3 --edf=C:\Program Files\Microchip\xc8\v2.36\pic\dat\en_msgs.txt -cn \
  -h+dist/default/debug\MC50UNI.V.0.2.3.X.debug.sym \
  --cmf=dist/default/debug\MC50UNI.V.0.2.3.X.debug.cmf -z -Q18F46K40 \
  -oC:\Users\RAFAEL~1\AppData\Local\Temp\xcAsc68.4 --defsym=__MPLAB_BUILD=1 \
  -Mdist/default/debug/MC50UNI.V.0.2.3.X.debug.map \
  --md=C:\Users\RAFAEL~1\AppData\Local\Temp\xcAsc68.dat -E1 \
  -ver=XC8 Compiler --acfsm=1493 -ACODE=00h-0FFFFh -ACONST=00h-0FFFFh \
  -ASMALLCONST=0F00h-0FFFhx241 -AMEDIUMCONST=0F00h-0FFFFh -ACOMRAM=01h-05Fh \
  -AABS1=00h-0E87h -ABIGRAM=01h-0E87h \
  -ARAM=060h-0FFh,0100h-01FFhx13,0E00h-0E87h -ABANK0=060h-0FFh \
  -ABANK1=0100h-01FFh -ABANK2=0200h-02FFh -ABANK3=0300h-03FFh \
  -ABANK4=0400h-04FFh -ABANK5=0500h-05FFh -ABANK6=0600h-06FFh \
  -ABANK7=0700h-07FFh -ABANK8=0800h-08FFh -ABANK9=0900h-09FFh \
  -ABANK10=0A00h-0AFFh -ABANK11=0B00h-0BFFh -ABANK12=0C00h-0CFFh \
  -ABANK13=0D00h-0DFFh -ABANK14=0E00h-0E87h \
  -ASFR=0E8Dh-0EFFh,0F00h-0F5Fh,0F60h-0FFFh -ABIGSFR=0E8Dh-0FFFh \
  -ACONFIG=0300000h-030000Bh -AIDLOC=0200000h-020000Fh \
  -AEEDATA=0310000h-03103FFh -peeprom_data=EEDATA \
  -preset_vec=00h,intcode=08h,intcodelo,powerup,init -pramtop=0F00h \
  -psmallconst=SMALLCONST -pmediumconst=MEDIUMCONST -pconst=CONST \
  -AFARRAM=00h-00h \
  -prdata=COMRAM,nvrram=COMRAM,nvbit=COMRAM,rbss=COMRAM,rbit=COMRAM \
  -pfarbss=FARRAM,fardata=FARRAM,nvFARRAM=FARRAM \
  -pintsave_regs=BIGRAM,bigbss=BIGRAM,bigdata=BIGRAM -pbss=RAM \
  -pidata=CODE,irdata=CODE,ibigdata=CODE,ifardata=CODE -prparam=COMRAM \
  C:\Users\RAFAEL~1\AppData\Local\Temp\xcAsc68.o \
  dist/default/debug\MC50UNI.V.0.2.3.X.debug.o 

Object code version is 3.11

Machine type is 18F46K40



                Name                               Link     Load   Length Selector   Space Scale
C:\Users\RAFAEL~1\AppData\Local\Temp\xcAsc68.o
                idloc                            200000   200000       10        0       5
                config                           300000   300000        C        0       4
                init                                 9C       9C        4        4       0
                reset_vec                             0        0        6        0       0
dist/default/debug\MC50UNI.V.0.2.3.X.debug.o
                intcode                               8        8       94        4       0
                idloc                            200000   200000       10        0       5
                config                           300000   300000        C        0       4
                temp                                 50       50        1        1       1
                smallconst                          F00      F00       22      780       0
                text208                            916E     916E       22     4872       0
                text207                            94E0     94E0        6     4872       0
                text206                            9522     9522        2     4A76       0
                text205                            94DA     94DA        6     4872       0
                text204                            761A     761A       9A      791       0
                text203                            8CDE     8CDE       32      791       0
                text202                            9520     9520        2     4A76       0
                text201                            452C     452C      276      791       0
                text200                            9098     9098       26      791       0
                text199                            951E     951E        2     4A76       0
                text198                            91E4     91E4       1C     4872       0
                text197                            71F4     71F4       C6      791       0
                text196                            7F18     7F18       78      791       0
                text195                            4C40     4C40      222      791       0
                text194                            8B8A     8B8A       40      791       0
                text193                            9328     9328       16     4872       0
                text192                            86A2     86A2       56      791       0
                text191                            951C     951C        2     4A76       0
                text190                            8FD4     8FD4       2A      791       0
                text189                            5ADE     5ADE      19A      791       0
                text188                            93E2     93E2        C     4872       0
                text187                            7A9C     7A9C       86      791       0
                text186                            628E     628E      14E      791       0
                text184                            94D4     94D4        6     4872       0
                text183                            9514     9514        4     4A76       0
                text182                            9510     9510        4     4A76       0
                text181                            914C     914C       22     4872       0
                text180                            950C     950C        4     4A76       0
                text179                            9508     9508        4     4A76       0
                text178                            9504     9504        4     4A76       0
                text177                            9268     9268       1A     4872       0
                text176                            81C8     81C8       6E      791       0
                text175                            92FA     92FA       18     4872       0
                text174                            8F7E     8F7E       2C      791       0
                text173                            8F52     8F52       2C      791       0
                text172                            8F26     8F26       2C      791       0
                text171                            8EFA     8EFA       2C      791       0
                text170                            8ECE     8ECE       2C      791       0
                text169                            8B4A     8B4A       40      791       0
                text168                            8EA2     8EA2       2C      791       0
                text167                            8E76     8E76       2C      791       0
                text166                            8E4A     8E4A       2C      791       0
                text165                            8B0A     8B0A       40      791       0
                text164                            9500     9500        4     4A76       0
                text163                            94FC     94FC        4     4A76       0
                text162                            94F8     94F8        4     4A76       0
                text161                            94CE     94CE        6     4872       0
                text160                            94F4     94F4        4     4A76       0
                text159                            94C8     94C8        6     4872       0
                text158                            94AE     94AE        8     4872       0
                text157                            93D6     93D6        C     4872       0
                text156                            94C2     94C2        6     4872       0
                text155                            83D2     83D2       5E      791       0
                text154                            945C     945C        A     4872       0
                text153                            93C8     93C8        E     4872       0
                text152                            93BA     93BA        E     4872       0
                text151                            7986     7986       8C      791       0
                text150                            7E26     7E26       7A      791       0
                text149                            9452     9452        A     4872       0
                text148                            94A6     94A6        8     4872       0
                text147                            949E     949E        8     4872       0
                text146                            9496     9496        8     4872       0
                text145                            948E     948E        8     4872       0
                text144                            9486     9486        8     4872       0
                text143                            947E     947E        8     4872       0
                text142                            9476     9476        8     4872       0
                text141                            9448     9448        A     4872       0
                text140                            88DA     88DA       4E      791       0
                text139                            86F8     86F8       54      791       0
                text138                            946E     946E        8     4872       0
                text137                            939C     939C       10     4872       0
                text136                            8E1E     8E1E       2C      791       0
                text135                            9466     9466        8     4872       0
                text134                            92E2     92E2       18     4872       0
                text133                            7BA6     7BA6       84      791       0
                text132                            92CA     92CA       18     4872       0
                text131                            8A44     8A44       44      791       0
                text130                            8006     8006       74      791       0
                text129                            8C40     8C40       38      791       0
                text128                            8544     8544       5A      791       0
                text127                            712E     712E       C6      791       0
                text126                            9072     9072       26      791       0
                text125                            5944     5944      19A      791       0
                text124                            874C     874C       52      791       0
                text123                            6BAA     6BAA       FE      791       0
                text122                            8FFE     8FFE       28      791       0
                text121                            78FA     78FA       8C      791       0
                text120                            6DA4     6DA4       FA      791       0
                text119                            89BA     89BA       46      791       0
                text118                            611A     611A      174      791       0
                text117                            6760     6760      124      791       0
                text116                            8BCA     8BCA       3C      791       0
                text115                            93AC     93AC        E     4872       0
                text114                            77DE     77DE       90      791       0
                text113                            39DE     39DE      324      791       0
                text112                            7EA0     7EA0       78      791       0
                text111                            49F6     49F6      24A      791       0
                text110                            938C     938C       10     4872       0
                text109                            87EE     87EE       50      791       0
                text108                            943E     943E        A     4872       0
                text107                            9434     9434        A     4872       0
                text106                            942A     942A        A     4872       0
                text105                            9420     9420        A     4872       0
                text104                            9416     9416        A     4872       0
                text103                            7D2C     7D2C       7E      791       0
                text102                            9366     9366       14     4872       0
                text101                            94F0     94F0        4     4A76       0
                text100                            9312     9312       16     4872       0
                text99                             76B4     76B4       98      791       0
                text98                             91C8     91C8       1C     4872       0
                text97                             940C     940C        A     4872       0
                text96                             912A     912A       22     4872       0
                text95                             9402     9402        A     4872       0
                text94                             8A88     8A88       42      791       0
                text93                             93F8     93F8        A     4872       0
                text92                             8DF2     8DF2       2C      791       0
                text91                             93EE     93EE        A     4872       0
                text90                             8D40     8D40       2E      791       0
                text89                             924E     924E       1A     4872       0
                text88                             830A     830A       66      791       0
                text87                             94EC     94EC        4     4A76       0
                text86                             91AC     91AC       1C     4872       0
                text85                             7F90     7F90       76      791       0
                text84                             774C     774C       92      791       0
                text83                             8DC6     8DC6       2C      791       0
                text82                             888C     888C       4E      791       0
                text81                             8ACA     8ACA       40      791       0
                text80                             8D9A     8D9A       2C      791       0
                text79                             29A8     29A8      508      791       0
                text78                             2EB0     2EB0      424      791       0
                text77                             3FF8     3FF8      2A8      791       0
                text76                             92B2     92B2       18     4872       0
                text75                             84E8     84E8       5C      791       0
                text74                             5E0E     5E0E      18A      791       0
                text73                             5608     5608      1A0      791       0
                text72                             650A     650A      12E      791       0
                text71                             6AA2     6AA2      108      791       0
                text70                             57A8     57A8      19C      791       0
                text69                             786E     786E       8C      791       0
                text68                             8CAC     8CAC       32      791       0
                text67                             929A     929A       18     4872       0
                text66                             63DC     63DC      12E      791       0
                text65                             7A12     7A12       8A      791       0
                text64                             7062     7062       CC      791       0
                text63                             9108     9108       22     4872       0
                text62                             6994     6994      10E      791       0
                text61                             859E     859E       58      791       0
                text60                             8C78     8C78       34      791       0
                text59                             526E     526E      1D2      791       0
                text58                             5C78     5C78      196      791       0
                text57                             8972     8972       48      791       0
                text56                             879E     879E       50      791       0
                text55                             8236     8236       6C      791       0
                text54                             9352     9352       14     4872       0
                text53                             8C06     8C06       3A      791       0
                text52                             5440     5440      1C8      791       0
                text51                             8D6E     8D6E       2C      791       0
                text50                             7574     7574       A6      791       0
                text49                             933E     933E       14     4872       0
                text48                             848C     848C       5C      791       0
                text47                             937A     937A       12     4872       0
                text46                             8430     8430       5C      791       0
                text45                             815A     815A       6E      791       0
                text44                             9234     9234       1A     4872       0
                text43                             904C     904C       26      791       0
                text42                             80EA     80EA       70      791       0
                text41                             7424     7424       AA      791       0
                text40                             74CE     74CE       A6      791       0
                text39                             9190     9190       1C     4872       0
                text38                             864C     864C       56      791       0
                text37                             6E9E     6E9E       E8      791       0
                text36                             6638     6638      128      791       0
                text35                             42A0     42A0      28C      791       0
                text34                             9026     9026       26      791       0
                text33                             90E4     90E4       24     4872       0
                text32                             5080     5080      1EE      791       0
                text31                             9282     9282       18     4872       0
                text30                             8928     8928       4A      791       0
                text29                             6884     6884      110      791       0
                text28                             4E62     4E62      21E      791       0
                text27                             6F86     6F86       DC      791       0
                text26                             47A2     47A2      254      791       0
                text25                             8370     8370       62      791       0
                text24                             7DAA     7DAA       7C      791       0
                text23                             8A00     8A00       44      791       0
                text22                             85F6     85F6       56      791       0
                text21                             82A2     82A2       68      791       0
                text20                             1886     1886      70E      791       0
                text19                             3694     3694      34A      791       0
                text18                             7C2A     7C2A       82      791       0
                text17                             6CA8     6CA8       FC      791       0
                text16                             8D10     8D10       30      791       0
                text15                             94BC     94BC        6     4872       0
                text14                             921A     921A       1A     4872       0
                text13                             7B22     7B22       84      791       0
                text12                             8FAA     8FAA       2A      791       0
                text11                             7370     7370       B4      791       0
                text10                             7CAC     7CAC       80      791       0
                text9                              883E     883E       4E      791       0
                text8                              94B6     94B6        6     4872       0
                text7                              807A     807A       70      791       0
                text6                              32D4     32D4      3C0      791       0
                text5                              9200     9200       1A     4872       0
                text4                              3D02     3D02      2F6      791       0
                text3                              1F94     1F94      50C      791       0
                text2                               F22      F22      964      791       0
                text1                              24A0     24A0      508      791       0
                text0                              5F98     5F98      182      791       0
                cstackCOMRAM                          1        1       3A        1       1
                cstackBANK0                          D8       D8       20       60       1
                dataBANK3                           3D2      3D2       25      300       1
                bssBANK3                            300      300       D2      300       1
                dataBANK2                           2EF      2EF        2      200       1
                bssBANK2                            200      200       DD      200       1
                dataBANK1                           1F9      1F9        5      100       1
                bssBANK1                            100      100       F9      100       1
                dataBANK0                            F8       F8        2       60       1
                bssBANK0                             60       60       78       60       1
                bssCOMRAM                            3B       3B       15        1       1
                cinit                              72BA     72BA       B6      791       0
                nvBANK2                             2DD      2DD       12      200       1
                nvBANK1                             1FE      1FE        1      100       1
                idataBANK3                         90BE     90BE       25      791       0
                idataBANK2                         951A     951A        2     4A76       0
                idataBANK1                         94E6     94E6        5     4872       0
                idataBANK0                         9518     9518        2     4A76       0

TOTAL           Name                               Link     Load   Length     Space
        CLASS   CODE           
                intcode                               8        8       94         0
                init                                 9C       9C        4         0
                reset_vec                             0        0        6         0
                text208                            916E     916E       22         0
                text207                            94E0     94E0        6         0
                text206                            9522     9522        2         0
                text205                            94DA     94DA        6         0
                text204                            761A     761A       9A         0
                text203                            8CDE     8CDE       32         0
                text202                            9520     9520        2         0
                text201                            452C     452C      276         0
                text200                            9098     9098       26         0
                text199                            951E     951E        2         0
                text198                            91E4     91E4       1C         0
                text197                            71F4     71F4       C6         0
                text196                            7F18     7F18       78         0
                text195                            4C40     4C40      222         0
                text194                            8B8A     8B8A       40         0
                text193                            9328     9328       16         0
                text192                            86A2     86A2       56         0
                text191                            951C     951C        2         0
                text190                            8FD4     8FD4       2A         0
                text189                            5ADE     5ADE      19A         0
                text188                            93E2     93E2        C         0
                text187                            7A9C     7A9C       86         0
                text186                            628E     628E      14E         0
                text184                            94D4     94D4        6         0
                text183                            9514     9514        4         0
                text182                            9510     9510        4         0
                text181                            914C     914C       22         0
                text180                            950C     950C        4         0
                text179                            9508     9508        4         0
                text178                            9504     9504        4         0
                text177                            9268     9268       1A         0
                text176                            81C8     81C8       6E         0
                text175                            92FA     92FA       18         0
                text174                            8F7E     8F7E       2C         0
                text173                            8F52     8F52       2C         0
                text172                            8F26     8F26       2C         0
                text171                            8EFA     8EFA       2C         0
                text170                            8ECE     8ECE       2C         0
                text169                            8B4A     8B4A       40         0
                text168                            8EA2     8EA2       2C         0
                text167                            8E76     8E76       2C         0
                text166                            8E4A     8E4A       2C         0
                text165                            8B0A     8B0A       40         0
                text164                            9500     9500        4         0
                text163                            94FC     94FC        4         0
                text162                            94F8     94F8        4         0
                text161                            94CE     94CE        6         0
                text160                            94F4     94F4        4         0
                text159                            94C8     94C8        6         0
                text158                            94AE     94AE        8         0
                text157                            93D6     93D6        C         0
                text156                            94C2     94C2        6         0
                text155                            83D2     83D2       5E         0
                text154                            945C     945C        A         0
                text153                            93C8     93C8        E         0
                text152                            93BA     93BA        E         0
                text151                            7986     7986       8C         0
                text150                            7E26     7E26       7A         0
                text149                            9452     9452        A         0
                text148                            94A6     94A6        8         0
                text147                            949E     949E        8         0
                text146                            9496     9496        8         0
                text145                            948E     948E        8         0
                text144                            9486     9486        8         0
                text143                            947E     947E        8         0
                text142                            9476     9476        8         0
                text141                            9448     9448        A         0
                text140                            88DA     88DA       4E         0
                text139                            86F8     86F8       54         0
                text138                            946E     946E        8         0
                text137                            939C     939C       10         0
                text136                            8E1E     8E1E       2C         0
                text135                            9466     9466        8         0
                text134                            92E2     92E2       18         0
                text133                            7BA6     7BA6       84         0
                text132                            92CA     92CA       18         0
                text131                            8A44     8A44       44         0
                text130                            8006     8006       74         0
                text129                            8C40     8C40       38         0
                text128                            8544     8544       5A         0
                text127                            712E     712E       C6         0
                text126                            9072     9072       26         0
                text125                            5944     5944      19A         0
                text124                            874C     874C       52         0
                text123                            6BAA     6BAA       FE         0
                text122                            8FFE     8FFE       28         0
                text121                            78FA     78FA       8C         0
                text120                            6DA4     6DA4       FA         0
                text119                            89BA     89BA       46         0
                text118                            611A     611A      174         0
                text117                            6760     6760      124         0
                text116                            8BCA     8BCA       3C         0
                text115                            93AC     93AC        E         0
                text114                            77DE     77DE       90         0
                text113                            39DE     39DE      324         0
                text112                            7EA0     7EA0       78         0
                text111                            49F6     49F6      24A         0
                text110                            938C     938C       10         0
                text109                            87EE     87EE       50         0
                text108                            943E     943E        A         0
                text107                            9434     9434        A         0
                text106                            942A     942A        A         0
                text105                            9420     9420        A         0
                text104                            9416     9416        A         0
                text103                            7D2C     7D2C       7E         0
                text102                            9366     9366       14         0
                text101                            94F0     94F0        4         0
                text100                            9312     9312       16         0
                text99                             76B4     76B4       98         0
                text98                             91C8     91C8       1C         0
                text97                             940C     940C        A         0
                text96                             912A     912A       22         0
                text95                             9402     9402        A         0
                text94                             8A88     8A88       42         0
                text93                             93F8     93F8        A         0
                text92                             8DF2     8DF2       2C         0
                text91                             93EE     93EE        A         0
                text90                             8D40     8D40       2E         0
                text89                             924E     924E       1A         0
                text88                             830A     830A       66         0
                text87                             94EC     94EC        4         0
                text86                             91AC     91AC       1C         0
                text85                             7F90     7F90       76         0
                text84                             774C     774C       92         0
                text83                             8DC6     8DC6       2C         0
                text82                             888C     888C       4E         0
                text81                             8ACA     8ACA       40         0
                text80                             8D9A     8D9A       2C         0
                text79                             29A8     29A8      508         0
                text78                             2EB0     2EB0      424         0
                text77                             3FF8     3FF8      2A8         0
                text76                             92B2     92B2       18         0
                text75                             84E8     84E8       5C         0
                text74                             5E0E     5E0E      18A         0
                text73                             5608     5608      1A0         0
                text72                             650A     650A      12E         0
                text71                             6AA2     6AA2      108         0
                text70                             57A8     57A8      19C         0
                text69                             786E     786E       8C         0
                text68                             8CAC     8CAC       32         0
                text67                             929A     929A       18         0
                text66                             63DC     63DC      12E         0
                text65                             7A12     7A12       8A         0
                text64                             7062     7062       CC         0
                text63                             9108     9108       22         0
                text62                             6994     6994      10E         0
                text61                             859E     859E       58         0
                text60                             8C78     8C78       34         0
                text59                             526E     526E      1D2         0
                text58                             5C78     5C78      196         0
                text57                             8972     8972       48         0
                text56                             879E     879E       50         0
                text55                             8236     8236       6C         0
                text54                             9352     9352       14         0
                text53                             8C06     8C06       3A         0
                text52                             5440     5440      1C8         0
                text51                             8D6E     8D6E       2C         0
                text50                             7574     7574       A6         0
                text49                             933E     933E       14         0
                text48                             848C     848C       5C         0
                text47                             937A     937A       12         0
                text46                             8430     8430       5C         0
                text45                             815A     815A       6E         0
                text44                             9234     9234       1A         0
                text43                             904C     904C       26         0
                text42                             80EA     80EA       70         0
                text41                             7424     7424       AA         0
                text40                             74CE     74CE       A6         0
                text39                             9190     9190       1C         0
                text38                             864C     864C       56         0
                text37                             6E9E     6E9E       E8         0
                text36                             6638     6638      128         0
                text35                             42A0     42A0      28C         0
                text34                             9026     9026       26         0
                text33                             90E4     90E4       24         0
                text32                             5080     5080      1EE         0
                text31                             9282     9282       18         0
                text30                             8928     8928       4A         0
                text29                             6884     6884      110         0
                text28                             4E62     4E62      21E         0
                text27                             6F86     6F86       DC         0
                text26                             47A2     47A2      254         0
                text25                             8370     8370       62         0
                text24                             7DAA     7DAA       7C         0
                text23                             8A00     8A00       44         0
                text22                             85F6     85F6       56         0
                text21                             82A2     82A2       68         0
                text20                             1886     1886      70E         0
                text19                             3694     3694      34A         0
                text18                             7C2A     7C2A       82         0
                text17                             6CA8     6CA8       FC         0
                text16                             8D10     8D10       30         0
                text15                             94BC     94BC        6         0
                text14                             921A     921A       1A         0
                text13                             7B22     7B22       84         0
                text12                             8FAA     8FAA       2A         0
                text11                             7370     7370       B4         0
                text10                             7CAC     7CAC       80         0
                text9                              883E     883E       4E         0
                text8                              94B6     94B6        6         0
                text7                              807A     807A       70         0
                text6                              32D4     32D4      3C0         0
                text5                              9200     9200       1A         0
                text4                              3D02     3D02      2F6         0
                text3                              1F94     1F94      50C         0
                text2                               F22      F22      964         0
                text1                              24A0     24A0      508         0
                text0                              5F98     5F98      182         0
                cinit                              72BA     72BA       B6         0
                idataBANK3                         90BE     90BE       25         0
                idataBANK2                         951A     951A        2         0
                idataBANK1                         94E6     94E6        5         0
                idataBANK0                         9518     9518        2         0

        CLASS   CONST          

        CLASS   SMALLCONST     
                smallconst                          F00      F00       22         0

        CLASS   MEDIUMCONST    

        CLASS   COMRAM         
                temp                                 50       50        1         1
                cstackCOMRAM                          1        1       3A         1
                bssCOMRAM                            3B       3B       15         1

        CLASS   ABS1           

        CLASS   BIGRAM         

        CLASS   RAM            

        CLASS   BANK0          
                cstackBANK0                          D8       D8       20         1
                dataBANK0                            F8       F8        2         1
                bssBANK0                             60       60       78         1

        CLASS   BANK1          
                dataBANK1                           1F9      1F9        5         1
                bssBANK1                            100      100       F9         1
                nvBANK1                             1FE      1FE        1         1

        CLASS   BANK2          
                dataBANK2                           2EF      2EF        2         1
                bssBANK2                            200      200       DD         1
                nvBANK2                             2DD      2DD       12         1

        CLASS   BANK3          
                dataBANK3                           3D2      3D2       25         1
                bssBANK3                            300      300       D2         1

        CLASS   BANK4          

        CLASS   BANK5          

        CLASS   BANK6          

        CLASS   BANK7          

        CLASS   BANK8          

        CLASS   BANK9          

        CLASS   BANK10         

        CLASS   BANK11         

        CLASS   BANK12         

        CLASS   BANK13         

        CLASS   BANK14         

        CLASS   SFR            

        CLASS   BIGSFR         

        CLASS   CONFIG         
                config                           300000   300000        C         4

        CLASS   IDLOC          
                idloc                            200000   200000       10         5

        CLASS   EEDATA         

        CLASS   FARRAM         

        CLASS   HEAP           

        CLASS   STACK          



SEGMENTS        Name                           Load    Length   Top    Selector   Space  Class

                reset_vec                      000000  000006  000006         0       0  CODE    
                cstackCOMRAM                   000001  000050  000051         1       1  COMRAM  
                intcode                        000008  000098  0000A0         4       0  CODE    
                bssBANK0                       000060  00009A  0000FA        60       1  BANK0   
                bssBANK1                       000100  0000FF  0001FF       100       1  BANK1   
                bssBANK2                       000200  0000F1  0002F1       200       1  BANK2   
                bssBANK3                       000300  0000F7  0003F7       300       1  BANK3   
                smallconst                     000F00  000022  000F22       780       0  SMALLCON
                text2                          000F22  0081C1  0090E3       791       0  CODE    
                text33                         0090E4  000407  0094EB      4872       0  CODE    
                text87                         0094EC  000038  009524      4A76       0  CODE    


UNUSED ADDRESS RANGES

        Name                Unused          Largest block    Delta
        BANK0            0000FA-0000FF                6
        BANK1            0001FF-0001FF                1
        BANK10           000A00-000AFF              100
        BANK11           000B00-000BFF              100
        BANK12           000C00-000CFF              100
        BANK13           000D00-000DFF              100
        BANK14           000E00-000E87               88
        BANK2            0002F1-0002FF                F
        BANK3            0003F7-0003FF                9
        BANK4            000400-0004FF              100
        BANK5            000500-0005FF              100
        BANK6            000600-0006FF              100
        BANK7            000700-0007FF              100
        BANK8            000800-0008FF              100
        BANK9            000900-0009FF              100
        BIGRAM           000051-00005F                F
                         0000FA-0000FF                6
                         0001FF-0001FF                1
                         0002F1-0002FF                F
                         0003F7-000E87              A91
        BIGSFR           000E8D-000FFF              173
        CODE             000006-000007                2
                         0000A0-000EFF              E60
                         0090E3-0090E3                1
                         0094EB-0094EB                1
                         009524-00FFFF             6ADC
        COMRAM           000051-00005F                F
        CONST            000006-000007                2
                         0000A0-000EFF              E60
                         0090E3-0090E3                1
                         0094EB-0094EB                1
                         009524-00FFFF             6ADC
        EEDATA           310000-3103FF              400
        MEDIUMCONST      0090E3-0090E3                1
                         0094EB-0094EB                1
                         009524-00FFFF             6ADC
        RAM              0000FA-0000FF                6
                         0001FF-0001FF                1
                         0002F1-0002FF                F
                         0003F7-000E87              100
        SFR              000E8D-000FFF               73
        SMALLCONST       0090E3-0090E3                1
                         0094EB-0094EB                1
                         009524-00FFFF              100

                                  Symbol Table

?___awdiv                                                 cstackCOMRAM 000014
?___lldiv                                                 cstackCOMRAM 000010
?___lmul                                                  cstackCOMRAM 00001D
?___lwdiv                                                 cstackCOMRAM 000010
?___wmul                                                  cstackCOMRAM 000010
?_calculateMean                                           cstackCOMRAM 000010
?_getCurrentComparator                                    cstackCOMRAM 000016
?_getHopCode                                              cstackCOMRAM 000016
?_getTimeDecelaration                                     cstackCOMRAM 000029
?_read_package                                            cstackCOMRAM 000011
?_sm_get_current_state                                    cstackCOMRAM 000010
?_sumEnergyADC                                            cstackCOMRAM 000010
?_sumHIST                                                 cstackCOMRAM 000010
ADCC_GetSingleConversion@channel                          cstackCOMRAM 000001
ControlMotor@stateMotor                                   cstackCOMRAM 000018
DecCHK@data                                               cstackCOMRAM 000010
Decrypt@Buffer                                            cstackCOMRAM 000022
Decrypt@aux                                               cstackCOMRAM 000021
Decrypt@i                                                 cstackCOMRAM 00001E
Decrypt@j                                                 cstackCOMRAM 00001F
Decrypt@key                                               cstackCOMRAM 00001D
Decrypt@p                                                 cstackCOMRAM 000020
Decrypt@packet                                            cstackCOMRAM 00001B
DecryptPacket_12BIT@classic_data                          cstackBANK0  0000E2
DecryptPacket_12BIT@commandType                           cstackBANK0  0000E4
DecryptPacket_12BIT@data                                  cstackBANK0  0000E0
EUSART1_Read@readValue                                    cstackCOMRAM 000010
EUSART1_SetErrorHandler@interruptHandler                  cstackCOMRAM 000010
EUSART1_SetFramingErrorHandler@interruptHandler           cstackCOMRAM 000010
EUSART1_SetOverrunErrorHandler@interruptHandler           cstackCOMRAM 000010
EUSART1_SetRxInterruptHandler@interruptHandler            cstackCOMRAM 000010
EUSART1_SetTxInterruptHandler@interruptHandler            cstackCOMRAM 000010
EUSART1_Write@txData                                      cstackCOMRAM 000010
GetMotorPower@defineatraso                                cstackCOMRAM 000013
HopCHK@data                                               cstackCOMRAM 000024
HopCHK@hopDiff                                            cstackCOMRAM 000026
I2C1_CallbackReturnReset@funPtr                           cstackCOMRAM 000019
I2C1_Close@returnValue                                    cstackCOMRAM 000010
I2C1_MasterOperation@read                                 cstackCOMRAM 000020
I2C1_MasterOperation@returnValue                          cstackCOMRAM 000021
I2C1_MasterSendTxData@data                                cstackCOMRAM 000010
I2C1_Open@address                                         cstackCOMRAM 000010
I2C1_Open@returnValue                                     cstackCOMRAM 000011
I2C1_Read1ByteRegister@address                            cstackCOMRAM 000023
I2C1_Read1ByteRegister@reg                                cstackCOMRAM 000022
I2C1_Read1ByteRegister@returnValue                        cstackCOMRAM 000024
I2C1_SetAddressNackCallback@cb                            cstackCOMRAM 000015
I2C1_SetAddressNackCallback@ptr                           cstackCOMRAM 000017
I2C1_SetBuffer@buffer                                     cstackCOMRAM 000010
I2C1_SetBuffer@bufferSize                                 cstackCOMRAM 000012
I2C1_SetCallback@cb                                       cstackCOMRAM 000010
I2C1_SetCallback@idx                                      cstackCOMRAM 000014
I2C1_SetCallback@ptr                                      cstackCOMRAM 000012
I2C1_SetDataCompleteCallback@cb                           cstackCOMRAM 000015
I2C1_SetDataCompleteCallback@ptr                          cstackCOMRAM 000017
NormalKeyGen@Buffer                                       cstackCOMRAM 000030
NormalKeyGen@HOPtemp                                      cstackCOMRAM 000028
NormalKeyGen@SEED                                         bssBANK2     0002D9
NormalKeyGen@SKEYtemp                                     cstackCOMRAM 00002C
NormalKeyGen@serial                                       cstackCOMRAM 000026
OpenWalkOrder@diffTime                                    cstackCOMRAM 00001A
RGB_Set@value                                             cstackCOMRAM 000010
RemoveSerial@cmdType                                      cstackBANK0  0000DA
RemoveSerial@position                                     cstackCOMRAM 00003A
RemoveSerial@tempSerial                                   cstackBANK0  0000DB
ReqResync@CurrentHop                                      cstackCOMRAM 000010
ResetDefaultMemory@type                                   cstackCOMRAM 00003A
SaveNVM_VarSystem@page                                    cstackBANK0  0000D8
SaveNVM_VarSystem@point                                   cstackBANK0  0000DB
SaveNVM_VarSystem@tempAdd                                 cstackBANK0  0000D9
Segments_Set@value                                        cstackCOMRAM 000001
SetSegmentValue@d1                                        cstackCOMRAM 00001D
SetSegmentValue@d2                                        cstackCOMRAM 00001C
SetSegmentValueIntermitent@d1                             cstackCOMRAM 000013
SetSegmentValueIntermitent@d2                             cstackCOMRAM 000010
SetSegmentValueIntermitent@time                           cstackCOMRAM 000011
SetSegmentValueIntermitentMain@d1                         cstackCOMRAM 00001F
SetSegmentValueIntermitentMain@d2                         cstackCOMRAM 00001C
SetSegmentValueIntermitentMain@time                       cstackCOMRAM 00001D
SetSegmentValueLearn@direction                            cstackCOMRAM 000012
SetSegmentValueMain@d1                                    cstackCOMRAM 00001D
SetSegmentValueMain@d2                                    cstackCOMRAM 00001C
TMR0_SetInterruptHandler@InterruptHandler                 cstackCOMRAM 000010
TMR1_SetInterruptHandler@InterruptHandler                 cstackCOMRAM 000010
TMR1_WriteTimer@timerVal                                  cstackCOMRAM 000001
TMR2_SetInterruptHandler@InterruptHandler                 cstackCOMRAM 000010
VerifyElectricalBrake@actualState                         cstackCOMRAM 000011
VerifyElectricalBrake@tempState                           cstackCOMRAM 000010
VerifyFollowMe@securityClose                              cstackCOMRAM 000010
WWDT_TimerClear@state                                     cstackCOMRAM 000010
_ADACCH                                                   (abs)        000F71
_ADACCL                                                   (abs)        000F70
_ADACQ                                                    (abs)        000F5C
_ADACT                                                    (abs)        000F56
_ADCAP                                                    (abs)        000F5D
_ADCC_GetSingleConversion                                 text193      009328
_ADCC_Initialize                                          text109      0087EE
_ADCLK                                                    (abs)        000F57
_ADCNT                                                    (abs)        000F67
_ADCON0                                                   (abs)        000F60
_ADCON0bits                                               (abs)        000F60
_ADCON1                                                   (abs)        000F59
_ADCON2                                                   (abs)        000F5A
_ADCON3                                                   (abs)        000F5B
_ADC_array                                                bssBANK2     000200
_ADC_zero_array                                           bssBANK3     000396
_ADERRH                                                   (abs)        000F6F
_ADERRL                                                   (abs)        000F6E
_ADFLTRH                                                  (abs)        000F73
_ADFLTRL                                                  (abs)        000F72
_ADLTHH                                                   (abs)        000F6B
_ADLTHL                                                   (abs)        000F6A
_ADPCH                                                    (abs)        000F5F
_ADPRE                                                    (abs)        000F5E
_ADPREVH                                                  (abs)        000F62
_ADPREVL                                                  (abs)        000F61
_ADREF                                                    (abs)        000F58
_ADRESH                                                   (abs)        000F64
_ADRESL                                                   (abs)        000F63
_ADRPT                                                    (abs)        000F66
_ADSTAT                                                   (abs)        000F65
_ADSTPTH                                                  (abs)        000F69
_ADSTPTL                                                  (abs)        000F68
_ADUTHH                                                   (abs)        000F6D
_ADUTHL                                                   (abs)        000F6C
_ANSELA                                                   (abs)        000F11
_ANSELB                                                   (abs)        000F19
_ANSELC                                                   (abs)        000F21
_ANSELD                                                   (abs)        000F26
_ANSELE                                                   (abs)        000F2E
_Abertura_pedonal                                         bssBANK1     00018D
_BAUD1CON                                                 (abs)        000F9F
_BitCount                                                 bssBANK0     00008C
_Bptr                                                     bssBANK0     00008D
_BufferRF                                                 bssBANK2     0002C8
_BufferRF_12BIT                                           bssBANK1     000187
_ClearFlag_rfCMD                                          text15       0094BC
_CloseOrder                                               text34       009026
_ControlCounterMoves                                      text128      008544
_ControlCurrent                                           text118      00611A
_ControlDecelarationFactor                                text31       009282
_ControlInputs                                            text117      006760
_ControlLights                                            text113      0039DE
_ControlMotor                                             text111      0049F6
_Counterchoose                                            bssBANK0     000092
_DKEY                                                     bssBANK2     0002D1
_DecCHK                                                   text68       008CAC
_Decrypt                                                  text64       007062
_DecryptPacket_12BIT                                      text69       00786E
_DispTable                                                dataBANK3    0003D2
_EHop                                                     bssBANK2     00028C
_EUSART1_DefaultErrorHandler                              text207      0094E0
_EUSART1_DefaultFramingErrorHandler                       text206      009522
_EUSART1_DefaultOverrunErrorHandler                       text205      0094DA
_EUSART1_ErrorHandler                                     nvBANK2      0002E5
_EUSART1_FramingErrorHandler                              nvBANK2      0002E9
_EUSART1_Initialize                                       text103      007D2C
_EUSART1_OverrunErrorHandler                              nvBANK2      0002E7
_EUSART1_Read                                             text57       008972
_EUSART1_Receive_ISR                                      text204      00761A
_EUSART1_RxDataHandler                                    text208      00916E
_EUSART1_RxDefaultInterruptHandler                        nvBANK2      0002EB
_EUSART1_SetErrorHandler                                  text108      00943E
_EUSART1_SetFramingErrorHandler                           text107      009434
_EUSART1_SetOverrunErrorHandler                           text106      00942A
_EUSART1_SetRxInterruptHandler                            text105      009420
_EUSART1_SetTxInterruptHandler                            text104      009416
_EUSART1_Transmit_ISR                                     text203      008CDE
_EUSART1_TxDefaultInterruptHandler                        nvBANK2      0002ED
_EUSART1_Write                                            text81       008ACA
_EUSART1_is_rx_ready                                      text110      00938C
_F2Chance                                                 bssBANK1     000195
_GIE                                                      (abs)        007F97
_GetMotorPower                                            text127      00712E
_GetOpenOrder                                             text52       005440
_GetSecurityStateInClosing                                text40       0074CE
_GetSecurityStateInOpening                                text50       007574
_Hop                                                      bssBANK0     00007C
_HopCHK                                                   text65       007A12
_I2C1_CallbackReturnReset                                 text163      0094FC
_I2C1_CallbackReturnStop                                  text164      009500
_I2C1_Close                                               text181      00914C
_I2C1_DO_ADDRESS_NACK                                     text140      0088DA
_I2C1_DO_IDLE                                             text154      00945C
_I2C1_DO_RCEN                                             text149      009452
_I2C1_DO_RESET                                            text141      009448
_I2C1_DO_RX                                               text150      007E26
_I2C1_DO_RX_ACK                                           text144      009486
_I2C1_DO_RX_NACK_RESTART                                  text142      009476
_I2C1_DO_RX_NACK_STOP                                     text143      00947E
_I2C1_DO_SEND_ADR_READ                                    text153      0093C8
_I2C1_DO_SEND_ADR_WRITE                                   text152      0093BA
_I2C1_DO_SEND_RESTART                                     text146      009496
_I2C1_DO_SEND_RESTART_READ                                text148      0094A6
_I2C1_DO_SEND_RESTART_WRITE                               text147      00949E
_I2C1_DO_SEND_STOP                                        text145      00948E
_I2C1_DO_TX                                               text151      007986
_I2C1_DO_TX_EMPTY                                         text155      0083D2
_I2C1_Initialize                                          text102      009366
_I2C1_MasterClearIrq                                      text184      0094D4
_I2C1_MasterClose                                         text183      009514
_I2C1_MasterDisableIrq                                    text182      009510
_I2C1_MasterEnableRestart                                 text179      009508
_I2C1_MasterFsm                                           text139      0086F8
_I2C1_MasterGetRxData                                     text160      0094F4
_I2C1_MasterIsNack                                        text157      0093D6
_I2C1_MasterOpen                                          text134      0092E2
_I2C1_MasterOperation                                     text136      008E1E
_I2C1_MasterSendAck                                       text159      0094C8
_I2C1_MasterSendNack                                      text161      0094CE
_I2C1_MasterSendTxData                                    text158      0094AE
_I2C1_MasterSetIrq                                        text156      0094C2
_I2C1_MasterStart                                         text180      00950C
_I2C1_MasterStartRx                                       text162      0094F8
_I2C1_MasterStop                                          text178      009504
_I2C1_MasterWaitForEvent                                  text138      00946E
_I2C1_MasterWrite                                         text135      009466
_I2C1_Open                                                text133      007BA6
_I2C1_Poller                                              text137      00939C
_I2C1_Read1ByteRegister                                   text75       0084E8
_I2C1_SetAddressNackCallback                              text132      0092CA
_I2C1_SetBuffer                                           text177      009268
_I2C1_SetCallback                                         text176      0081C8
_I2C1_SetDataCompleteCallback                             text175      0092FA
_I2C1_Status                                              bssBANK2     00023C
_INLVLA                                                   (abs)        000F0D
_INLVLB                                                   (abs)        000F15
_INLVLC                                                   (abs)        000F1D
_INLVLD                                                   (abs)        000F22
_INLVLE                                                   (abs)        000F2A
_INTCONbits                                               (abs)        000FF2
_INTERRUPT_Initialize                                     text101      0094F0
_INTERRUPT_InterruptManager                               intcode      000008
_IOCBN3                                                   (abs)        00789B
_IOCBP3                                                   (abs)        0078A3
_InitFullAutoTime                                         text44       009234
_InitReceiver                                             text5        009200
_InitSoftStart                                            text48       00848C
_InitSoftStop                                             text30       008928
_InitWalkAutoTime                                         text49       00933E
_LATA                                                     (abs)        000F83
_LATAbits                                                 (abs)        000F83
_LATB                                                     (abs)        000F84
_LATC                                                     (abs)        000F85
_LATCbits                                                 (abs)        000F85
_LATD                                                     (abs)        000F86
_LATDbits                                                 (abs)        000F86
_LATE                                                     (abs)        000F87
_LATEbits                                                 (abs)        000F87
_LoadManufCode                                            text63       009108
_NextHop                                                  bssBANK2     00028E
_NormalKeyGen                                             text62       006994
_ODCONA                                                   (abs)        000F0F
_ODCONB                                                   (abs)        000F17
_ODCONC                                                   (abs)        000F1F
_ODCOND                                                   (abs)        000F24
_ODCONE                                                   (abs)        000F2C
_OSCCON1                                                  (abs)        000ED8
_OSCCON3                                                  (abs)        000EDA
_OSCEN                                                    (abs)        000EDC
_OSCFRQ                                                   (abs)        000EDE
_OSCILLATOR_Initialize                                    text100      009312
_OSCTUNE                                                  (abs)        000EDD
_OpenFullOrder                                            text43       00904C
_OpenWalkOrder                                            text45       00815A
_PCON0bits                                                (abs)        000FD7
_PIE0bits                                                 (abs)        000EC2
_PIE3bits                                                 (abs)        000EC5
_PIE4bits                                                 (abs)        000EC6
_PIN_MANAGER_Initialize                                   text99       0076B4
_PIR0bits                                                 (abs)        000ECA
_PIR3bits                                                 (abs)        000ECD
_PIR4bits                                                 (abs)        000ECE
_PMD0                                                     (abs)        000EE1
_PMD1                                                     (abs)        000EE2
_PMD2                                                     (abs)        000EE3
_PMD3                                                     (abs)        000EE4
_PMD4                                                     (abs)        000EE5
_PMD5                                                     (abs)        000EE6
_PMD_Initialize                                           text98       0091C8
_PORTAbits                                                (abs)        000F8D
_PORTB                                                    (abs)        000F8E
_PORTBbits                                                (abs)        000F8E
_PORTEbits                                                (abs)        000F91
_RC1REG                                                   (abs)        000F99
_RC1STA                                                   (abs)        000F9D
_RC1STAbits                                               (abs)        000F9D
_RC3PPS                                                   (abs)        000EFA
_RC4PPS                                                   (abs)        000EFB
_RC7PPS                                                   (abs)        000EFE
_RFBit                                                    bssBANK0     000089
_RFFull                                                   bssBANK0     00008B
_RFFull_12BIT                                             bssBANK0     00008A
_RFcount                                                  bssBANK0     00007E
_RFstate                                                  bssBANK1     000198
_RGB_Set                                                  text115      0093AC
_RX1PPS                                                   (abs)        000EB5
_ReadADC                                                  text192      0086A2
_RemoveSerial                                             text10       007CAC
_ReqResync                                                text67       00929A
_ResetDefaultMemory                                       text74       005E0E
_SLRCONA                                                  (abs)        000F0E
_SLRCONB                                                  (abs)        000F16
_SLRCONC                                                  (abs)        000F1E
_SLRCOND                                                  (abs)        000F23
_SLRCONE                                                  (abs)        000F2B
_SP1BRGH                                                  (abs)        000F9C
_SP1BRGL                                                  (abs)        000F9B
_SSP1ADD                                                  (abs)        000F93
_SSP1BUF                                                  (abs)        000F92
_SSP1CLKPPS                                               (abs)        000EB7
_SSP1CON1                                                 (abs)        000F96
_SSP1CON1bits                                             (abs)        000F96
_SSP1CON2                                                 (abs)        000F97
_SSP1CON2bits                                             (abs)        000F97
_SSP1DATPPS                                               (abs)        000EB8
_SSP1STAT                                                 (abs)        000F95
_SYSTEM_Initialize                                        text90       008D40
_SaveNVM_VarSystem                                        text129      008C40
_Segments_Set                                             text188      0093E2
_SetSegmentValue                                          text89       00924E
_SetSegmentValueIntermitent                               text51       008D6E
_SetSegmentValueIntermitentMain                           text54       009352
_SetSegmentValueLearn                                     text17       006CA8
_SetSegmentValueMain                                      text14       00921A
_ShowVersion                                              text88       00830A
_StateTRIAC                                               bssBANK1     000190
_StopOrder                                                text39       009190
_SumEnergyADCHist_array                                   bssBANK2     000260
_T0CON0                                                   (abs)        000FD5
_T0CON1                                                   (abs)        000FD6
_T1CLK                                                    (abs)        000FD2
_T1CON                                                    (abs)        000FCF
_T1CONbits                                                (abs)        000FCF
_T1GATE                                                   (abs)        000FD1
_T1GCON                                                   (abs)        000FD0
_T2CLKCON                                                 (abs)        000FBF
_T2CON                                                    (abs)        000FBD
_T2HLT                                                    (abs)        000FBE
_T2PR                                                     (abs)        000FBC
_T2RST                                                    (abs)        000FC0
_T2TMR                                                    (abs)        000FBB
_TMR0H                                                    (abs)        000FD4
_TMR0IE                                                   (abs)        007615
_TMR0IF                                                   (abs)        007655
_TMR0L                                                    (abs)        000FD3
_TMR0_DefaultInterruptHandler                             text202      009520
_TMR0_ISR                                                 text200      009098
_TMR0_Initialize                                          text96       00912A
_TMR0_InterruptHandler                                    nvBANK2      0002E3
_TMR0_SetInterruptHandler                                 text97       00940C
_TMR1H                                                    (abs)        000FCE
_TMR1L                                                    (abs)        000FCD
_TMR1_DefaultInterruptHandler                             text199      00951E
_TMR1_ISR                                                 text194      008B8A
_TMR1_Initialize                                          text94       008A88
_TMR1_InterruptHandler                                    nvBANK2      0002DF
_TMR1_SetInterruptHandler                                 text95       009402
_TMR1_WriteTimer                                          text198      0091E4
_TMR2_DefaultInterruptHandler                             text191      00951C
_TMR2_ISR                                                 text186      00628E
_TMR2_Initialize                                          text92       008DF2
_TMR2_InterruptHandler                                    nvBANK2      0002DD
_TMR2_SetInterruptHandler                                 text93       0093F8
_TRISA                                                    (abs)        000F88
_TRISB                                                    (abs)        000F89
_TRISC                                                    (abs)        000F8A
_TRISD                                                    (abs)        000F8B
_TRISE                                                    (abs)        000F8C
_TX1REG                                                   (abs)        000F9A
_TX1STA                                                   (abs)        000F9E
_VerifyElectricalBrake                                    text112      007EA0
_VerifyFollowMe                                           text33       0090E4
_WDTCON0                                                  (abs)        000ED2
_WDTCON0bits                                              (abs)        000ED2
_WDTCON1                                                  (abs)        000ED3
_WPUA                                                     (abs)        000F10
_WPUB                                                     (abs)        000F18
_WPUC                                                     (abs)        000F20
_WPUD                                                     (abs)        000F25
_WPUE                                                     (abs)        000F2D
_WWDT_Initialize                                          text91       0093EE
_WWDT_SoftEnable                                          text87       0094EC
_WWDT_TimerClear                                          text86       0091AC
_WaitPreFlash                                             text42       0080EA
__HRAM                                                    (abs)        000000
__Habs1                                                   abs1         000000
__Hbank0                                                  bank0        000000
__Hbank1                                                  bank1        000000
__Hbank10                                                 bank10       000000
__Hbank11                                                 bank11       000000
__Hbank12                                                 bank12       000000
__Hbank13                                                 bank13       000000
__Hbank14                                                 bank14       000000
__Hbank2                                                  bank2        000000
__Hbank3                                                  bank3        000000
__Hbank4                                                  bank4        000000
__Hbank5                                                  bank5        000000
__Hbank6                                                  bank6        000000
__Hbank7                                                  bank7        000000
__Hbank8                                                  bank8        000000
__Hbank9                                                  bank9        000000
__Hbigbss                                                 bigbss       000000
__Hbigdata                                                bigdata      000000
__Hbigram                                                 bigram       000000
__Hbigsfr                                                 bigsfr       000000
__Hbss                                                    bss          000000
__HbssBANK0                                               bssBANK0     000000
__HbssBANK1                                               bssBANK1     000000
__HbssBANK2                                               bssBANK2     000000
__HbssBANK3                                               bssBANK3     000000
__HbssCOMRAM                                              bssCOMRAM    000000
__Hcinit                                                  cinit        000000
__Hclrtext                                                clrtext      000000
__Hcomram                                                 comram       000000
__Hconfig                                                 config       30000C
__Hconst                                                  const        000000
__HcstackBANK0                                            cstackBANK0  000000
__HcstackCOMRAM                                           cstackCOMRAM 000000
__Hdata                                                   data         000000
__HdataBANK0                                              dataBANK0    000000
__HdataBANK1                                              dataBANK1    000000
__HdataBANK2                                              dataBANK2    000000
__HdataBANK3                                              dataBANK3    000000
__Heeprom_data                                            eeprom_data  000000
__Hfarbss                                                 farbss       000000
__Hfardata                                                fardata      000000
__Hheap                                                   heap         000000
__Hibigdata                                               ibigdata     000000
__Hidata                                                  idata        000000
__HidataBANK0                                             idataBANK0   000000
__HidataBANK1                                             idataBANK1   000000
__HidataBANK2                                             idataBANK2   000000
__HidataBANK3                                             idataBANK3   000000
__Hidloc                                                  idloc        200010
__Hifardata                                               ifardata     000000
__Hinit                                                   init         0000A0
__Hintcode                                                intcode      00009C
__Hintcode_body                                           intcode_body 000000
__Hintcodelo                                              intcodelo    00009C
__Hintentry                                               intentry     000000
__Hintret                                                 intret       000000
__Hintsave_regs                                           intsave_regs 000000
__Hirdata                                                 irdata       000000
__Hmediumconst                                            mediumconst  000000
__HnvBANK1                                                nvBANK1      000000
__HnvBANK2                                                nvBANK2      000000
__HnvFARRAM                                               nvFARRAM     000000
__Hnvbit                                                  nvbit        000000
__Hnvrram                                                 nvrram       000000
__Hparam                                                  rparam       000000
__Hpowerup                                                powerup      00009C
__Hram                                                    ram          000000
__Hramtop                                                 ramtop       000F00
__Hrbit                                                   rbit         000000
__Hrbss                                                   rbss         000000
__Hrdata                                                  rdata        000000
__Hreset_vec                                              reset_vec    000006
__Hrparam                                                 rparam       000000
__Hsfr                                                    sfr          000000
__Hsmallconst                                             smallconst   000F22
__Hspace_0                                                (abs)        009524
__Hspace_1                                                (abs)        0003F7
__Hspace_2                                                (abs)        000000
__Hspace_4                                                (abs)        60000C
__Hstack                                                  stack        000000
__Hstruct                                                 struct       000000
__Htemp                                                   temp         000051
__Htext                                                   text         000000
__Htext0                                                  text0        000000
__Htext1                                                  text1        000000
__Htext10                                                 text10       000000
__Htext100                                                text100      000000
__Htext101                                                text101      000000
__Htext102                                                text102      000000
__Htext103                                                text103      000000
__Htext104                                                text104      000000
__Htext105                                                text105      000000
__Htext106                                                text106      000000
__Htext107                                                text107      000000
__Htext108                                                text108      000000
__Htext109                                                text109      000000
__Htext11                                                 text11       000000
__Htext110                                                text110      000000
__Htext111                                                text111      000000
__Htext112                                                text112      000000
__Htext113                                                text113      000000
__Htext114                                                text114      000000
__Htext115                                                text115      000000
__Htext116                                                text116      000000
__Htext117                                                text117      000000
__Htext118                                                text118      000000
__Htext119                                                text119      000000
__Htext12                                                 text12       000000
__Htext120                                                text120      000000
__Htext121                                                text121      000000
__Htext122                                                text122      000000
__Htext123                                                text123      000000
__Htext124                                                text124      000000
__Htext125                                                text125      000000
__Htext126                                                text126      000000
__Htext127                                                text127      000000
__Htext128                                                text128      000000
__Htext129                                                text129      000000
__Htext13                                                 text13       000000
__Htext130                                                text130      000000
__Htext131                                                text131      000000
__Htext132                                                text132      000000
__Htext133                                                text133      000000
__Htext134                                                text134      000000
__Htext135                                                text135      000000
__Htext136                                                text136      000000
__Htext137                                                text137      000000
__Htext138                                                text138      000000
__Htext139                                                text139      000000
__Htext14                                                 text14       000000
__Htext140                                                text140      000000
__Htext141                                                text141      000000
__Htext142                                                text142      000000
__Htext143                                                text143      000000
__Htext144                                                text144      000000
__Htext145                                                text145      000000
__Htext146                                                text146      000000
__Htext147                                                text147      000000
__Htext148                                                text148      000000
__Htext149                                                text149      000000
__Htext15                                                 text15       000000
__Htext150                                                text150      000000
__Htext151                                                text151      000000
__Htext152                                                text152      000000
__Htext153                                                text153      000000
__Htext154                                                text154      000000
__Htext155                                                text155      000000
__Htext156                                                text156      000000
__Htext157                                                text157      000000
__Htext158                                                text158      000000
__Htext159                                                text159      000000
__Htext16                                                 text16       000000
__Htext160                                                text160      000000
__Htext161                                                text161      000000
__Htext162                                                text162      000000
__Htext163                                                text163      000000
__Htext164                                                text164      000000
__Htext165                                                text165      000000
__Htext166                                                text166      000000
__Htext167                                                text167      000000
__Htext168                                                text168      000000
__Htext169                                                text169      000000
__Htext17                                                 text17       000000
__Htext170                                                text170      000000
__Htext171                                                text171      000000
__Htext172                                                text172      000000
__Htext173                                                text173      000000
__Htext174                                                text174      000000
__Htext175                                                text175      000000
__Htext176                                                text176      000000
__Htext177                                                text177      000000
__Htext178                                                text178      000000
__Htext179                                                text179      000000
__Htext18                                                 text18       000000
__Htext180                                                text180      000000
__Htext181                                                text181      000000
__Htext182                                                text182      000000
__Htext183                                                text183      000000
__Htext184                                                text184      000000
__Htext186                                                text186      000000
__Htext187                                                text187      000000
__Htext188                                                text188      000000
__Htext189                                                text189      000000
__Htext19                                                 text19       000000
__Htext190                                                text190      000000
__Htext191                                                text191      000000
__Htext192                                                text192      000000
__Htext193                                                text193      000000
__Htext194                                                text194      000000
__Htext195                                                text195      000000
__Htext196                                                text196      000000
__Htext197                                                text197      000000
__Htext198                                                text198      000000
__Htext199                                                text199      000000
__Htext2                                                  text2        000000
__Htext20                                                 text20       000000
__Htext200                                                text200      000000
__Htext201                                                text201      000000
__Htext202                                                text202      000000
__Htext203                                                text203      000000
__Htext204                                                text204      000000
__Htext205                                                text205      000000
__Htext206                                                text206      000000
__Htext207                                                text207      000000
__Htext208                                                text208      000000
__Htext209                                                text209      000000
__Htext21                                                 text21       000000
__Htext22                                                 text22       000000
__Htext23                                                 text23       000000
__Htext24                                                 text24       000000
__Htext25                                                 text25       000000
__Htext26                                                 text26       000000
__Htext27                                                 text27       000000
__Htext28                                                 text28       000000
__Htext29                                                 text29       000000
__Htext3                                                  text3        000000
__Htext30                                                 text30       000000
__Htext31                                                 text31       000000
__Htext32                                                 text32       000000
__Htext33                                                 text33       000000
__Htext34                                                 text34       000000
__Htext35                                                 text35       000000
__Htext36                                                 text36       000000
__Htext37                                                 text37       000000
__Htext38                                                 text38       000000
__Htext39                                                 text39       000000
__Htext4                                                  text4        000000
__Htext40                                                 text40       000000
__Htext41                                                 text41       000000
__Htext42                                                 text42       000000
__Htext43                                                 text43       000000
__Htext44                                                 text44       000000
__Htext45                                                 text45       000000
__Htext46                                                 text46       000000
__Htext47                                                 text47       000000
__Htext48                                                 text48       000000
__Htext49                                                 text49       000000
__Htext5                                                  text5        000000
__Htext50                                                 text50       000000
__Htext51                                                 text51       000000
__Htext52                                                 text52       000000
__Htext53                                                 text53       000000
__Htext54                                                 text54       000000
__Htext55                                                 text55       000000
__Htext56                                                 text56       000000
__Htext57                                                 text57       000000
__Htext58                                                 text58       000000
__Htext59                                                 text59       000000
__Htext6                                                  text6        000000
__Htext60                                                 text60       000000
__Htext61                                                 text61       000000
__Htext62                                                 text62       000000
__Htext63                                                 text63       000000
__Htext64                                                 text64       000000
__Htext65                                                 text65       000000
__Htext66                                                 text66       000000
__Htext67                                                 text67       000000
__Htext68                                                 text68       000000
__Htext69                                                 text69       000000
__Htext7                                                  text7        000000
__Htext70                                                 text70       000000
__Htext71                                                 text71       000000
__Htext72                                                 text72       000000
__Htext73                                                 text73       000000
__Htext74                                                 text74       000000
__Htext75                                                 text75       000000
__Htext76                                                 text76       000000
__Htext77                                                 text77       000000
__Htext78                                                 text78       000000
__Htext79                                                 text79       000000
__Htext8                                                  text8        000000
__Htext80                                                 text80       000000
__Htext81                                                 text81       000000
__Htext82                                                 text82       000000
__Htext83                                                 text83       000000
__Htext84                                                 text84       000000
__Htext85                                                 text85       000000
__Htext86                                                 text86       000000
__Htext87                                                 text87       000000
__Htext88                                                 text88       000000
__Htext89                                                 text89       000000
__Htext9                                                  text9        000000
__Htext90                                                 text90       000000
__Htext91                                                 text91       000000
__Htext92                                                 text92       000000
__Htext93                                                 text93       000000
__Htext94                                                 text94       000000
__Htext95                                                 text95       000000
__Htext96                                                 text96       000000
__Htext97                                                 text97       000000
__Htext98                                                 text98       000000
__Htext99                                                 text99       000000
__LRAM                                                    (abs)        000001
__Labs1                                                   abs1         000000
__Lbank0                                                  bank0        000000
__Lbank1                                                  bank1        000000
__Lbank10                                                 bank10       000000
__Lbank11                                                 bank11       000000
__Lbank12                                                 bank12       000000
__Lbank13                                                 bank13       000000
__Lbank14                                                 bank14       000000
__Lbank2                                                  bank2        000000
__Lbank3                                                  bank3        000000
__Lbank4                                                  bank4        000000
__Lbank5                                                  bank5        000000
__Lbank6                                                  bank6        000000
__Lbank7                                                  bank7        000000
__Lbank8                                                  bank8        000000
__Lbank9                                                  bank9        000000
__Lbigbss                                                 bigbss       000000
__Lbigdata                                                bigdata      000000
__Lbigram                                                 bigram       000000
__Lbigsfr                                                 bigsfr       000000
__Lbss                                                    bss          000000
__LbssBANK0                                               bssBANK0     000000
__LbssBANK1                                               bssBANK1     000000
__LbssBANK2                                               bssBANK2     000000
__LbssBANK3                                               bssBANK3     000000
__LbssCOMRAM                                              bssCOMRAM    000000
__Lcinit                                                  cinit        000000
__Lclrtext                                                clrtext      000000
__Lcomram                                                 comram       000000
__Lconfig                                                 config       000000
__Lconst                                                  const        000000
__LcstackBANK0                                            cstackBANK0  000000
__LcstackCOMRAM                                           cstackCOMRAM 000000
__Ldata                                                   data         000000
__LdataBANK0                                              dataBANK0    000000
__LdataBANK1                                              dataBANK1    000000
__LdataBANK2                                              dataBANK2    000000
__LdataBANK3                                              dataBANK3    000000
__Leeprom_data                                            eeprom_data  000000
__Lfarbss                                                 farbss       000000
__Lfardata                                                fardata      000000
__Lheap                                                   heap         000000
__Libigdata                                               ibigdata     000000
__Lidata                                                  idata        000000
__LidataBANK0                                             idataBANK0   000000
__LidataBANK1                                             idataBANK1   000000
__LidataBANK2                                             idataBANK2   000000
__LidataBANK3                                             idataBANK3   000000
__Lidloc                                                  idloc        000000
__Lifardata                                               ifardata     000000
__Linit                                                   init         00009C
__Lintcode                                                intcode      000008
__Lintcode_body                                           intcode_body 000000
__Lintcodelo                                              intcodelo    00009C
__Lintentry                                               intentry     000000
__Lintret                                                 intret       000000
__Lintsave_regs                                           intsave_regs 000000
__Lirdata                                                 irdata       000000
__Lmediumconst                                            mediumconst  000000
__LnvBANK1                                                nvBANK1      000000
__LnvBANK2                                                nvBANK2      000000
__LnvFARRAM                                               nvFARRAM     000000
__Lnvbit                                                  nvbit        000000
__Lnvrram                                                 nvrram       000000
__Lparam                                                  rparam       000000
__Lpowerup                                                powerup      00009C
__Lram                                                    ram          000000
__Lramtop                                                 ramtop       000F00
__Lrbit                                                   rbit         000000
__Lrbss                                                   rbss         000000
__Lrdata                                                  rdata        000000
__Lreset_vec                                              reset_vec    000000
__Lrparam                                                 rparam       000000
__Lsfr                                                    sfr          000000
__Lsmallconst                                             smallconst   000F00
__Lspace_0                                                (abs)        000000
__Lspace_1                                                (abs)        000000
__Lspace_2                                                (abs)        000000
__Lspace_4                                                (abs)        000000
__Lstack                                                  stack        000000
__Lstruct                                                 struct       000000
__Ltemp                                                   temp         000050
__Ltext                                                   text         000000
__Ltext0                                                  text0        000000
__Ltext1                                                  text1        000000
__Ltext10                                                 text10       000000
__Ltext100                                                text100      000000
__Ltext101                                                text101      000000
__Ltext102                                                text102      000000
__Ltext103                                                text103      000000
__Ltext104                                                text104      000000
__Ltext105                                                text105      000000
__Ltext106                                                text106      000000
__Ltext107                                                text107      000000
__Ltext108                                                text108      000000
__Ltext109                                                text109      000000
__Ltext11                                                 text11       000000
__Ltext110                                                text110      000000
__Ltext111                                                text111      000000
__Ltext112                                                text112      000000
__Ltext113                                                text113      000000
__Ltext114                                                text114      000000
__Ltext115                                                text115      000000
__Ltext116                                                text116      000000
__Ltext117                                                text117      000000
__Ltext118                                                text118      000000
__Ltext119                                                text119      000000
__Ltext12                                                 text12       000000
__Ltext120                                                text120      000000
__Ltext121                                                text121      000000
__Ltext122                                                text122      000000
__Ltext123                                                text123      000000
__Ltext124                                                text124      000000
__Ltext125                                                text125      000000
__Ltext126                                                text126      000000
__Ltext127                                                text127      000000
__Ltext128                                                text128      000000
__Ltext129                                                text129      000000
__Ltext13                                                 text13       000000
__Ltext130                                                text130      000000
__Ltext131                                                text131      000000
__Ltext132                                                text132      000000
__Ltext133                                                text133      000000
__Ltext134                                                text134      000000
__Ltext135                                                text135      000000
__Ltext136                                                text136      000000
__Ltext137                                                text137      000000
__Ltext138                                                text138      000000
__Ltext139                                                text139      000000
__Ltext14                                                 text14       000000
__Ltext140                                                text140      000000
__Ltext141                                                text141      000000
__Ltext142                                                text142      000000
__Ltext143                                                text143      000000
__Ltext144                                                text144      000000
__Ltext145                                                text145      000000
__Ltext146                                                text146      000000
__Ltext147                                                text147      000000
__Ltext148                                                text148      000000
__Ltext149                                                text149      000000
__Ltext15                                                 text15       000000
__Ltext150                                                text150      000000
__Ltext151                                                text151      000000
__Ltext152                                                text152      000000
__Ltext153                                                text153      000000
__Ltext154                                                text154      000000
__Ltext155                                                text155      000000
__Ltext156                                                text156      000000
__Ltext157                                                text157      000000
__Ltext158                                                text158      000000
__Ltext159                                                text159      000000
__Ltext16                                                 text16       000000
__Ltext160                                                text160      000000
__Ltext161                                                text161      000000
__Ltext162                                                text162      000000
__Ltext163                                                text163      000000
__Ltext164                                                text164      000000
__Ltext165                                                text165      000000
__Ltext166                                                text166      000000
__Ltext167                                                text167      000000
__Ltext168                                                text168      000000
__Ltext169                                                text169      000000
__Ltext17                                                 text17       000000
__Ltext170                                                text170      000000
__Ltext171                                                text171      000000
__Ltext172                                                text172      000000
__Ltext173                                                text173      000000
__Ltext174                                                text174      000000
__Ltext175                                                text175      000000
__Ltext176                                                text176      000000
__Ltext177                                                text177      000000
__Ltext178                                                text178      000000
__Ltext179                                                text179      000000
__Ltext18                                                 text18       000000
__Ltext180                                                text180      000000
__Ltext181                                                text181      000000
__Ltext182                                                text182      000000
__Ltext183                                                text183      000000
__Ltext184                                                text184      000000
__Ltext186                                                text186      000000
__Ltext187                                                text187      000000
__Ltext188                                                text188      000000
__Ltext189                                                text189      000000
__Ltext19                                                 text19       000000
__Ltext190                                                text190      000000
__Ltext191                                                text191      000000
__Ltext192                                                text192      000000
__Ltext193                                                text193      000000
__Ltext194                                                text194      000000
__Ltext195                                                text195      000000
__Ltext196                                                text196      000000
__Ltext197                                                text197      000000
__Ltext198                                                text198      000000
__Ltext199                                                text199      000000
__Ltext2                                                  text2        000000
__Ltext20                                                 text20       000000
__Ltext200                                                text200      000000
__Ltext201                                                text201      000000
__Ltext202                                                text202      000000
__Ltext203                                                text203      000000
__Ltext204                                                text204      000000
__Ltext205                                                text205      000000
__Ltext206                                                text206      000000
__Ltext207                                                text207      000000
__Ltext208                                                text208      000000
__Ltext209                                                text209      000000
__Ltext21                                                 text21       000000
__Ltext22                                                 text22       000000
__Ltext23                                                 text23       000000
__Ltext24                                                 text24       000000
__Ltext25                                                 text25       000000
__Ltext26                                                 text26       000000
__Ltext27                                                 text27       000000
__Ltext28                                                 text28       000000
__Ltext29                                                 text29       000000
__Ltext3                                                  text3        000000
__Ltext30                                                 text30       000000
__Ltext31                                                 text31       000000
__Ltext32                                                 text32       000000
__Ltext33                                                 text33       000000
__Ltext34                                                 text34       000000
__Ltext35                                                 text35       000000
__Ltext36                                                 text36       000000
__Ltext37                                                 text37       000000
__Ltext38                                                 text38       000000
__Ltext39                                                 text39       000000
__Ltext4                                                  text4        000000
__Ltext40                                                 text40       000000
__Ltext41                                                 text41       000000
__Ltext42                                                 text42       000000
__Ltext43                                                 text43       000000
__Ltext44                                                 text44       000000
__Ltext45                                                 text45       000000
__Ltext46                                                 text46       000000
__Ltext47                                                 text47       000000
__Ltext48                                                 text48       000000
__Ltext49                                                 text49       000000
__Ltext5                                                  text5        000000
__Ltext50                                                 text50       000000
__Ltext51                                                 text51       000000
__Ltext52                                                 text52       000000
__Ltext53                                                 text53       000000
__Ltext54                                                 text54       000000
__Ltext55                                                 text55       000000
__Ltext56                                                 text56       000000
__Ltext57                                                 text57       000000
__Ltext58                                                 text58       000000
__Ltext59                                                 text59       000000
__Ltext6                                                  text6        000000
__Ltext60                                                 text60       000000
__Ltext61                                                 text61       000000
__Ltext62                                                 text62       000000
__Ltext63                                                 text63       000000
__Ltext64                                                 text64       000000
__Ltext65                                                 text65       000000
__Ltext66                                                 text66       000000
__Ltext67                                                 text67       000000
__Ltext68                                                 text68       000000
__Ltext69                                                 text69       000000
__Ltext7                                                  text7        000000
__Ltext70                                                 text70       000000
__Ltext71                                                 text71       000000
__Ltext72                                                 text72       000000
__Ltext73                                                 text73       000000
__Ltext74                                                 text74       000000
__Ltext75                                                 text75       000000
__Ltext76                                                 text76       000000
__Ltext77                                                 text77       000000
__Ltext78                                                 text78       000000
__Ltext79                                                 text79       000000
__Ltext8                                                  text8        000000
__Ltext80                                                 text80       000000
__Ltext81                                                 text81       000000
__Ltext82                                                 text82       000000
__Ltext83                                                 text83       000000
__Ltext84                                                 text84       000000
__Ltext85                                                 text85       000000
__Ltext86                                                 text86       000000
__Ltext87                                                 text87       000000
__Ltext88                                                 text88       000000
__Ltext89                                                 text89       000000
__Ltext9                                                  text9        000000
__Ltext90                                                 text90       000000
__Ltext91                                                 text91       000000
__Ltext92                                                 text92       000000
__Ltext93                                                 text93       000000
__Ltext94                                                 text94       000000
__Ltext95                                                 text95       000000
__Ltext96                                                 text96       000000
__Ltext97                                                 text97       000000
__Ltext98                                                 text98       000000
__Ltext99                                                 text99       000000
__S0                                                      (abs)        009524
__S1                                                      (abs)        0003F7
__S4                                                      (abs)        000000
__S5                                                      (abs)        000000
___awdiv                                                  text13       007B22
___awdiv@counter                                          cstackCOMRAM 000018
___awdiv@dividend                                         cstackCOMRAM 000014
___awdiv@divisor                                          cstackCOMRAM 000016
___awdiv@quotient                                         cstackCOMRAM 00001A
___awdiv@sign                                             cstackCOMRAM 000019
___heap_hi                                                (abs)        000000
___heap_lo                                                (abs)        000000
___inthi_sp                                               stack        000000
___intlo_sp                                               stack        000000
___lbdiv                                                  text53       008C06
___lbdiv@counter                                          cstackCOMRAM 000012
___lbdiv@dividend                                         cstackCOMRAM 000011
___lbdiv@divisor                                          cstackCOMRAM 000010
___lbdiv@quotient                                         cstackCOMRAM 000013
___lbmod                                                  text12       008FAA
___lbmod@counter                                          cstackCOMRAM 000012
___lbmod@dividend                                         cstackCOMRAM 000011
___lbmod@divisor                                          cstackCOMRAM 000010
___lbmod@rem                                              cstackCOMRAM 000013
___lldiv                                                  text18       007C2A
___lldiv@counter                                          cstackCOMRAM 00001C
___lldiv@dividend                                         cstackCOMRAM 000010
___lldiv@divisor                                          cstackCOMRAM 000014
___lldiv@quotient                                         cstackCOMRAM 000018
___lmul                                                   text38       00864C
___lmul@multiplicand                                      cstackCOMRAM 000021
___lmul@multiplier                                        cstackCOMRAM 00001D
___lmul@product                                           cstackCOMRAM 000025
___lwdiv                                                  text124      00874C
___lwdiv@counter                                          cstackCOMRAM 000016
___lwdiv@dividend                                         cstackCOMRAM 000010
___lwdiv@divisor                                          cstackCOMRAM 000012
___lwdiv@quotient                                         cstackCOMRAM 000014
___param_bank                                             (abs)        000000
___rparam_used                                            (abs)        000001
___sp                                                     stack        000000
___wmul                                                   text126      009072
___wmul@multiplicand                                      cstackCOMRAM 000012
___wmul@multiplier                                        cstackCOMRAM 000010
___wmul@product                                           cstackCOMRAM 000014
__accesstop                                               (abs)        000060
__activetblptr                                            (abs)        000003
__end_of_ADCC_GetSingleConversion                         text193      00933E
__end_of_ADCC_Initialize                                  text109      00883E
__end_of_ClearFlag_rfCMD                                  text15       0094C2
__end_of_CloseOrder                                       text34       00904C
__end_of_ControlCounterMoves                              text128      00859E
__end_of_ControlCurrent                                   text118      00628E
__end_of_ControlDecelarationFactor                        text31       00929A
__end_of_ControlInputs                                    text117      006884
__end_of_ControlLights                                    text113      003D02
__end_of_ControlMotor                                     text111      004C40
__end_of_DecCHK                                           text68       008CDE
__end_of_Decrypt                                          text64       00712E
__end_of_DecryptPacket_12BIT                              text69       0078FA
__end_of_EUSART1_DefaultErrorHandler                      text207      0094E6
__end_of_EUSART1_DefaultFramingErrorHandler               text206      009524
__end_of_EUSART1_DefaultOverrunErrorHandler               text205      0094E0
__end_of_EUSART1_Initialize                               text103      007DAA
__end_of_EUSART1_Read                                     text57       0089BA
__end_of_EUSART1_Receive_ISR                              text204      0076B4
__end_of_EUSART1_RxDataHandler                            text208      009190
__end_of_EUSART1_SetErrorHandler                          text108      009448
__end_of_EUSART1_SetFramingErrorHandler                   text107      00943E
__end_of_EUSART1_SetOverrunErrorHandler                   text106      009434
__end_of_EUSART1_SetRxInterruptHandler                    text105      00942A
__end_of_EUSART1_SetTxInterruptHandler                    text104      009420
__end_of_EUSART1_Transmit_ISR                             text203      008D10
__end_of_EUSART1_Write                                    text81       008B0A
__end_of_EUSART1_is_rx_ready                              text110      00939C
__end_of_GetMotorPower                                    text127      0071F4
__end_of_GetOpenOrder                                     text52       005608
__end_of_GetSecurityStateInClosing                        text40       007574
__end_of_GetSecurityStateInOpening                        text50       00761A
__end_of_HopCHK                                           text65       007A9C
__end_of_I2C1_CallbackReturnReset                         text163      009500
__end_of_I2C1_CallbackReturnStop                          text164      009504
__end_of_I2C1_Close                                       text181      00916E
__end_of_I2C1_DO_ADDRESS_NACK                             text140      008928
__end_of_I2C1_DO_IDLE                                     text154      009466
__end_of_I2C1_DO_RCEN                                     text149      00945C
__end_of_I2C1_DO_RESET                                    text141      009452
__end_of_I2C1_DO_RX                                       text150      007EA0
__end_of_I2C1_DO_RX_ACK                                   text144      00948E
__end_of_I2C1_DO_RX_NACK_RESTART                          text142      00947E
__end_of_I2C1_DO_RX_NACK_STOP                             text143      009486
__end_of_I2C1_DO_SEND_ADR_READ                            text153      0093D6
__end_of_I2C1_DO_SEND_ADR_WRITE                           text152      0093C8
__end_of_I2C1_DO_SEND_RESTART                             text146      00949E
__end_of_I2C1_DO_SEND_RESTART_READ                        text148      0094AE
__end_of_I2C1_DO_SEND_RESTART_WRITE                       text147      0094A6
__end_of_I2C1_DO_SEND_STOP                                text145      009496
__end_of_I2C1_DO_TX                                       text151      007A12
__end_of_I2C1_DO_TX_EMPTY                                 text155      008430
__end_of_I2C1_Initialize                                  text102      00937A
__end_of_I2C1_MasterClearIrq                              text184      0094DA
__end_of_I2C1_MasterClose                                 text183      009518
__end_of_I2C1_MasterDisableIrq                            text182      009514
__end_of_I2C1_MasterEnableRestart                         text179      00950C
__end_of_I2C1_MasterFsm                                   text139      00874C
__end_of_I2C1_MasterGetRxData                             text160      0094F8
__end_of_I2C1_MasterIsNack                                text157      0093E2
__end_of_I2C1_MasterOpen                                  text134      0092FA
__end_of_I2C1_MasterOperation                             text136      008E4A
__end_of_I2C1_MasterSendAck                               text159      0094CE
__end_of_I2C1_MasterSendNack                              text161      0094D4
__end_of_I2C1_MasterSendTxData                            text158      0094B6
__end_of_I2C1_MasterSetIrq                                text156      0094C8
__end_of_I2C1_MasterStart                                 text180      009510
__end_of_I2C1_MasterStartRx                               text162      0094FC
__end_of_I2C1_MasterStop                                  text178      009508
__end_of_I2C1_MasterWaitForEvent                          text138      009476
__end_of_I2C1_MasterWrite                                 text135      00946E
__end_of_I2C1_Open                                        text133      007C2A
__end_of_I2C1_Poller                                      text137      0093AC
__end_of_I2C1_Read1ByteRegister                           text75       008544
__end_of_I2C1_SetAddressNackCallback                      text132      0092E2
__end_of_I2C1_SetBuffer                                   text177      009282
__end_of_I2C1_SetCallback                                 text176      008236
__end_of_I2C1_SetDataCompleteCallback                     text175      009312
__end_of_INTERRUPT_Initialize                             text101      0094F4
__end_of_INTERRUPT_InterruptManager                       intcode      00009C
__end_of_InitFullAutoTime                                 text44       00924E
__end_of_InitReceiver                                     text5        00921A
__end_of_InitSoftStart                                    text48       0084E8
__end_of_InitSoftStop                                     text30       008972
__end_of_InitWalkAutoTime                                 text49       009352
__end_of_LoadManufCode                                    text63       00912A
__end_of_NormalKeyGen                                     text62       006AA2
__end_of_OSCILLATOR_Initialize                            text100      009328
__end_of_OpenFullOrder                                    text43       009072
__end_of_OpenWalkOrder                                    text45       0081C8
__end_of_PIN_MANAGER_Initialize                           text99       00774C
__end_of_PMD_Initialize                                   text98       0091E4
__end_of_RGB_Set                                          text115      0093BA
__end_of_ReadADC                                          text192      0086F8
__end_of_RemoveSerial                                     text10       007D2C
__end_of_ReqResync                                        text67       0092B2
__end_of_ResetDefaultMemory                               text74       005F98
__end_of_SYSTEM_Initialize                                text90       008D6E
__end_of_SaveNVM_VarSystem                                text129      008C78
__end_of_Segments_Set                                     text188      0093EE
__end_of_SetSegmentValue                                  text89       009268
__end_of_SetSegmentValueIntermitent                       text51       008D9A
__end_of_SetSegmentValueIntermitentMain                   text54       009366
__end_of_SetSegmentValueLearn                             text17       006DA4
__end_of_SetSegmentValueMain                              text14       009234
__end_of_ShowVersion                                      text88       008370
__end_of_StopOrder                                        text39       0091AC
__end_of_TMR0_DefaultInterruptHandler                     text202      009522
__end_of_TMR0_ISR                                         text200      0090BE
__end_of_TMR0_Initialize                                  text96       00914C
__end_of_TMR0_SetInterruptHandler                         text97       009416
__end_of_TMR1_DefaultInterruptHandler                     text199      009520
__end_of_TMR1_ISR                                         text194      008BCA
__end_of_TMR1_Initialize                                  text94       008ACA
__end_of_TMR1_SetInterruptHandler                         text95       00940C
__end_of_TMR1_WriteTimer                                  text198      009200
__end_of_TMR2_DefaultInterruptHandler                     text191      00951E
__end_of_TMR2_ISR                                         text186      0063DC
__end_of_TMR2_Initialize                                  text92       008E1E
__end_of_TMR2_SetInterruptHandler                         text93       009402
__end_of_VerifyElectricalBrake                            text112      007F18
__end_of_VerifyFollowMe                                   text33       009108
__end_of_WWDT_Initialize                                  text91       0093F8
__end_of_WWDT_SoftEnable                                  text87       0094F0
__end_of_WWDT_TimerClear                                  text86       0091C8
__end_of_WaitPreFlash                                     text42       00815A
__end_of___awdiv                                          text13       007BA6
__end_of___lbdiv                                          text53       008C40
__end_of___lbmod                                          text12       008FD4
__end_of___lldiv                                          text18       007CAC
__end_of___lmul                                           text38       0086A2
__end_of___lwdiv                                          text124      00879E
__end_of___wmul                                           text126      009098
__end_of__initialization                                  cinit        007366
__end_of_actionZone_Closed                                text41       0074CE
__end_of_actionZone_Closing                               text35       00452C
__end_of_actionZone_Opened                                text32       00526E
__end_of_actionZone_Opening                               text26       0049F6
__end_of_calculateMean                                    text25       0083D2
__end_of_checkNVM_VarSystem                               text73       0057A8
__end_of_clearLearningValue                               text24       007E26
__end_of_cmdMemoryIsEmpty                                 text84       0077DE
__end_of_confirmpackage                                   text82       0088DA
__end_of_controlLearnDigit                                text16       008D40
__end_of_controlMotorForce                                text195      004E62
__end_of_controlSaveRemote                                text11       007424
__end_of_controlSelectRemote                              text6        003694
__end_of_controlTimeslots                                 text189      005C78
__end_of_controlVelocity                                  text28       005080
__end_of_decrementTimeslot                                text190      008FFE
__end_of_eusartparser                                     text77       0042A0
__end_of_generateErrorLearnig                             text21       00830A
__end_of_getCurrentComparator                             text125      005ADE
__end_of_getHopCode                                       text66       00650A
__end_of_getKeyPressed                                    text76       0092CA
__end_of_getSerialCmd                                     text9        00888C
__end_of_getStateOpenPosition                             text29       006994
__end_of_getTimeDecelaration                              text37       006F86
__end_of_getTypeRemote                                    text8        0094BC
__end_of_i2c1_fsmStateTable                               smallconst   000F21
__end_of_i2c_readDataBlock                                text85       008006
__end_of_i2c_writeNBytes                                  text130      00807A
__end_of_init_package                                     text83       008DF2
__end_of_keeloqDecryptPacket                              text59       005440
__end_of_keeloq_classic_decrypt_packet                    text61       0085F6
__end_of_loadNVM_VarSystem                                text72       006638
__end_of_load_New_Menu                                    text4        003FF8
__end_of_main                                             text0        00611A
__end_of_memcpy                                           text131      008A88
__end_of_rd1RegCompleteHandler                            text172      008F52
__end_of_rd1RegCompleteHandler@i2c1_master_example$F500   text168      008ECE
__end_of_rd2RegCompleteHandler                            text171      008F26
__end_of_rd2RegCompleteHandler@i2c1_master_example$F511   text167      008EA2
__end_of_rdBlkRegCompleteHandler                          text169      008B8A
__end_of_rdBlkRegCompleteHandler@i2c1_master_example$F535 text165      008B4A
__end_of_readInputs                                       text71       006BAA
__end_of_readRFButtons                                    text58       005E0E
__end_of_read_eusartparser                                text79       002EB0
__end_of_read_package                                     text56       0087EE
__end_of_readbutton                                       text55       0082A2
__end_of_refreshADCZeroOffset                             text123      006CA8
__end_of_refreshCurrent                                   text119      008A00
__end_of_refreshSegment                                   text187      007B22
__end_of_rxi                                              text201      0047A2
__end_of_saveEnergyADCHist                                text122      009026
__end_of_saveNewSerial                                    text7        0080EA
__end_of_setFlashLigth_ON                                 text116      008C06
__end_of_setPositionInvertionInClosing                    text36       006760
__end_of_setPositionInvertionInOpening                    text27       007062
__end_of_setRGB_ON                                        text114      00786E
__end_of_setValueToEdit                                   text3        0024A0
__end_of_sm_execute_ControlGate                           text19       0039DE
__end_of_sm_execute_ControlLearning                       text20       001F94
__end_of_sm_execute_main                                  text1        0029A8
__end_of_sm_execute_menuConfiguration                     text2        001886
__end_of_sm_get_current_state                             text47       00938C
__end_of_sm_init                                          text22       00864C
__end_of_sm_restart                                       text23       008A44
__end_of_sm_send_event                                    text46       00848C
__end_of_sumEnergyADC                                     text121      007986
__end_of_sumHIST                                          text120      006E9E
__end_of_validateRemoteSerialNumber                       text70       005944
__end_of_verifyProgramingMode                             text60       008CAC
__end_of_wr1RegCompleteHandler                            text173      008F7E
__end_of_wr1RegCompleteHandler@i2c1_master_example$F517   text166      008E76
__end_of_wr2RegCompleteHandler                            text170      008EFA
__end_of_wr2RegCompleteHandler@i2c1_master_example$F523   text174      008FAA
__end_of_write_eusartparser                               text78       0032D4
__end_of_write_package                                    text80       008DC6
__end_ofi2_GetMotorPower                                  text197      0072BA
__end_ofi2_VerifyElectricalBrake                          text196      007F90
__initialization                                          cinit        0072BA
__mediumconst                                             mediumconst  000000
__pbssBANK0                                               bssBANK0     000060
__pbssBANK1                                               bssBANK1     000100
__pbssBANK2                                               bssBANK2     000200
__pbssBANK3                                               bssBANK3     000300
__pbssCOMRAM                                              bssCOMRAM    00003B
__pcinit                                                  cinit        0072BA
__pcstackBANK0                                            cstackBANK0  0000D8
__pcstackCOMRAM                                           cstackCOMRAM 000001
__pdataBANK0                                              dataBANK0    0000F8
__pdataBANK1                                              dataBANK1    0001F9
__pdataBANK2                                              dataBANK2    0002EF
__pdataBANK3                                              dataBANK3    0003D2
__pidataBANK0                                             idataBANK0   009518
__pidataBANK1                                             idataBANK1   0094E6
__pidataBANK2                                             idataBANK2   00951A
__pidataBANK3                                             idataBANK3   0090BE
__pintcode                                                intcode      000008
__pnvBANK1                                                nvBANK1      0001FE
__pnvBANK2                                                nvBANK2      0002DD
__psmallconst                                             smallconst   000F00
__ptext0                                                  text0        005F98
__ptext1                                                  text1        0024A0
__ptext10                                                 text10       007CAC
__ptext100                                                text100      009312
__ptext101                                                text101      0094F0
__ptext102                                                text102      009366
__ptext103                                                text103      007D2C
__ptext104                                                text104      009416
__ptext105                                                text105      009420
__ptext106                                                text106      00942A
__ptext107                                                text107      009434
__ptext108                                                text108      00943E
__ptext109                                                text109      0087EE
__ptext11                                                 text11       007370
__ptext110                                                text110      00938C
__ptext111                                                text111      0049F6
__ptext112                                                text112      007EA0
__ptext113                                                text113      0039DE
__ptext114                                                text114      0077DE
__ptext115                                                text115      0093AC
__ptext116                                                text116      008BCA
__ptext117                                                text117      006760
__ptext118                                                text118      00611A
__ptext119                                                text119      0089BA
__ptext12                                                 text12       008FAA
__ptext120                                                text120      006DA4
__ptext121                                                text121      0078FA
__ptext122                                                text122      008FFE
__ptext123                                                text123      006BAA
__ptext124                                                text124      00874C
__ptext125                                                text125      005944
__ptext126                                                text126      009072
__ptext127                                                text127      00712E
__ptext128                                                text128      008544
__ptext129                                                text129      008C40
__ptext13                                                 text13       007B22
__ptext130                                                text130      008006
__ptext131                                                text131      008A44
__ptext132                                                text132      0092CA
__ptext133                                                text133      007BA6
__ptext134                                                text134      0092E2
__ptext135                                                text135      009466
__ptext136                                                text136      008E1E
__ptext137                                                text137      00939C
__ptext138                                                text138      00946E
__ptext139                                                text139      0086F8
__ptext14                                                 text14       00921A
__ptext140                                                text140      0088DA
__ptext141                                                text141      009448
__ptext142                                                text142      009476
__ptext143                                                text143      00947E
__ptext144                                                text144      009486
__ptext145                                                text145      00948E
__ptext146                                                text146      009496
__ptext147                                                text147      00949E
__ptext148                                                text148      0094A6
__ptext149                                                text149      009452
__ptext15                                                 text15       0094BC
__ptext150                                                text150      007E26
__ptext151                                                text151      007986
__ptext152                                                text152      0093BA
__ptext153                                                text153      0093C8
__ptext154                                                text154      00945C
__ptext155                                                text155      0083D2
__ptext156                                                text156      0094C2
__ptext157                                                text157      0093D6
__ptext158                                                text158      0094AE
__ptext159                                                text159      0094C8
__ptext16                                                 text16       008D10
__ptext160                                                text160      0094F4
__ptext161                                                text161      0094CE
__ptext162                                                text162      0094F8
__ptext163                                                text163      0094FC
__ptext164                                                text164      009500
__ptext165                                                text165      008B0A
__ptext166                                                text166      008E4A
__ptext167                                                text167      008E76
__ptext168                                                text168      008EA2
__ptext169                                                text169      008B4A
__ptext17                                                 text17       006CA8
__ptext170                                                text170      008ECE
__ptext171                                                text171      008EFA
__ptext172                                                text172      008F26
__ptext173                                                text173      008F52
__ptext174                                                text174      008F7E
__ptext175                                                text175      0092FA
__ptext176                                                text176      0081C8
__ptext177                                                text177      009268
__ptext178                                                text178      009504
__ptext179                                                text179      009508
__ptext18                                                 text18       007C2A
__ptext180                                                text180      00950C
__ptext181                                                text181      00914C
__ptext182                                                text182      009510
__ptext183                                                text183      009514
__ptext184                                                text184      0094D4
__ptext186                                                text186      00628E
__ptext187                                                text187      007A9C
__ptext188                                                text188      0093E2
__ptext189                                                text189      005ADE
__ptext19                                                 text19       003694
__ptext190                                                text190      008FD4
__ptext191                                                text191      00951C
__ptext192                                                text192      0086A2
__ptext193                                                text193      009328
__ptext194                                                text194      008B8A
__ptext195                                                text195      004C40
__ptext196                                                text196      007F18
__ptext197                                                text197      0071F4
__ptext198                                                text198      0091E4
__ptext199                                                text199      00951E
__ptext2                                                  text2        000F22
__ptext20                                                 text20       001886
__ptext200                                                text200      009098
__ptext201                                                text201      00452C
__ptext202                                                text202      009520
__ptext203                                                text203      008CDE
__ptext204                                                text204      00761A
__ptext205                                                text205      0094DA
__ptext206                                                text206      009522
__ptext207                                                text207      0094E0
__ptext208                                                text208      00916E
__ptext209                                                text209      000000
__ptext21                                                 text21       0082A2
__ptext22                                                 text22       0085F6
__ptext23                                                 text23       008A00
__ptext24                                                 text24       007DAA
__ptext25                                                 text25       008370
__ptext26                                                 text26       0047A2
__ptext27                                                 text27       006F86
__ptext28                                                 text28       004E62
__ptext29                                                 text29       006884
__ptext3                                                  text3        001F94
__ptext30                                                 text30       008928
__ptext31                                                 text31       009282
__ptext32                                                 text32       005080
__ptext33                                                 text33       0090E4
__ptext34                                                 text34       009026
__ptext35                                                 text35       0042A0
__ptext36                                                 text36       006638
__ptext37                                                 text37       006E9E
__ptext38                                                 text38       00864C
__ptext39                                                 text39       009190
__ptext4                                                  text4        003D02
__ptext40                                                 text40       0074CE
__ptext41                                                 text41       007424
__ptext42                                                 text42       0080EA
__ptext43                                                 text43       00904C
__ptext44                                                 text44       009234
__ptext45                                                 text45       00815A
__ptext46                                                 text46       008430
__ptext47                                                 text47       00937A
__ptext48                                                 text48       00848C
__ptext49                                                 text49       00933E
__ptext5                                                  text5        009200
__ptext50                                                 text50       007574
__ptext51                                                 text51       008D6E
__ptext52                                                 text52       005440
__ptext53                                                 text53       008C06
__ptext54                                                 text54       009352
__ptext55                                                 text55       008236
__ptext56                                                 text56       00879E
__ptext57                                                 text57       008972
__ptext58                                                 text58       005C78
__ptext59                                                 text59       00526E
__ptext6                                                  text6        0032D4
__ptext60                                                 text60       008C78
__ptext61                                                 text61       00859E
__ptext62                                                 text62       006994
__ptext63                                                 text63       009108
__ptext64                                                 text64       007062
__ptext65                                                 text65       007A12
__ptext66                                                 text66       0063DC
__ptext67                                                 text67       00929A
__ptext68                                                 text68       008CAC
__ptext69                                                 text69       00786E
__ptext7                                                  text7        00807A
__ptext70                                                 text70       0057A8
__ptext71                                                 text71       006AA2
__ptext72                                                 text72       00650A
__ptext73                                                 text73       005608
__ptext74                                                 text74       005E0E
__ptext75                                                 text75       0084E8
__ptext76                                                 text76       0092B2
__ptext77                                                 text77       003FF8
__ptext78                                                 text78       002EB0
__ptext79                                                 text79       0029A8
__ptext8                                                  text8        0094B6
__ptext80                                                 text80       008D9A
__ptext81                                                 text81       008ACA
__ptext82                                                 text82       00888C
__ptext83                                                 text83       008DC6
__ptext84                                                 text84       00774C
__ptext85                                                 text85       007F90
__ptext86                                                 text86       0091AC
__ptext87                                                 text87       0094EC
__ptext88                                                 text88       00830A
__ptext89                                                 text89       00924E
__ptext9                                                  text9        00883E
__ptext90                                                 text90       008D40
__ptext91                                                 text91       0093EE
__ptext92                                                 text92       008DF2
__ptext93                                                 text93       0093F8
__ptext94                                                 text94       008A88
__ptext95                                                 text95       009402
__ptext96                                                 text96       00912A
__ptext97                                                 text97       00940C
__ptext98                                                 text98       0091C8
__ptext99                                                 text99       0076B4
__ramtop                                                  ramtop       000F00
__smallconst                                              smallconst   000F00
_actionZone_Closed                                        text41       007424
_actionZone_Closing                                       text35       0042A0
_actionZone_Opened                                        text32       005080
_actionZone_Opening                                       text26       0047A2
_auxCounter                                               dataBANK0    0000F8
_aux_i                                                    bssBANK1     00018C
_aux_in_auto_close                                        bssBANK1     00018B
_brakeElectric_st                                         bssBANK0     000078
_button_struct                                            bssCOMRAM    00004C
_calculateMean                                            text25       008370
_checkNVM_VarSystem                                       text73       005608
_classic_data                                             bssBANK2     000292
_clearLearningValue                                       text24       007DAA
_cmdMemoryIsEmpty                                         text84       00774C
_confirmpackage                                           text82       00888C
_controlGate_stateMachine                                 bssBANK1     0001E2
_controlLearnDigit                                        text16       008D10
_controlLearning_stateMachine                             bssBANK2     0002B2
_controlMotorForce                                        text195      004C40
_controlSaveRemote                                        text11       007370
_controlSelectRemote                                      text6        0032D4
_controlTimeslots                                         text189      005ADE
_controlVelocity                                          text28       004E62
_control_limit_switch                                     bssBANK0     000081
_decrementTimeslot                                        text190      008FD4
_difTime                                                  bssBANK1     00018F
_dispStruct                                               bssBANK0     000072
_edit_Param                                               bssCOMRAM    000046
_erroranterior                                            bssBANK1     000189
_eusart1RxBuffer                                          bssBANK2     00027C
_eusart1RxCount                                           bssBANK0     000093
_eusart1RxHead                                            bssBANK0     000095
_eusart1RxLastError                                       bssBANK1     000199
_eusart1RxStatusBuffer                                    bssBANK2     000274
_eusart1RxTail                                            bssBANK0     000094
_eusart1TxBuffer                                          bssBANK2     000284
_eusart1TxBufferRemaining                                 nvBANK1      0001FE
_eusart1TxHead                                            bssBANK0     000097
_eusart1TxTail                                            bssBANK0     000096
_eusartparser                                             text77       003FF8
_fimdecurso                                               bssBANK1     000175
_firstselectflag                                          dataBANK1    0001FD
_fullmotorPower                                           bssBANK0     000082
_generateErrorLearnig                                     text21       0082A2
_getCurrentComparator                                     text125      005944
_getHopCode                                               text66       0063DC
_getKeyPressed                                            text76       0092B2
_getSerialCmd                                             text9        00883E
_getStateOpenPosition                                     text29       006884
_getTimeDecelaration                                      text37       006E9E
_getTypeRemote                                            text8        0094B6
_i2c1_fsmStateTable                                       smallconst   000F01
_i2c_readDataBlock                                        text85       007F90
_i2c_writeNBytes                                          text130      008006
_idxAdcAquisition                                         bssBANK0     000091
_idxAdcZeroAquisition                                     bssBANK0     00008F
_idxSaveEnergyADCHist                                     bssBANK0     000090
_init_package                                             text83       008DC6
_keeloqDecryptPacket                                      text59       00526E
_keeloq_classic_decrypt_packet                            text61       00859E
_lastKey                                                  bssBANK1     000194
_learn_st                                                 bssBANK0     000060
_listSyncValues                                           bssBANK3     000300
_loadNVM_VarSystem                                        text72       00650A
_load_New_Menu                                            text4        003D02
_main                                                     text0        005F98
_main_stateMachine                                        bssBANK1     0001ED
_memcpy                                                   text131      008A44
_memoryTEMP                                               bssBANK2     0002A2
_menuConfiguration_stateMachine                           bssBANK2     0002BD
_menu_st                                                  bssBANK1     000151
_numberOfErrorCurrent                                     bssBANK0     00008E
_pointSync                                                bssBANK0     00007A
_powerControl_st                                          bssBANK1     00017B
_programmer_enable                                        bssBANK0     000085
_rd1RegCompleteHandler                                    text172      008F26
_rd1RegCompleteHandler@i2c1_master_example$F500           text168      008EA2
_rd2RegCompleteHandler                                    text171      008EFA
_rd2RegCompleteHandler@i2c1_master_example$F511           text167      008E76
_rdBlkRegCompleteHandler                                  text169      008B4A
_rdBlkRegCompleteHandler@i2c1_master_example$F535         text165      008B0A
_readInputs                                               text71       006AA2
_readRFButtons                                            text58       005C78
_read_eusartparser                                        text79       0029A8
_read_package                                             text56       00879E
_readbutton                                               text55       008236
_refreshADCZeroOffset                                     text123      006BAA
_refreshCurrent                                           text119      0089BA
_refreshSegment                                           text187      007A9C
_rfCMD                                                    bssCOMRAM    00003B
_rxi                                                      text201      00452C
_saveEnergyADCHist                                        text122      008FFE
_saveNewSerial                                            text7        00807A
_security                                                 bssBANK1     00016A
_setFlashLigth_ON                                         text116      008BCA
_setPositionInvertionInClosing                            text36       006638
_setPositionInvertionInOpening                            text27       006F86
_setRGB_ON                                                text114      0077DE
_setValueToEdit                                           text3        001F94
_sm_execute_ControlGate                                   text19       003694
_sm_execute_ControlLearning                               text20       001886
_sm_execute_main                                          text1        0024A0
_sm_execute_menuConfiguration                             text2        000F22
_sm_get_current_state                                     text47       00937A
_sm_init                                                  text22       0085F6
_sm_restart                                               text23       008A00
_sm_send_event                                            text46       008430
_stateMotor                                               bssBANK0     000083
_sumEnergyADC                                             text121      0078FA
_sumHIST                                                  text120      006DA4
_temp                                                     bssBANK0     000080
_tempCounter                                              dataBANK1    0001F9
_temppower                                                bssBANK1     00018E
_timer0ReloadVal16bit                                     bssBANK2     000290
_timer1ReloadVal                                          nvBANK2      0002E1
_ts_system                                                bssBANK1     00019A
_validateRemoteSerialNumber                               text70       0057A8
_var_sys                                                  bssBANK1     000100
_var_sys_NVM                                              bssBANK0     000098
_verifyProgramingMode                                     text60       008C78
_waitZeroPeak                                             bssBANK1     000191
_wr1RegCompleteHandler                                    text173      008F52
_wr1RegCompleteHandler@i2c1_master_example$F517           text166      008E4A
_wr2RegCompleteHandler                                    text170      008ECE
_wr2RegCompleteHandler@i2c1_master_example$F523           text174      008F7E
_write_eusartparser                                       text78       002EB0
_write_package                                            text80       008D9A
_zeroCrossing                                             bssBANK1     000192
_zeroCrossingLength                                       bssBANK1     000193
_zeroCrossingWaitTime                                     dataBANK2    0002EF
_zeroCrossingWaitTimeIdx                                  bssBANK0     000084
actionZone_Closed@securityOpening                         cstackCOMRAM 000020
actionZone_Closed@typeOpenOrder                           cstackCOMRAM 000021
actionZone_Closing@securityClosing                        cstackCOMRAM 000032
actionZone_Closing@typeOpenOrder                          cstackCOMRAM 000033
actionZone_Opened@securityClosing                         cstackCOMRAM 000020
actionZone_Opened@typeOpenOrder                           cstackCOMRAM 000021
actionZone_Opening@securityClosing                        cstackBANK0  0000E4
actionZone_Opening@securityOpening                        cstackBANK0  0000E5
actionZone_Opening@typeOpenOrder                          cstackBANK0  0000E6
btemp                                                     temp         000050
calculateMean@meanValue                                   cstackCOMRAM 000010
calculateMean@newValue                                    cstackCOMRAM 000014
checkNVM_VarSystem@saveParam                              cstackCOMRAM 00003A
cmdMemoryIsEmpty@cmdType                                  cstackCOMRAM 000031
cmdMemoryIsEmpty@position                                 cstackCOMRAM 00002E
cmdMemoryIsEmpty@tempSerial                               cstackCOMRAM 000032
confirmpackage@confirm                                    cstackCOMRAM 000012
confirmpackage@package                                    cstackCOMRAM 000011
controlSelectRemote@pos                                   cstackBANK0  0000E2
controlSelectRemote@temp                                  cstackBANK0  0000E8
controlSelectRemote@tempSerial                            cstackBANK0  0000E4
controlSelectRemote@typeRemote                            cstackBANK0  0000E3
controlSelectRemote@validSerial                           cstackBANK0  0000E1
decrementTimeslot@ts                                      cstackCOMRAM 000001
end_of_initialization                                     cinit        007366
eusartparser@i                                            cstackBANK0  0000DE
eusartparser@i_7252                                       cstackBANK0  0000DF
eusartparser@i_7253                                       cstackBANK0  0000E1
eusartparser@i_7254                                       cstackBANK0  0000E2
eusartparser@package                                      cstackCOMRAM 00003A
eusartparser@relcounter                                   cstackBANK0  0000E0
getCurrentComparator@tempOffset                           cstackCOMRAM 000020
getCurrentComparator@x                                    cstackCOMRAM 000022
getHopCode@data                                           cstackCOMRAM 000016
getHopCode@i                                              cstackCOMRAM 000023
getHopCode@tempHop                                        cstackCOMRAM 000020
getHopCode@tempPos                                        cstackCOMRAM 000022
getKeyPressed@temp                                        cstackCOMRAM 000010
getSerialCmd@serial                                       cstackCOMRAM 00001B
getSerialCmd@temp                                         cstackCOMRAM 00001C
getStateOpenPosition@state                                cstackBANK0  0000D8
getStateOpenPosition@stateMotor                           cstackBANK0  0000D9
getTimeDecelaration@state                                 cstackCOMRAM 000031
i2GetMotorPower@defineatraso                              cstackCOMRAM 000004
i2VerifyElectricalBrake@actualState                       cstackCOMRAM 000002
i2VerifyElectricalBrake@tempState                         cstackCOMRAM 000001
i2_GetMotorPower                                          text197      0071F4
i2_VerifyElectricalBrake                                  text196      007F18
i2c_readDataBlock@address                                 cstackCOMRAM 000029
i2c_readDataBlock@d                                       cstackCOMRAM 00002A
i2c_readDataBlock@data                                    cstackCOMRAM 000024
i2c_readDataBlock@len                                     cstackCOMRAM 000026
i2c_readDataBlock@reg                                     cstackCOMRAM 000022
i2c_writeNBytes@address                                   cstackCOMRAM 000039
i2c_writeNBytes@dat                                       cstackCOMRAM 000028
i2c_writeNBytes@data                                      cstackCOMRAM 000024
i2c_writeNBytes@len                                       cstackCOMRAM 000025
i2c_writeNBytes@reg                                       cstackCOMRAM 000022
init_package@package                                      cstackCOMRAM 000010
int$flags                                                 temp         000050
intlevel0                                                 text         000000
intlevel1                                                 text         000000
intlevel2                                                 text         000000
intlevel3                                                 text         000000
isa$std                                                   (abs)        000001
isa$xinst                                                 (abs)        000000
keeloqDecryptPacket@classic_data                          cstackBANK0  0000E2
keeloqDecryptPacket@commandType                           cstackBANK0  0000E9
keeloqDecryptPacket@data                                  cstackBANK0  0000E0
keeloqDecryptPacket@hop_error                             cstackBANK0  0000E8
keeloq_classic_decrypt_packet@data                        cstackCOMRAM 000038
load_New_Menu@Menu                                        cstackCOMRAM 000022
load_New_Menu@i                                           cstackCOMRAM 000023
main@package                                              cstackBANK0  0000F1
memcpy@d                                                  cstackCOMRAM 000017
memcpy@d1                                                 cstackCOMRAM 000010
memcpy@n                                                  cstackCOMRAM 000014
memcpy@s                                                  cstackCOMRAM 000019
memcpy@s1                                                 cstackCOMRAM 000012
memcpy@tmp                                                cstackCOMRAM 000016
rd1RegCompleteHandler@i2c1_master_example$F500@ptr        cstackCOMRAM 000019
rd1RegCompleteHandler@p                                   cstackCOMRAM 000019
rd2RegCompleteHandler@i2c1_master_example$F511@ptr        cstackCOMRAM 000019
rd2RegCompleteHandler@p                                   cstackCOMRAM 000019
rdBlkRegCompleteHandler@i2c1_master_example$F535@ptr      cstackCOMRAM 000019
rdBlkRegCompleteHandler@p                                 cstackCOMRAM 000019
readRFButtons@key1                                        bssBANK0     000088
readRFButtons@keyType                                     bssBANK0     000087
readRFButtons@rollingCode                                 bssBANK1     000185
readRFButtons@serial                                      bssBANK1     000181
readRFButtons@typeRemote                                  bssBANK1     000197
read_eusartparser@package                                 cstackCOMRAM 000018
read_package@package                                      cstackCOMRAM 000018
readbutton@key1                                           bssBANK0     000086
readbutton@key2                                           bssBANK1     000196
refreshADCZeroOffset@i                                    cstackCOMRAM 000017
refreshADCZeroOffset@media                                cstackCOMRAM 000018
saveEnergyADCHist@valueToSave                             cstackCOMRAM 000010
saveNewSerial@cmdType                                     cstackCOMRAM 00003A
saveNewSerial@position                                    cstackBANK0  0000DC
saveNewSerial@tempSerial                                  cstackBANK0  0000D8
setFlashLigth_ON@Freq                                     cstackCOMRAM 000010
setRGB_ON@Freq                                            cstackCOMRAM 000011
setRGB_ON@RGBLigth                                        cstackCOMRAM 000015
setValueToEdit@ParameterSelected                          cstackCOMRAM 00003A
setValueToEdit@haveValueToEdit                            cstackBANK0  0000E0
setValueToEdit@menuType                                   cstackBANK0  0000DE
setValueToEdit@posindex                                   cstackBANK0  0000DF
setValueToEdit@value                                      bssBANK1     0001F8
sm_execute_ControlGate@psm                                cstackBANK0  0000E7
sm_execute_ControlGate@typeOpenOrder                      cstackBANK0  0000EB
sm_execute_ControlLearning@psm                            cstackBANK0  0000DC
sm_execute_ControlLearning@typeOpenOrder                  cstackCOMRAM 00003A
sm_execute_main@psm                                       cstackBANK0  0000ED
sm_execute_menuConfiguration@psm                          cstackBANK0  0000E9
sm_get_current_state@psm                                  cstackCOMRAM 000010
sm_init@hist_mode                                         cstackCOMRAM 000016
sm_init@initial_state                                     cstackCOMRAM 000014
sm_init@psm                                               cstackCOMRAM 000012
sm_restart@psm                                            cstackCOMRAM 000010
sm_send_event@event                                       cstackCOMRAM 000014
sm_send_event@psm                                         cstackCOMRAM 000012
stackhi                                                   (abs)        000000
stacklo                                                   (abs)        000000
start                                                     init         00009C
start_initialization                                      cinit        0072BA
sumEnergyADC@auxValue                                     cstackCOMRAM 000016
sumEnergyADC@i                                            cstackCOMRAM 000018
sumEnergyADC@sumE                                         cstackCOMRAM 000014
sumHIST@i                                                 cstackCOMRAM 000020
sumHIST@max                                               cstackCOMRAM 000018
sumHIST@min                                               cstackCOMRAM 00001A
sumHIST@sumH                                              cstackCOMRAM 00001C
ttemp5                                                    temp         000051
ttemp6                                                    temp         000054
ttemp7                                                    temp         000058
validateRemoteSerialNumber@VerifyOnlySerial               cstackCOMRAM 000032
validateRemoteSerialNumber@i                              cstackCOMRAM 00003A
validateRemoteSerialNumber@j                              cstackCOMRAM 000039
validateRemoteSerialNumber@mask                           cstackCOMRAM 000035
validateRemoteSerialNumber@position                       cstackCOMRAM 000033
validateRemoteSerialNumber@serial                         cstackCOMRAM 00002E
verifyProgramingMode@classic_data                         cstackCOMRAM 000010
wr1RegCompleteHandler@i2c1_master_example$F517@ptr        cstackCOMRAM 000019
wr1RegCompleteHandler@p                                   cstackCOMRAM 000019
wr2RegCompleteHandler@i2c1_master_example$F523@ptr        cstackCOMRAM 000019
wr2RegCompleteHandler@p                                   cstackCOMRAM 000019
write_eusartparser@debug                                  cstackCOMRAM 00001F
write_eusartparser@debug2                                 cstackCOMRAM 000021
write_eusartparser@package                                cstackCOMRAM 000010
write_package@package                                     cstackCOMRAM 000011
wtemp8                                                    temp         000051


MODULE INFORMATION

Module		Function		Class		Link	Load	Size
controlMemory_MC50.c
		_SaveNVM_VarSystem		CODE           	8C40	0000	56
		_validateRemoteSerialNumber		CODE           	57A8	0000	412
		_checkNVM_VarSystem		CODE           	5608	0000	416
		_saveNewSerial 		CODE           	807A	0000	112
		_ControlCounterMoves		CODE           	8544	0000	90
		_ResetDefaultMemory		CODE           	5E0E	0000	394
		_RemoveSerial  		CODE           	7CAC	0000	128
		_loadNVM_VarSystem		CODE           	650A	0000	302
		_cmdMemoryIsEmpty		CODE           	774C	0000	146

controlMemory_MC50.c estimated size: 2056

sm_ControlGate_MC50.c
		_setPositionInvertionInOpening		CODE           	6F86	0000	220
		_WaitPreFlash  		CODE           	80EA	0000	112
		_actionZone_Opened		CODE           	5080	0000	494
		_actionZone_Closed		CODE           	7424	0000	170
		_InitFullAutoTime		CODE           	9234	0000	26
		_InitSoftStop  		CODE           	8928	0000	74
		_InitWalkAutoTime		CODE           	933E	0000	20
		_StopOrder     		CODE           	9190	0000	28
		_InitSoftStart 		CODE           	848C	0000	92
		_actionZone_Opening		CODE           	47A2	0000	596
		_actionZone_Closing		CODE           	42A0	0000	652
		_VerifyFollowMe		CODE           	90E4	0000	36
		_sm_execute_ControlGate		CODE           	3694	0000	842
		_CloseOrder    		CODE           	9026	0000	38
		_setPositionInvertionInClosing		CODE           	6638	0000	296
		_OpenFullOrder 		CODE           	904C	0000	38
		_OpenWalkOrder 		CODE           	815A	0000	110

sm_ControlGate_MC50.c estimated size: 3844

mcc_generated_files/examples/i2c1_master_example.c
		_rdBlkRegCompleteHandler@i2c1_master_example$F535		CODE           	8B0A	0000	64
		_rd1RegCompleteHandler@i2c1_master_example$F500		CODE           	8EA2	0000	44
		_rd2RegCompleteHandler@i2c1_master_example$F511		CODE           	8E76	0000	44
		_wr1RegCompleteHandler@i2c1_master_example$F517		CODE           	8E4A	0000	44
		_wr2RegCompleteHandler@i2c1_master_example$F523		CODE           	8F7E	0000	44
		_I2C1_Read1ByteRegister		CODE           	84E8	0000	92

mcc_generated_files/examples/i2c1_master_example.c estimated size: 332

controlCurrent_MC50.c
		_refreshADCZeroOffset		CODE           	6BAA	0000	254
		_getCurrentComparator		CODE           	5944	0000	410
		_ControlCurrent		CODE           	611A	0000	372
		_refreshCurrent		CODE           	89BA	0000	70
		_ReadADC       		CODE           	86A2	0000	86
		_sumEnergyADC  		CODE           	78FA	0000	140
		_sumHIST       		CODE           	6DA4	0000	250
		_saveEnergyADCHist		CODE           	8FFE	0000	40

controlCurrent_MC50.c estimated size: 1622

sm_Main_MC50.c
		_sm_execute_main		CODE           	24A0	0000	1288

sm_Main_MC50.c estimated size: 1288

outputs_MC50.c
		_getTimeDecelaration		CODE           	6E9E	0000	232
		_Segments_Set  		CODE           	93E2	0000	12
		_ControlMotor  		CODE           	49F6	0000	586
		_SetSegmentValueMain		CODE           	921A	0000	26
		_GetMotorPower 		CODE           	712E	0000	198
		_ControlLights 		CODE           	39DE	0000	804
		_RGB_Set       		CODE           	93AC	0000	14
		_refreshSegment		CODE           	7A9C	0000	134
		_setFlashLigth_ON		CODE           	8BCA	0000	60
		_getStateOpenPosition		CODE           	6884	0000	272
		_controlMotorForce		CODE           	4C40	0000	546
		_SetSegmentValueIntermitent		CODE           	8D6E	0000	44
		_SetSegmentValueLearn		CODE           	6CA8	0000	252
		_SetSegmentValue		CODE           	924E	0000	26
		_VerifyElectricalBrake		CODE           	7EA0	0000	120
		_SetSegmentValueIntermitentMain		CODE           	9352	0000	20
		_setRGB_ON     		CODE           	77DE	0000	144
		_controlVelocity		CODE           	4E62	0000	542
		_ControlDecelarationFactor		CODE           	9282	0000	24

outputs_MC50.c estimated size: 4056

mcc_generated_files/i2c1_master.c
		_I2C1_DO_SEND_RESTART		CODE           	9496	0000	8
		_I2C1_DO_TX_EMPTY		CODE           	83D2	0000	94
		_I2C1_DO_SEND_RESTART_READ		CODE           	94A6	0000	8
		_I2C1_CallbackReturnStop		CODE           	9500	0000	4
		_I2C1_DO_RX    		CODE           	7E26	0000	122
		_I2C1_DO_TX    		CODE           	7986	0000	140
		_I2C1_SetAddressNackCallback		CODE           	92CA	0000	24
		_I2C1_DO_IDLE  		CODE           	945C	0000	10
		_I2C1_MasterOpen		CODE           	92E2	0000	24
		_I2C1_DO_RCEN  		CODE           	9452	0000	10
		_I2C1_MasterSendTxData		CODE           	94AE	0000	8
		_I2C1_MasterStop		CODE           	9504	0000	4
		_I2C1_CallbackReturnReset		CODE           	94FC	0000	4
		_I2C1_DO_RESET 		CODE           	9448	0000	10
		_I2C1_MasterStartRx		CODE           	94F8	0000	4
		_I2C1_Poller   		CODE           	939C	0000	16
		_I2C1_DO_RX_ACK		CODE           	9486	0000	8
		_I2C1_MasterWaitForEvent		CODE           	946E	0000	8
		_I2C1_MasterSendNack		CODE           	94CE	0000	6
		_I2C1_DO_RX_NACK_RESTART		CODE           	9476	0000	8
		_I2C1_MasterDisableIrq		CODE           	9510	0000	4
		_I2C1_MasterOperation		CODE           	8E1E	0000	44
		_I2C1_SetCallback		CODE           	81C8	0000	110
		_I2C1_MasterEnableRestart		CODE           	9508	0000	4
		_I2C1_Open     		CODE           	7BA6	0000	132
		_I2C1_DO_ADDRESS_NACK		CODE           	88DA	0000	78
		_I2C1_SetBuffer		CODE           	9268	0000	26
		_I2C1_DO_SEND_RESTART_WRITE		CODE           	949E	0000	8
		_I2C1_MasterClose		CODE           	9514	0000	4
		_I2C1_MasterWrite		CODE           	9466	0000	8
		_I2C1_Initialize		CODE           	9366	0000	20
		_I2C1_Close    		CODE           	914C	0000	34
		_I2C1_MasterIsNack		CODE           	93D6	0000	12
		_I2C1_MasterStart		CODE           	950C	0000	4
		_I2C1_DO_SEND_ADR_WRITE		CODE           	93BA	0000	14
		_I2C1_MasterClearIrq		CODE           	94D4	0000	6
		_I2C1_SetDataCompleteCallback		CODE           	92FA	0000	24
		_I2C1_DO_SEND_STOP		CODE           	948E	0000	8
		_I2C1_MasterSendAck		CODE           	94C8	0000	6
		_I2C1_MasterFsm		CODE           	86F8	0000	84
		_I2C1_MasterGetRxData		CODE           	94F4	0000	4
		_I2C1_MasterSetIrq		CODE           	94C2	0000	6
		_I2C1_DO_SEND_ADR_READ		CODE           	93C8	0000	14
		_I2C1_DO_RX_NACK_STOP		CODE           	947E	0000	8

mcc_generated_files/i2c1_master.c estimated size: 1182

eusartparser.c
		_read_eusartparser		CODE           	29A8	0000	1288
		_confirmpackage		CODE           	888C	0000	78
		_write_eusartparser		CODE           	2EB0	0000	1060
		_eusartparser  		CODE           	3FF8	0000	680

eusartparser.c estimated size: 3106

mcc_generated_files/tmr2.c
		_TMR2_ISR      		CODE           	628E	0000	334
		_TMR2_Initialize		CODE           	8DF2	0000	44
		_TMR2_SetInterruptHandler		CODE           	93F8	0000	10
		_TMR2_DefaultInterruptHandler		CODE           	951C	0000	2

mcc_generated_files/tmr2.c estimated size: 390

mcc_generated_files/interrupt_manager.c
		_INTERRUPT_Initialize		CODE           	94F0	0000	4
		_INTERRUPT_InterruptManager		CODE           	0008	0000	148

mcc_generated_files/interrupt_manager.c estimated size: 152

C:\Program Files\Microchip\xc8\v2.36\pic\sources\c99\common\Umul32.c
		___lmul        		CODE           	864C	0000	86

C:\Program Files\Microchip\xc8\v2.36\pic\sources\c99\common\Umul32.c estimated size: 86

inputs_MC50.c
		_ControlInputs 		CODE           	6760	0000	292
		_readbutton    		CODE           	8236	0000	108
		_ClearFlag_rfCMD		CODE           	94BC	0000	6
		_getSerialCmd  		CODE           	883E	0000	78
		_rxi           		CODE           	452C	0000	630
		_GetSecurityStateInClosing		CODE           	74CE	0000	166
		_getTypeRemote 		CODE           	94B6	0000	6
		_GetOpenOrder  		CODE           	5440	0000	456
		_readInputs    		CODE           	6AA2	0000	264
		_InitReceiver  		CODE           	9200	0000	26
		_GetSecurityStateInOpening		CODE           	7574	0000	166
		_getKeyPressed 		CODE           	92B2	0000	24
		_readRFButtons 		CODE           	5C78	0000	406

inputs_MC50.c estimated size: 2628

mcc_generated_files/tmr0.c
		_TMR0_SetInterruptHandler		CODE           	940C	0000	10
		_TMR0_DefaultInterruptHandler		CODE           	9520	0000	2
		_TMR0_ISR      		CODE           	9098	0000	38
		_TMR0_Initialize		CODE           	912A	0000	34

mcc_generated_files/tmr0.c estimated size: 84

sm_MenuConfiguration_MC50.c
		_load_New_Menu 		CODE           	3D02	0000	758
		_sm_execute_menuConfiguration		CODE           	0F22	0000	2404
		_controlSelectRemote		CODE           	32D4	0000	960
		_setValueToEdit		CODE           	1F94	0000	1292
		_controlSaveRemote		CODE           	7370	0000	180
		_controlLearnDigit		CODE           	8D10	0000	48

sm_MenuConfiguration_MC50.c estimated size: 5642

mcc_generated_files/pin_manager.c
		_PIN_MANAGER_Initialize		CODE           	76B4	0000	152

mcc_generated_files/pin_manager.c estimated size: 152

main_MC50.c
		_decrementTimeslot		CODE           	8FD4	0000	42
		_ShowVersion   		CODE           	830A	0000	102
		_main          		CODE           	5F98	0000	386
		_controlTimeslots		CODE           	5ADE	0000	410

main_MC50.c estimated size: 940

C:\Program Files\Microchip\xc8\v2.36\pic\sources\c99\common\__lldiv.c
		___lldiv       		CODE           	7C2A	0000	130

C:\Program Files\Microchip\xc8\v2.36\pic\sources\c99\common\__lldiv.c estimated size: 130

mcc_generated_files/drivers/i2c_simple_master.c
		_i2c_readDataBlock		CODE           	7F90	0000	118
		_wr1RegCompleteHandler		CODE           	8F52	0000	44
		_wr2RegCompleteHandler		CODE           	8ECE	0000	44
		_i2c_writeNBytes		CODE           	8006	0000	116
		_rdBlkRegCompleteHandler		CODE           	8B4A	0000	64
		_rd1RegCompleteHandler		CODE           	8F26	0000	44
		_rd2RegCompleteHandler		CODE           	8EFA	0000	44

mcc_generated_files/drivers/i2c_simple_master.c estimated size: 474

C:\Program Files\Microchip\xc8\v2.36\pic\sources\c99\common\lwdiv.c
		___lwdiv       		CODE           	874C	0000	82

C:\Program Files\Microchip\xc8\v2.36\pic\sources\c99\common\lwdiv.c estimated size: 82

C:\Program Files\Microchip\xc8\v2.36\pic\sources\c99\common\awdiv.c
		___awdiv       		CODE           	7B22	0000	132

C:\Program Files\Microchip\xc8\v2.36\pic\sources\c99\common\awdiv.c estimated size: 132

C:\Program Files\Microchip\xc8\v2.36\pic\sources\c99\common\lbmod.c
		___lbmod       		CODE           	8FAA	0000	42

C:\Program Files\Microchip\xc8\v2.36\pic\sources\c99\common\lbmod.c estimated size: 42

shared
		i2_VerifyElectricalBrake		CODE           	7F18	0000	120
		__initialization		CODE           	72BA	0000	172
		_i2c1_fsmStateTable		SMALLCONST     	0F01	0000	32
		i2_GetMotorPower		CODE           	71F4	0000	198

shared estimated size: 522

mcc_generated_files/eusart1.c
		_EUSART1_SetRxInterruptHandler		CODE           	9420	0000	10
		_EUSART1_SetTxInterruptHandler		CODE           	9416	0000	10
		_EUSART1_is_rx_ready		CODE           	938C	0000	16
		_EUSART1_Initialize		CODE           	7D2C	0000	126
		_EUSART1_DefaultErrorHandler		CODE           	94E0	0000	6
		_EUSART1_SetFramingErrorHandler		CODE           	9434	0000	10
		_EUSART1_Read  		CODE           	8972	0000	72
		_EUSART1_SetOverrunErrorHandler		CODE           	942A	0000	10
		_EUSART1_SetErrorHandler		CODE           	943E	0000	10
		_EUSART1_Write 		CODE           	8ACA	0000	64
		_EUSART1_Receive_ISR		CODE           	761A	0000	154
		_EUSART1_RxDataHandler		CODE           	916E	0000	34
		_EUSART1_DefaultOverrunErrorHandler		CODE           	94DA	0000	6
		_EUSART1_Transmit_ISR		CODE           	8CDE	0000	50
		_EUSART1_DefaultFramingErrorHandler		CODE           	9522	0000	2

mcc_generated_files/eusart1.c estimated size: 580

mcc_generated_files/mcc.c
		_WWDT_TimerClear		CODE           	91AC	0000	28
		_PMD_Initialize		CODE           	91C8	0000	28
		_OSCILLATOR_Initialize		CODE           	9312	0000	22
		_SYSTEM_Initialize		CODE           	8D40	0000	46
		_WWDT_Initialize		CODE           	93EE	0000	10
		_WWDT_SoftEnable		CODE           	94EC	0000	4

mcc_generated_files/mcc.c estimated size: 138

sm_common_MC50.c
		_sm_restart    		CODE           	8A00	0000	68
		_sm_get_current_state		CODE           	937A	0000	18
		_sm_init       		CODE           	85F6	0000	86
		_sm_send_event 		CODE           	8430	0000	92

sm_common_MC50.c estimated size: 264

mcc_generated_files/tmr1.c
		_TMR1_Initialize		CODE           	8A88	0000	66
		_TMR1_SetInterruptHandler		CODE           	9402	0000	10
		_TMR1_DefaultInterruptHandler		CODE           	951E	0000	2
		_TMR1_WriteTimer		CODE           	91E4	0000	28
		_TMR1_ISR      		CODE           	8B8A	0000	64

mcc_generated_files/tmr1.c estimated size: 170

eusartpackage.c
		_write_package 		CODE           	8D9A	0000	44
		_init_package  		CODE           	8DC6	0000	44
		_read_package  		CODE           	879E	0000	80

eusartpackage.c estimated size: 168

keeloqDecrypt_MC50.c
		_NormalKeyGen  		CODE           	6994	0000	270
		_keeloqDecryptPacket		CODE           	526E	0000	466
		_DecCHK        		CODE           	8CAC	0000	50
		_Decrypt       		CODE           	7062	0000	204
		_ReqResync     		CODE           	929A	0000	24
		_getHopCode    		CODE           	63DC	0000	302
		_LoadManufCode 		CODE           	9108	0000	34
		_keeloq_classic_decrypt_packet		CODE           	859E	0000	88
		_DecryptPacket_12BIT		CODE           	786E	0000	140
		_verifyProgramingMode		CODE           	8C78	0000	52
		_HopCHK        		CODE           	7A12	0000	138

keeloqDecrypt_MC50.c estimated size: 1768

mcc_generated_files/adcc.c
		_ADCC_GetSingleConversion		CODE           	9328	0000	22
		_ADCC_Initialize		CODE           	87EE	0000	80

mcc_generated_files/adcc.c estimated size: 102

C:\Program Files\Microchip\xc8\v2.36\pic\sources\c99\common\memcpy.c
		_memcpy        		CODE           	8A44	0000	68

C:\Program Files\Microchip\xc8\v2.36\pic\sources\c99\common\memcpy.c estimated size: 68

C:\Program Files\Microchip\xc8\v2.36\pic\sources\c99\common\Umul16.c
		___wmul        		CODE           	9072	0000	38

C:\Program Files\Microchip\xc8\v2.36\pic\sources\c99\common\Umul16.c estimated size: 38

C:\Program Files\Microchip\xc8\v2.36\pic\sources\c99\common\lbdiv.c
		___lbdiv       		CODE           	8C06	0000	58

C:\Program Files\Microchip\xc8\v2.36\pic\sources\c99\common\lbdiv.c estimated size: 58

sm_ControlLearning_MC50.c
		_sm_execute_ControlLearning		CODE           	1886	0000	1806
		_calculateMean 		CODE           	8370	0000	98
		_generateErrorLearnig		CODE           	82A2	0000	104
		_clearLearningValue		CODE           	7DAA	0000	124

sm_ControlLearning_MC50.c estimated size: 2132

