Microchip MPLAB XC8 Compiler V2.36

Linker command line:

-W-3 --edf=C:\Program Files\Microchip\xc8\v2.36\pic\dat\en_msgs.txt -cn \
  -h+dist/default/debug\MC50UNI.V.0.2.3.X.debug.sym \
  --cmf=dist/default/debug\MC50UNI.V.0.2.3.X.debug.cmf -z -Q18F46K40 \
  -oC:\Users\RAFAEL~1\AppData\Local\Temp\xcAse1k.4 --defsym=__MPLAB_BUILD=1 \
  -Mdist/default/debug/MC50UNI.V.0.2.3.X.debug.map \
  --md=C:\Users\RAFAEL~1\AppData\Local\Temp\xcAse1k.dat -E1 \
  -ver=XC8 Compiler --acfsm=1493 -ACODE=00h-0FFFFh -ACONST=00h-0FFFFh \
  -ASMALLCONST=0F00h-0FFFhx241 -AMEDIUMCONST=0F00h-0FFFFh -ACOMRAM=01h-05Fh \
  -AABS1=00h-0E87h -ABIGRAM=01h-0E87h \
  -ARAM=060h-0FFh,0100h-01FFhx13,0E00h-0E87h -ABANK0=060h-0FFh \
  -ABANK1=0100h-01FFh -ABANK2=0200h-02FFh -ABANK3=0300h-03FFh \
  -ABANK4=0400h-04FFh -ABANK5=0500h-05FFh -ABANK6=0600h-06FFh \
  -ABANK7=0700h-07FFh -ABANK8=0800h-08FFh -ABANK9=0900h-09FFh \
  -ABANK10=0A00h-0AFFh -ABANK11=0B00h-0BFFh -ABANK12=0C00h-0CFFh \
  -ABANK13=0D00h-0DFFh -ABANK14=0E00h-0E87h \
  -ASFR=0E8Dh-0EFFh,0F00h-0F5Fh,0F60h-0FFFh -ABIGSFR=0E8Dh-0FFFh \
  -ACONFIG=0300000h-030000Bh -AIDLOC=0200000h-020000Fh \
  -AEEDATA=0310000h-03103FFh -peeprom_data=EEDATA \
  -preset_vec=00h,intcode=08h,intcodelo,powerup,init -pramtop=0F00h \
  -psmallconst=SMALLCONST -pmediumconst=MEDIUMCONST -pconst=CONST \
  -AFARRAM=00h-00h \
  -prdata=COMRAM,nvrram=COMRAM,nvbit=COMRAM,rbss=COMRAM,rbit=COMRAM \
  -pfarbss=FARRAM,fardata=FARRAM,nvFARRAM=FARRAM \
  -pintsave_regs=BIGRAM,bigbss=BIGRAM,bigdata=BIGRAM -pbss=RAM \
  -pidata=CODE,irdata=CODE,ibigdata=CODE,ifardata=CODE -prparam=COMRAM \
  C:\Users\RAFAEL~1\AppData\Local\Temp\xcAse1k.o \
  dist/default/debug\MC50UNI.V.0.2.3.X.debug.o 

Object code version is 3.11

Machine type is 18F46K40



                Name                               Link     Load   Length Selector   Space Scale
C:\Users\RAFAEL~1\AppData\Local\Temp\xcAse1k.o
                idloc                            200000   200000       10        0       5
                config                           300000   300000        C        0       4
                init                                 9C       9C        4        4       0
                reset_vec                             0        0        6        0       0
dist/default/debug\MC50UNI.V.0.2.3.X.debug.o
                intcode                               8        8       94        4       0
                idloc                            200000   200000       10        0       5
                config                           300000   300000        C        0       4
                temp                                 50       50        1        1       1
                smallconst                          F00      F00       22      780       0
                text209                            945C     945C       22     49E9       0
                text208                            97CE     97CE        6     49E9       0
                text207                            9810     9810        2     4BED       0
                text206                            97C8     97C8        6     49E9       0
                text205                            7898     7898       9A      791       0
                text204                            8FCC     8FCC       32      791       0
                text203                            980E     980E        2     4BED       0
                text202                            47A8     47A8      276      791       0
                text201                            9386     9386       26      791       0
                text200                            980C     980C        2     4BED       0
                text199                            94D2     94D2       1C     49E9       0
                text198                            7472     7472       C6      791       0
                text197                            8196     8196       78      791       0
                text196                            4EBC     4EBC      222      791       0
                text195                            8E78     8E78       40      791       0
                text194                            9616     9616       16     49E9       0
                text193                            8990     8990       56      791       0
                text192                            980A     980A        2     4BED       0
                text191                            92C2     92C2       2A      791       0
                text190                            5D5A     5D5A      19A      791       0
                text189                            96D0     96D0        C     49E9       0
                text188                            7D1A     7D1A       86      791       0
                text187                            650C     650C      14E      791       0
                text185                            97C2     97C2        6     49E9       0
                text184                            9802     9802        4     4BED       0
                text183                            97FE     97FE        4     4BED       0
                text182                            943A     943A       22     49E9       0
                text181                            97FA     97FA        4     4BED       0
                text180                            97F6     97F6        4     4BED       0
                text179                            97F2     97F2        4     4BED       0
                text178                            9556     9556       1A     49E9       0
                text177                            84B6     84B6       6E      791       0
                text176                            95E8     95E8       18     49E9       0
                text175                            926C     926C       2C      791       0
                text174                            9240     9240       2C      791       0
                text173                            9214     9214       2C      791       0
                text172                            91E8     91E8       2C      791       0
                text171                            91BC     91BC       2C      791       0
                text170                            8E38     8E38       40      791       0
                text169                            9190     9190       2C      791       0
                text168                            9164     9164       2C      791       0
                text167                            9138     9138       2C      791       0
                text166                            8DF8     8DF8       40      791       0
                text165                            97EE     97EE        4     4BED       0
                text164                            97EA     97EA        4     4BED       0
                text163                            97E6     97E6        4     4BED       0
                text162                            97BC     97BC        6     49E9       0
                text161                            97E2     97E2        4     4BED       0
                text160                            97B6     97B6        6     49E9       0
                text159                            979C     979C        8     49E9       0
                text158                            96C4     96C4        C     49E9       0
                text157                            97B0     97B0        6     49E9       0
                text156                            86C0     86C0       5E      791       0
                text155                            974A     974A        A     49E9       0
                text154                            96B6     96B6        E     49E9       0
                text153                            96A8     96A8        E     49E9       0
                text152                            7C04     7C04       8C      791       0
                text151                            80A4     80A4       7A      791       0
                text150                            9740     9740        A     49E9       0
                text149                            9794     9794        8     49E9       0
                text148                            978C     978C        8     49E9       0
                text147                            9784     9784        8     49E9       0
                text146                            977C     977C        8     49E9       0
                text145                            9774     9774        8     49E9       0
                text144                            976C     976C        8     49E9       0
                text143                            9764     9764        8     49E9       0
                text142                            9736     9736        A     49E9       0
                text141                            8BC8     8BC8       4E      791       0
                text140                            89E6     89E6       54      791       0
                text139                            975C     975C        8     49E9       0
                text138                            968A     968A       10     49E9       0
                text137                            910C     910C       2C      791       0
                text136                            9754     9754        8     49E9       0
                text135                            95D0     95D0       18     49E9       0
                text134                            7E24     7E24       84      791       0
                text133                            95B8     95B8       18     49E9       0
                text132                            8D32     8D32       44      791       0
                text131                            8284     8284       74      791       0
                text130                            8F2E     8F2E       38      791       0
                text129                            8832     8832       5A      791       0
                text128                            73AC     73AC       C6      791       0
                text127                            9360     9360       26      791       0
                text126                            5BC0     5BC0      19A      791       0
                text125                            8A3A     8A3A       52      791       0
                text124                            6E28     6E28       FE      791       0
                text123                            92EC     92EC       28      791       0
                text122                            7B78     7B78       8C      791       0
                text121                            7022     7022       FA      791       0
                text120                            8CA8     8CA8       46      791       0
                text119                            6398     6398      174      791       0
                text118                            69DE     69DE      124      791       0
                text117                            8EB8     8EB8       3C      791       0
                text116                            969A     969A        E     49E9       0
                text115                            7A5C     7A5C       90      791       0
                text114                            3F02     3F02      324      791       0
                text113                            811E     811E       78      791       0
                text112                            4C72     4C72      24A      791       0
                text111                            967A     967A       10     49E9       0
                text110                            8ADC     8ADC       50      791       0
                text109                            972C     972C        A     49E9       0
                text108                            9722     9722        A     49E9       0
                text107                            9718     9718        A     49E9       0
                text106                            970E     970E        A     49E9       0
                text105                            9704     9704        A     49E9       0
                text104                            7FAA     7FAA       7E      791       0
                text103                            9654     9654       14     49E9       0
                text102                            97DE     97DE        4     4BED       0
                text101                            9600     9600       16     49E9       0
                text100                            7932     7932       98      791       0
                text99                             94B6     94B6       1C     49E9       0
                text98                             96FA     96FA        A     49E9       0
                text97                             9418     9418       22     49E9       0
                text96                             96F0     96F0        A     49E9       0
                text95                             8D76     8D76       42      791       0
                text94                             96E6     96E6        A     49E9       0
                text93                             90E0     90E0       2C      791       0
                text92                             96DC     96DC        A     49E9       0
                text91                             902E     902E       2E      791       0
                text90                             953C     953C       1A     49E9       0
                text89                             85F8     85F8       66      791       0
                text88                             97DA     97DA        4     4BED       0
                text87                             949A     949A       1C     49E9       0
                text86                             820E     820E       76      791       0
                text85                             83D8     83D8       70      791       0
                text84                             7F2A     7F2A       80      791       0
                text83                             79CA     79CA       92      791       0
                text82                             90B4     90B4       2C      791       0
                text81                             8B7A     8B7A       4E      791       0
                text80                             8DB8     8DB8       40      791       0
                text79                             9088     9088       2C      791       0
                text78                             2ECC     2ECC      508      791       0
                text77                             8368     8368       70      791       0
                text76                             5A24     5A24      19C      791       0
                text75                             33D4     33D4      424      791       0
                text74                             1F94     1F94      524      791       0
                text73                             95A0     95A0       18     49E9       0
                text72                             87D6     87D6       5C      791       0
                text71                             608A     608A      18A      791       0
                text70                             5884     5884      1A0      791       0
                text69                             6788     6788      12E      791       0
                text68                             6D20     6D20      108      791       0
                text67                             7AEC     7AEC       8C      791       0
                text66                             8F9A     8F9A       32      791       0
                text65                             9588     9588       18     49E9       0
                text64                             665A     665A      12E      791       0
                text63                             7C90     7C90       8A      791       0
                text62                             72E0     72E0       CC      791       0
                text61                             93F6     93F6       22     49E9       0
                text60                             6C12     6C12      10E      791       0
                text59                             888C     888C       58      791       0
                text58                             8F66     8F66       34      791       0
                text57                             54EA     54EA      1D2      791       0
                text56                             5EF4     5EF4      196      791       0
                text55                             8C60     8C60       48      791       0
                text54                             8A8C     8A8C       50      791       0
                text53                             8524     8524       6C      791       0
                text52                             9640     9640       14     49E9       0
                text51                             8EF4     8EF4       3A      791       0
                text50                             56BC     56BC      1C8      791       0
                text49                             905C     905C       2C      791       0
                text48                             77F2     77F2       A6      791       0
                text47                             962C     962C       14     49E9       0
                text46                             877A     877A       5C      791       0
                text45                             9668     9668       12     49E9       0
                text44                             871E     871E       5C      791       0
                text43                             8448     8448       6E      791       0
                text42                             9522     9522       1A     49E9       0
                text41                             933A     933A       26      791       0
                text40                             82F8     82F8       70      791       0
                text39                             76A2     76A2       AA      791       0
                text38                             774C     774C       A6      791       0
                text37                             947E     947E       1C     49E9       0
                text36                             893A     893A       56      791       0
                text35                             711C     711C       E8      791       0
                text34                             68B6     68B6      128      791       0
                text33                             451C     451C      28C      791       0
                text32                             9314     9314       26      791       0
                text31                             93D2     93D2       24     49E9       0
                text30                             52FC     52FC      1EE      791       0
                text29                             9570     9570       18     49E9       0
                text28                             8C16     8C16       4A      791       0
                text27                             6B02     6B02      110      791       0
                text26                             50DE     50DE      21E      791       0
                text25                             7204     7204       DC      791       0
                text24                             4A1E     4A1E      254      791       0
                text23                             865E     865E       62      791       0
                text22                             8028     8028       7C      791       0
                text21                             8CEE     8CEE       44      791       0
                text20                             88E4     88E4       56      791       0
                text19                             8590     8590       68      791       0
                text18                             1886     1886      70E      791       0
                text17                             3BB8     3BB8      34A      791       0
                text16                             7EA8     7EA8       82      791       0
                text15                             6F26     6F26       FC      791       0
                text14                             8FFE     8FFE       30      791       0
                text13                             97AA     97AA        6     49E9       0
                text12                             9508     9508       1A     49E9       0
                text11                             7DA0     7DA0       84      791       0
                text10                             9298     9298       2A      791       0
                text9                              75EE     75EE       B4      791       0
                text8                              8B2C     8B2C       4E      791       0
                text7                              97A4     97A4        6     49E9       0
                text6                              37F8     37F8      3C0      791       0
                text5                              94EE     94EE       1A     49E9       0
                text4                              4226     4226      2F6      791       0
                text3                              24B8     24B8      50C      791       0
                text2                               F22      F22      964      791       0
                text1                              29C4     29C4      508      791       0
                text0                              6214     6214      184      791       0
                cstackCOMRAM                          1        1       3A        1       1
                cstackBANK0                          D8       D8       23       60       1
                dataBANK3                           3D2      3D2       25      300       1
                bssBANK3                            300      300       D2      300       1
                dataBANK2                           2F1      2F1        2      200       1
                bssBANK2                            200      200       DF      200       1
                dataBANK1                           1FA      1FA        5      100       1
                bssBANK1                            100      100       FA      100       1
                dataBANK0                            FB       FB        2       60       1
                bssBANK0                             60       60       78       60       1
                bssCOMRAM                            3B       3B       15        1       1
                cinit                              7538     7538       B6      791       0
                nvBANK2                             2DF      2DF       12      200       1
                nvBANK1                             1FF      1FF        1      100       1
                idataBANK3                         93AC     93AC       25      791       0
                idataBANK2                         9808     9808        2     4BED       0
                idataBANK1                         97D4     97D4        5     49E9       0
                idataBANK0                         9806     9806        2     4BED       0

TOTAL           Name                               Link     Load   Length     Space
        CLASS   CODE           
                intcode                               8        8       94         0
                init                                 9C       9C        4         0
                reset_vec                             0        0        6         0
                text209                            945C     945C       22         0
                text208                            97CE     97CE        6         0
                text207                            9810     9810        2         0
                text206                            97C8     97C8        6         0
                text205                            7898     7898       9A         0
                text204                            8FCC     8FCC       32         0
                text203                            980E     980E        2         0
                text202                            47A8     47A8      276         0
                text201                            9386     9386       26         0
                text200                            980C     980C        2         0
                text199                            94D2     94D2       1C         0
                text198                            7472     7472       C6         0
                text197                            8196     8196       78         0
                text196                            4EBC     4EBC      222         0
                text195                            8E78     8E78       40         0
                text194                            9616     9616       16         0
                text193                            8990     8990       56         0
                text192                            980A     980A        2         0
                text191                            92C2     92C2       2A         0
                text190                            5D5A     5D5A      19A         0
                text189                            96D0     96D0        C         0
                text188                            7D1A     7D1A       86         0
                text187                            650C     650C      14E         0
                text185                            97C2     97C2        6         0
                text184                            9802     9802        4         0
                text183                            97FE     97FE        4         0
                text182                            943A     943A       22         0
                text181                            97FA     97FA        4         0
                text180                            97F6     97F6        4         0
                text179                            97F2     97F2        4         0
                text178                            9556     9556       1A         0
                text177                            84B6     84B6       6E         0
                text176                            95E8     95E8       18         0
                text175                            926C     926C       2C         0
                text174                            9240     9240       2C         0
                text173                            9214     9214       2C         0
                text172                            91E8     91E8       2C         0
                text171                            91BC     91BC       2C         0
                text170                            8E38     8E38       40         0
                text169                            9190     9190       2C         0
                text168                            9164     9164       2C         0
                text167                            9138     9138       2C         0
                text166                            8DF8     8DF8       40         0
                text165                            97EE     97EE        4         0
                text164                            97EA     97EA        4         0
                text163                            97E6     97E6        4         0
                text162                            97BC     97BC        6         0
                text161                            97E2     97E2        4         0
                text160                            97B6     97B6        6         0
                text159                            979C     979C        8         0
                text158                            96C4     96C4        C         0
                text157                            97B0     97B0        6         0
                text156                            86C0     86C0       5E         0
                text155                            974A     974A        A         0
                text154                            96B6     96B6        E         0
                text153                            96A8     96A8        E         0
                text152                            7C04     7C04       8C         0
                text151                            80A4     80A4       7A         0
                text150                            9740     9740        A         0
                text149                            9794     9794        8         0
                text148                            978C     978C        8         0
                text147                            9784     9784        8         0
                text146                            977C     977C        8         0
                text145                            9774     9774        8         0
                text144                            976C     976C        8         0
                text143                            9764     9764        8         0
                text142                            9736     9736        A         0
                text141                            8BC8     8BC8       4E         0
                text140                            89E6     89E6       54         0
                text139                            975C     975C        8         0
                text138                            968A     968A       10         0
                text137                            910C     910C       2C         0
                text136                            9754     9754        8         0
                text135                            95D0     95D0       18         0
                text134                            7E24     7E24       84         0
                text133                            95B8     95B8       18         0
                text132                            8D32     8D32       44         0
                text131                            8284     8284       74         0
                text130                            8F2E     8F2E       38         0
                text129                            8832     8832       5A         0
                text128                            73AC     73AC       C6         0
                text127                            9360     9360       26         0
                text126                            5BC0     5BC0      19A         0
                text125                            8A3A     8A3A       52         0
                text124                            6E28     6E28       FE         0
                text123                            92EC     92EC       28         0
                text122                            7B78     7B78       8C         0
                text121                            7022     7022       FA         0
                text120                            8CA8     8CA8       46         0
                text119                            6398     6398      174         0
                text118                            69DE     69DE      124         0
                text117                            8EB8     8EB8       3C         0
                text116                            969A     969A        E         0
                text115                            7A5C     7A5C       90         0
                text114                            3F02     3F02      324         0
                text113                            811E     811E       78         0
                text112                            4C72     4C72      24A         0
                text111                            967A     967A       10         0
                text110                            8ADC     8ADC       50         0
                text109                            972C     972C        A         0
                text108                            9722     9722        A         0
                text107                            9718     9718        A         0
                text106                            970E     970E        A         0
                text105                            9704     9704        A         0
                text104                            7FAA     7FAA       7E         0
                text103                            9654     9654       14         0
                text102                            97DE     97DE        4         0
                text101                            9600     9600       16         0
                text100                            7932     7932       98         0
                text99                             94B6     94B6       1C         0
                text98                             96FA     96FA        A         0
                text97                             9418     9418       22         0
                text96                             96F0     96F0        A         0
                text95                             8D76     8D76       42         0
                text94                             96E6     96E6        A         0
                text93                             90E0     90E0       2C         0
                text92                             96DC     96DC        A         0
                text91                             902E     902E       2E         0
                text90                             953C     953C       1A         0
                text89                             85F8     85F8       66         0
                text88                             97DA     97DA        4         0
                text87                             949A     949A       1C         0
                text86                             820E     820E       76         0
                text85                             83D8     83D8       70         0
                text84                             7F2A     7F2A       80         0
                text83                             79CA     79CA       92         0
                text82                             90B4     90B4       2C         0
                text81                             8B7A     8B7A       4E         0
                text80                             8DB8     8DB8       40         0
                text79                             9088     9088       2C         0
                text78                             2ECC     2ECC      508         0
                text77                             8368     8368       70         0
                text76                             5A24     5A24      19C         0
                text75                             33D4     33D4      424         0
                text74                             1F94     1F94      524         0
                text73                             95A0     95A0       18         0
                text72                             87D6     87D6       5C         0
                text71                             608A     608A      18A         0
                text70                             5884     5884      1A0         0
                text69                             6788     6788      12E         0
                text68                             6D20     6D20      108         0
                text67                             7AEC     7AEC       8C         0
                text66                             8F9A     8F9A       32         0
                text65                             9588     9588       18         0
                text64                             665A     665A      12E         0
                text63                             7C90     7C90       8A         0
                text62                             72E0     72E0       CC         0
                text61                             93F6     93F6       22         0
                text60                             6C12     6C12      10E         0
                text59                             888C     888C       58         0
                text58                             8F66     8F66       34         0
                text57                             54EA     54EA      1D2         0
                text56                             5EF4     5EF4      196         0
                text55                             8C60     8C60       48         0
                text54                             8A8C     8A8C       50         0
                text53                             8524     8524       6C         0
                text52                             9640     9640       14         0
                text51                             8EF4     8EF4       3A         0
                text50                             56BC     56BC      1C8         0
                text49                             905C     905C       2C         0
                text48                             77F2     77F2       A6         0
                text47                             962C     962C       14         0
                text46                             877A     877A       5C         0
                text45                             9668     9668       12         0
                text44                             871E     871E       5C         0
                text43                             8448     8448       6E         0
                text42                             9522     9522       1A         0
                text41                             933A     933A       26         0
                text40                             82F8     82F8       70         0
                text39                             76A2     76A2       AA         0
                text38                             774C     774C       A6         0
                text37                             947E     947E       1C         0
                text36                             893A     893A       56         0
                text35                             711C     711C       E8         0
                text34                             68B6     68B6      128         0
                text33                             451C     451C      28C         0
                text32                             9314     9314       26         0
                text31                             93D2     93D2       24         0
                text30                             52FC     52FC      1EE         0
                text29                             9570     9570       18         0
                text28                             8C16     8C16       4A         0
                text27                             6B02     6B02      110         0
                text26                             50DE     50DE      21E         0
                text25                             7204     7204       DC         0
                text24                             4A1E     4A1E      254         0
                text23                             865E     865E       62         0
                text22                             8028     8028       7C         0
                text21                             8CEE     8CEE       44         0
                text20                             88E4     88E4       56         0
                text19                             8590     8590       68         0
                text18                             1886     1886      70E         0
                text17                             3BB8     3BB8      34A         0
                text16                             7EA8     7EA8       82         0
                text15                             6F26     6F26       FC         0
                text14                             8FFE     8FFE       30         0
                text13                             97AA     97AA        6         0
                text12                             9508     9508       1A         0
                text11                             7DA0     7DA0       84         0
                text10                             9298     9298       2A         0
                text9                              75EE     75EE       B4         0
                text8                              8B2C     8B2C       4E         0
                text7                              97A4     97A4        6         0
                text6                              37F8     37F8      3C0         0
                text5                              94EE     94EE       1A         0
                text4                              4226     4226      2F6         0
                text3                              24B8     24B8      50C         0
                text2                               F22      F22      964         0
                text1                              29C4     29C4      508         0
                text0                              6214     6214      184         0
                cinit                              7538     7538       B6         0
                idataBANK3                         93AC     93AC       25         0
                idataBANK2                         9808     9808        2         0
                idataBANK1                         97D4     97D4        5         0
                idataBANK0                         9806     9806        2         0

        CLASS   CONST          

        CLASS   SMALLCONST     
                smallconst                          F00      F00       22         0

        CLASS   MEDIUMCONST    

        CLASS   COMRAM         
                temp                                 50       50        1         1
                cstackCOMRAM                          1        1       3A         1
                bssCOMRAM                            3B       3B       15         1

        CLASS   ABS1           

        CLASS   BIGRAM         

        CLASS   RAM            

        CLASS   BANK0          
                cstackBANK0                          D8       D8       23         1
                dataBANK0                            FB       FB        2         1
                bssBANK0                             60       60       78         1

        CLASS   BANK1          
                dataBANK1                           1FA      1FA        5         1
                bssBANK1                            100      100       FA         1
                nvBANK1                             1FF      1FF        1         1

        CLASS   BANK2          
                dataBANK2                           2F1      2F1        2         1
                bssBANK2                            200      200       DF         1
                nvBANK2                             2DF      2DF       12         1

        CLASS   BANK3          
                dataBANK3                           3D2      3D2       25         1
                bssBANK3                            300      300       D2         1

        CLASS   BANK4          

        CLASS   BANK5          

        CLASS   BANK6          

        CLASS   BANK7          

        CLASS   BANK8          

        CLASS   BANK9          

        CLASS   BANK10         

        CLASS   BANK11         

        CLASS   BANK12         

        CLASS   BANK13         

        CLASS   BANK14         

        CLASS   SFR            

        CLASS   BIGSFR         

        CLASS   CONFIG         
                config                           300000   300000        C         4

        CLASS   IDLOC          
                idloc                            200000   200000       10         5

        CLASS   EEDATA         

        CLASS   FARRAM         

        CLASS   HEAP           

        CLASS   STACK          



SEGMENTS        Name                           Load    Length   Top    Selector   Space  Class

                reset_vec                      000000  000006  000006         0       0  CODE    
                cstackCOMRAM                   000001  000050  000051         1       1  COMRAM  
                intcode                        000008  000098  0000A0         4       0  CODE    
                bssBANK0                       000060  00009D  0000FD        60       1  BANK0   
                bssBANK1                       000100  000100  000200       100       1  BANK1   
                bssBANK2                       000200  0000F3  0002F3       200       1  BANK2   
                bssBANK3                       000300  0000F7  0003F7       300       1  BANK3   
                smallconst                     000F00  000022  000F22       780       0  SMALLCON
                text2                          000F22  0084AF  0093D1       791       0  CODE    
                text31                         0093D2  000407  0097D9      49E9       0  CODE    
                text88                         0097DA  000038  009812      4BED       0  CODE    


UNUSED ADDRESS RANGES

        Name                Unused          Largest block    Delta
        BANK0            0000FD-0000FF                3
        BANK10           000A00-000AFF              100
        BANK11           000B00-000BFF              100
        BANK12           000C00-000CFF              100
        BANK13           000D00-000DFF              100
        BANK14           000E00-000E87               88
        BANK2            0002F3-0002FF                D
        BANK3            0003F7-0003FF                9
        BANK4            000400-0004FF              100
        BANK5            000500-0005FF              100
        BANK6            000600-0006FF              100
        BANK7            000700-0007FF              100
        BANK8            000800-0008FF              100
        BANK9            000900-0009FF              100
        BIGRAM           000051-00005F                F
                         0000FD-0000FF                3
                         0002F3-0002FF                D
                         0003F7-000E87              A91
        BIGSFR           000E8D-000FFF              173
        CODE             000006-000007                2
                         0000A0-000EFF              E60
                         0093D1-0093D1                1
                         0097D9-0097D9                1
                         009812-00FFFF             67EE
        COMRAM           000051-00005F                F
        CONST            000006-000007                2
                         0000A0-000EFF              E60
                         0093D1-0093D1                1
                         0097D9-0097D9                1
                         009812-00FFFF             67EE
        EEDATA           310000-3103FF              400
        MEDIUMCONST      0093D1-0093D1                1
                         0097D9-0097D9                1
                         009812-00FFFF             67EE
        RAM              0000FD-0000FF                3
                         0002F3-0002FF                D
                         0003F7-000E87              100
        SFR              000E8D-000FFF               73
        SMALLCONST       0093D1-0093D1                1
                         0097D9-0097D9                1
                         009812-00FFFF              100

                                  Symbol Table

?___awdiv                                                 cstackCOMRAM 000014
?___lldiv                                                 cstackCOMRAM 000010
?___lmul                                                  cstackCOMRAM 00001D
?___lwdiv                                                 cstackCOMRAM 000010
?___wmul                                                  cstackCOMRAM 000010
?_calculateMean                                           cstackCOMRAM 000010
?_getCurrentComparator                                    cstackCOMRAM 000016
?_getHopCode                                              cstackCOMRAM 000016
?_getTimeDecelaration                                     cstackCOMRAM 000029
?_read_package                                            cstackCOMRAM 000011
?_sm_get_current_state                                    cstackCOMRAM 000010
?_sumEnergyADC                                            cstackCOMRAM 000010
?_sumHIST                                                 cstackCOMRAM 000010
ADCC_GetSingleConversion@channel                          cstackCOMRAM 000001
ControlMotor@stateMotor                                   cstackCOMRAM 000018
DecCHK@data                                               cstackCOMRAM 000010
Decrypt@Buffer                                            cstackCOMRAM 000022
Decrypt@aux                                               cstackCOMRAM 000021
Decrypt@i                                                 cstackCOMRAM 00001E
Decrypt@j                                                 cstackCOMRAM 00001F
Decrypt@key                                               cstackCOMRAM 00001D
Decrypt@p                                                 cstackCOMRAM 000020
Decrypt@packet                                            cstackCOMRAM 00001B
DecryptPacket_12BIT@classic_data                          cstackBANK0  0000E2
DecryptPacket_12BIT@commandType                           cstackBANK0  0000E4
DecryptPacket_12BIT@data                                  cstackBANK0  0000E0
EUSART1_Read@readValue                                    cstackCOMRAM 000010
EUSART1_SetErrorHandler@interruptHandler                  cstackCOMRAM 000010
EUSART1_SetFramingErrorHandler@interruptHandler           cstackCOMRAM 000010
EUSART1_SetOverrunErrorHandler@interruptHandler           cstackCOMRAM 000010
EUSART1_SetRxInterruptHandler@interruptHandler            cstackCOMRAM 000010
EUSART1_SetTxInterruptHandler@interruptHandler            cstackCOMRAM 000010
EUSART1_Write@txData                                      cstackCOMRAM 000010
GetMotorPower@defineatraso                                cstackCOMRAM 000013
HopCHK@data                                               cstackCOMRAM 000024
HopCHK@hopDiff                                            cstackCOMRAM 000026
I2C1_CallbackReturnReset@funPtr                           cstackCOMRAM 000019
I2C1_Close@returnValue                                    cstackCOMRAM 000010
I2C1_MasterOperation@read                                 cstackCOMRAM 000020
I2C1_MasterOperation@returnValue                          cstackCOMRAM 000021
I2C1_MasterSendTxData@data                                cstackCOMRAM 000010
I2C1_Open@address                                         cstackCOMRAM 000010
I2C1_Open@returnValue                                     cstackCOMRAM 000011
I2C1_Read1ByteRegister@address                            cstackCOMRAM 000023
I2C1_Read1ByteRegister@reg                                cstackCOMRAM 000022
I2C1_Read1ByteRegister@returnValue                        cstackCOMRAM 000024
I2C1_SetAddressNackCallback@cb                            cstackCOMRAM 000015
I2C1_SetAddressNackCallback@ptr                           cstackCOMRAM 000017
I2C1_SetBuffer@buffer                                     cstackCOMRAM 000010
I2C1_SetBuffer@bufferSize                                 cstackCOMRAM 000012
I2C1_SetCallback@cb                                       cstackCOMRAM 000010
I2C1_SetCallback@idx                                      cstackCOMRAM 000014
I2C1_SetCallback@ptr                                      cstackCOMRAM 000012
I2C1_SetDataCompleteCallback@cb                           cstackCOMRAM 000015
I2C1_SetDataCompleteCallback@ptr                          cstackCOMRAM 000017
NormalKeyGen@Buffer                                       cstackCOMRAM 000030
NormalKeyGen@HOPtemp                                      cstackCOMRAM 000028
NormalKeyGen@SEED                                         bssBANK2     0002DB
NormalKeyGen@SKEYtemp                                     cstackCOMRAM 00002C
NormalKeyGen@serial                                       cstackCOMRAM 000026
OpenWalkOrder@diffTime                                    cstackCOMRAM 00001A
RGB_Set@value                                             cstackCOMRAM 000010
ReadSerial@cmdType                                        cstackCOMRAM 000032
ReadSerial@position                                       cstackCOMRAM 00002F
ReadSerial@tempSerial                                     cstackCOMRAM 00002E
RemoveSerial@cmdType                                      cstackBANK0  0000DA
RemoveSerial@position                                     cstackCOMRAM 00003A
RemoveSerial@tempSerial                                   cstackBANK0  0000DB
ReqResync@CurrentHop                                      cstackCOMRAM 000010
ResetDefaultMemory@type                                   cstackCOMRAM 00003A
SaveNVM_VarSystem@page                                    cstackBANK0  0000D8
SaveNVM_VarSystem@point                                   cstackBANK0  0000DB
SaveNVM_VarSystem@tempAdd                                 cstackBANK0  0000D9
Segments_Set@value                                        cstackCOMRAM 000001
SetSegmentValue@d1                                        cstackCOMRAM 00001D
SetSegmentValue@d2                                        cstackCOMRAM 00001C
SetSegmentValueIntermitent@d1                             cstackCOMRAM 000013
SetSegmentValueIntermitent@d2                             cstackCOMRAM 000010
SetSegmentValueIntermitent@time                           cstackCOMRAM 000011
SetSegmentValueIntermitentMain@d1                         cstackCOMRAM 00001F
SetSegmentValueIntermitentMain@d2                         cstackCOMRAM 00001C
SetSegmentValueIntermitentMain@time                       cstackCOMRAM 00001D
SetSegmentValueLearn@direction                            cstackCOMRAM 000012
SetSegmentValueMain@d1                                    cstackCOMRAM 00001D
SetSegmentValueMain@d2                                    cstackCOMRAM 00001C
TMR0_SetInterruptHandler@InterruptHandler                 cstackCOMRAM 000010
TMR1_SetInterruptHandler@InterruptHandler                 cstackCOMRAM 000010
TMR1_WriteTimer@timerVal                                  cstackCOMRAM 000001
TMR2_SetInterruptHandler@InterruptHandler                 cstackCOMRAM 000010
VerifyElectricalBrake@actualState                         cstackCOMRAM 000011
VerifyElectricalBrake@tempState                           cstackCOMRAM 000010
VerifyFollowMe@securityClose                              cstackCOMRAM 000010
WWDT_TimerClear@state                                     cstackCOMRAM 000010
_ADACCH                                                   (abs)        000F71
_ADACCL                                                   (abs)        000F70
_ADACQ                                                    (abs)        000F5C
_ADACT                                                    (abs)        000F56
_ADCAP                                                    (abs)        000F5D
_ADCC_GetSingleConversion                                 text194      009616
_ADCC_Initialize                                          text110      008ADC
_ADCLK                                                    (abs)        000F57
_ADCNT                                                    (abs)        000F67
_ADCON0                                                   (abs)        000F60
_ADCON0bits                                               (abs)        000F60
_ADCON1                                                   (abs)        000F59
_ADCON2                                                   (abs)        000F5A
_ADCON3                                                   (abs)        000F5B
_ADC_array                                                bssBANK2     000200
_ADC_zero_array                                           bssBANK3     000396
_ADERRH                                                   (abs)        000F6F
_ADERRL                                                   (abs)        000F6E
_ADFLTRH                                                  (abs)        000F73
_ADFLTRL                                                  (abs)        000F72
_ADLTHH                                                   (abs)        000F6B
_ADLTHL                                                   (abs)        000F6A
_ADPCH                                                    (abs)        000F5F
_ADPRE                                                    (abs)        000F5E
_ADPREVH                                                  (abs)        000F62
_ADPREVL                                                  (abs)        000F61
_ADREF                                                    (abs)        000F58
_ADRESH                                                   (abs)        000F64
_ADRESL                                                   (abs)        000F63
_ADRPT                                                    (abs)        000F66
_ADSTAT                                                   (abs)        000F65
_ADSTPTH                                                  (abs)        000F69
_ADSTPTL                                                  (abs)        000F68
_ADUTHH                                                   (abs)        000F6D
_ADUTHL                                                   (abs)        000F6C
_ANSELA                                                   (abs)        000F11
_ANSELB                                                   (abs)        000F19
_ANSELC                                                   (abs)        000F21
_ANSELD                                                   (abs)        000F26
_ANSELE                                                   (abs)        000F2E
_Abertura_pedonal                                         bssBANK1     00018E
_BAUD1CON                                                 (abs)        000F9F
_BitCount                                                 bssBANK0     00008C
_Bptr                                                     bssBANK0     00008D
_BufferRF                                                 bssBANK2     0002CA
_BufferRF_12BIT                                           bssBANK1     000187
_ClearFlag_rfCMD                                          text13       0097AA
_CloseOrder                                               text32       009314
_ControlCounterMoves                                      text129      008832
_ControlCurrent                                           text119      006398
_ControlDecelarationFactor                                text29       009570
_ControlInputs                                            text118      0069DE
_ControlLights                                            text114      003F02
_ControlMotor                                             text112      004C72
_Counterchoose                                            bssBANK0     000092
_DKEY                                                     bssBANK2     0002D3
_DecCHK                                                   text66       008F9A
_Decrypt                                                  text62       0072E0
_DecryptPacket_12BIT                                      text67       007AEC
_DispTable                                                dataBANK3    0003D2
_EHop                                                     bssBANK2     00028E
_EUSART1_DefaultErrorHandler                              text208      0097CE
_EUSART1_DefaultFramingErrorHandler                       text207      009810
_EUSART1_DefaultOverrunErrorHandler                       text206      0097C8
_EUSART1_ErrorHandler                                     nvBANK2      0002E7
_EUSART1_FramingErrorHandler                              nvBANK2      0002EB
_EUSART1_Initialize                                       text104      007FAA
_EUSART1_OverrunErrorHandler                              nvBANK2      0002E9
_EUSART1_Read                                             text55       008C60
_EUSART1_Receive_ISR                                      text205      007898
_EUSART1_RxDataHandler                                    text209      00945C
_EUSART1_RxDefaultInterruptHandler                        nvBANK2      0002ED
_EUSART1_SetErrorHandler                                  text109      00972C
_EUSART1_SetFramingErrorHandler                           text108      009722
_EUSART1_SetOverrunErrorHandler                           text107      009718
_EUSART1_SetRxInterruptHandler                            text106      00970E
_EUSART1_SetTxInterruptHandler                            text105      009704
_EUSART1_Transmit_ISR                                     text204      008FCC
_EUSART1_TxDefaultInterruptHandler                        nvBANK2      0002EF
_EUSART1_Write                                            text80       008DB8
_EUSART1_is_rx_ready                                      text111      00967A
_F2Chance                                                 bssBANK1     000196
_GIE                                                      (abs)        007F97
_GetMotorPower                                            text128      0073AC
_GetOpenOrder                                             text50       0056BC
_GetSecurityStateInClosing                                text38       00774C
_GetSecurityStateInOpening                                text48       0077F2
_Hop                                                      bssBANK0     00007C
_HopCHK                                                   text63       007C90
_I2C1_CallbackReturnReset                                 text164      0097EA
_I2C1_CallbackReturnStop                                  text165      0097EE
_I2C1_Close                                               text182      00943A
_I2C1_DO_ADDRESS_NACK                                     text141      008BC8
_I2C1_DO_IDLE                                             text155      00974A
_I2C1_DO_RCEN                                             text150      009740
_I2C1_DO_RESET                                            text142      009736
_I2C1_DO_RX                                               text151      0080A4
_I2C1_DO_RX_ACK                                           text145      009774
_I2C1_DO_RX_NACK_RESTART                                  text143      009764
_I2C1_DO_RX_NACK_STOP                                     text144      00976C
_I2C1_DO_SEND_ADR_READ                                    text154      0096B6
_I2C1_DO_SEND_ADR_WRITE                                   text153      0096A8
_I2C1_DO_SEND_RESTART                                     text147      009784
_I2C1_DO_SEND_RESTART_READ                                text149      009794
_I2C1_DO_SEND_RESTART_WRITE                               text148      00978C
_I2C1_DO_SEND_STOP                                        text146      00977C
_I2C1_DO_TX                                               text152      007C04
_I2C1_DO_TX_EMPTY                                         text156      0086C0
_I2C1_Initialize                                          text103      009654
_I2C1_MasterClearIrq                                      text185      0097C2
_I2C1_MasterClose                                         text184      009802
_I2C1_MasterDisableIrq                                    text183      0097FE
_I2C1_MasterEnableRestart                                 text180      0097F6
_I2C1_MasterFsm                                           text140      0089E6
_I2C1_MasterGetRxData                                     text161      0097E2
_I2C1_MasterIsNack                                        text158      0096C4
_I2C1_MasterOpen                                          text135      0095D0
_I2C1_MasterOperation                                     text137      00910C
_I2C1_MasterSendAck                                       text160      0097B6
_I2C1_MasterSendNack                                      text162      0097BC
_I2C1_MasterSendTxData                                    text159      00979C
_I2C1_MasterSetIrq                                        text157      0097B0
_I2C1_MasterStart                                         text181      0097FA
_I2C1_MasterStartRx                                       text163      0097E6
_I2C1_MasterStop                                          text179      0097F2
_I2C1_MasterWaitForEvent                                  text139      00975C
_I2C1_MasterWrite                                         text136      009754
_I2C1_Open                                                text134      007E24
_I2C1_Poller                                              text138      00968A
_I2C1_Read1ByteRegister                                   text72       0087D6
_I2C1_SetAddressNackCallback                              text133      0095B8
_I2C1_SetBuffer                                           text178      009556
_I2C1_SetCallback                                         text177      0084B6
_I2C1_SetDataCompleteCallback                             text176      0095E8
_I2C1_Status                                              bssBANK2     00023C
_INLVLA                                                   (abs)        000F0D
_INLVLB                                                   (abs)        000F15
_INLVLC                                                   (abs)        000F1D
_INLVLD                                                   (abs)        000F22
_INLVLE                                                   (abs)        000F2A
_INTCONbits                                               (abs)        000FF2
_INTERRUPT_Initialize                                     text102      0097DE
_INTERRUPT_InterruptManager                               intcode      000008
_IOCBN3                                                   (abs)        00789B
_IOCBP3                                                   (abs)        0078A3
_InitFullAutoTime                                         text42       009522
_InitReceiver                                             text5        0094EE
_InitSoftStart                                            text46       00877A
_InitSoftStop                                             text28       008C16
_InitWalkAutoTime                                         text47       00962C
_LATA                                                     (abs)        000F83
_LATAbits                                                 (abs)        000F83
_LATB                                                     (abs)        000F84
_LATC                                                     (abs)        000F85
_LATCbits                                                 (abs)        000F85
_LATD                                                     (abs)        000F86
_LATDbits                                                 (abs)        000F86
_LATE                                                     (abs)        000F87
_LATEbits                                                 (abs)        000F87
_LoadManufCode                                            text61       0093F6
_NextHop                                                  bssBANK2     000290
_NormalKeyGen                                             text60       006C12
_ODCONA                                                   (abs)        000F0F
_ODCONB                                                   (abs)        000F17
_ODCONC                                                   (abs)        000F1F
_ODCOND                                                   (abs)        000F24
_ODCONE                                                   (abs)        000F2C
_OSCCON1                                                  (abs)        000ED8
_OSCCON3                                                  (abs)        000EDA
_OSCEN                                                    (abs)        000EDC
_OSCFRQ                                                   (abs)        000EDE
_OSCILLATOR_Initialize                                    text101      009600
_OSCTUNE                                                  (abs)        000EDD
_OpenFullOrder                                            text41       00933A
_OpenWalkOrder                                            text43       008448
_PCON0bits                                                (abs)        000FD7
_PIE0bits                                                 (abs)        000EC2
_PIE3bits                                                 (abs)        000EC5
_PIE4bits                                                 (abs)        000EC6
_PIN_MANAGER_Initialize                                   text100      007932
_PIR0bits                                                 (abs)        000ECA
_PIR3bits                                                 (abs)        000ECD
_PIR4bits                                                 (abs)        000ECE
_PMD0                                                     (abs)        000EE1
_PMD1                                                     (abs)        000EE2
_PMD2                                                     (abs)        000EE3
_PMD3                                                     (abs)        000EE4
_PMD4                                                     (abs)        000EE5
_PMD5                                                     (abs)        000EE6
_PMD_Initialize                                           text99       0094B6
_PORTAbits                                                (abs)        000F8D
_PORTB                                                    (abs)        000F8E
_PORTBbits                                                (abs)        000F8E
_PORTEbits                                                (abs)        000F91
_RC1REG                                                   (abs)        000F99
_RC1STA                                                   (abs)        000F9D
_RC1STAbits                                               (abs)        000F9D
_RC3PPS                                                   (abs)        000EFA
_RC4PPS                                                   (abs)        000EFB
_RC7PPS                                                   (abs)        000EFE
_RFBit                                                    bssBANK0     000089
_RFFull                                                   bssBANK0     00008B
_RFFull_12BIT                                             bssBANK0     00008A
_RFcount                                                  bssBANK0     00007E
_RFstate                                                  bssBANK1     000199
_RGB_Set                                                  text116      00969A
_RX1PPS                                                   (abs)        000EB5
_ReadADC                                                  text193      008990
_ReadSerial                                               text85       0083D8
_RemoveSerial                                             text84       007F2A
_ReqResync                                                text65       009588
_ResetDefaultMemory                                       text71       00608A
_SLRCONA                                                  (abs)        000F0E
_SLRCONB                                                  (abs)        000F16
_SLRCONC                                                  (abs)        000F1E
_SLRCOND                                                  (abs)        000F23
_SLRCONE                                                  (abs)        000F2B
_SP1BRGH                                                  (abs)        000F9C
_SP1BRGL                                                  (abs)        000F9B
_SSP1ADD                                                  (abs)        000F93
_SSP1BUF                                                  (abs)        000F92
_SSP1CLKPPS                                               (abs)        000EB7
_SSP1CON1                                                 (abs)        000F96
_SSP1CON1bits                                             (abs)        000F96
_SSP1CON2                                                 (abs)        000F97
_SSP1CON2bits                                             (abs)        000F97
_SSP1DATPPS                                               (abs)        000EB8
_SSP1STAT                                                 (abs)        000F95
_SYSTEM_Initialize                                        text91       00902E
_SaveNVM_VarSystem                                        text130      008F2E
_Segments_Set                                             text189      0096D0
_SetSegmentValue                                          text90       00953C
_SetSegmentValueIntermitent                               text49       00905C
_SetSegmentValueIntermitentMain                           text52       009640
_SetSegmentValueLearn                                     text15       006F26
_SetSegmentValueMain                                      text12       009508
_ShowVersion                                              text89       0085F8
_StateTRIAC                                               bssBANK1     000191
_StopOrder                                                text37       00947E
_SumEnergyADCHist_array                                   bssBANK2     000260
_T0CON0                                                   (abs)        000FD5
_T0CON1                                                   (abs)        000FD6
_T1CLK                                                    (abs)        000FD2
_T1CON                                                    (abs)        000FCF
_T1CONbits                                                (abs)        000FCF
_T1GATE                                                   (abs)        000FD1
_T1GCON                                                   (abs)        000FD0
_T2CLKCON                                                 (abs)        000FBF
_T2CON                                                    (abs)        000FBD
_T2HLT                                                    (abs)        000FBE
_T2PR                                                     (abs)        000FBC
_T2RST                                                    (abs)        000FC0
_T2TMR                                                    (abs)        000FBB
_TMR0H                                                    (abs)        000FD4
_TMR0IE                                                   (abs)        007615
_TMR0IF                                                   (abs)        007655
_TMR0L                                                    (abs)        000FD3
_TMR0_DefaultInterruptHandler                             text203      00980E
_TMR0_ISR                                                 text201      009386
_TMR0_Initialize                                          text97       009418
_TMR0_InterruptHandler                                    nvBANK2      0002E5
_TMR0_SetInterruptHandler                                 text98       0096FA
_TMR1H                                                    (abs)        000FCE
_TMR1L                                                    (abs)        000FCD
_TMR1_DefaultInterruptHandler                             text200      00980C
_TMR1_ISR                                                 text195      008E78
_TMR1_Initialize                                          text95       008D76
_TMR1_InterruptHandler                                    nvBANK2      0002E1
_TMR1_SetInterruptHandler                                 text96       0096F0
_TMR1_WriteTimer                                          text199      0094D2
_TMR2_DefaultInterruptHandler                             text192      00980A
_TMR2_ISR                                                 text187      00650C
_TMR2_Initialize                                          text93       0090E0
_TMR2_InterruptHandler                                    nvBANK2      0002DF
_TMR2_SetInterruptHandler                                 text94       0096E6
_TRISA                                                    (abs)        000F88
_TRISB                                                    (abs)        000F89
_TRISC                                                    (abs)        000F8A
_TRISD                                                    (abs)        000F8B
_TRISE                                                    (abs)        000F8C
_TX1REG                                                   (abs)        000F9A
_TX1STA                                                   (abs)        000F9E
_VerifyElectricalBrake                                    text113      00811E
_VerifyFollowMe                                           text31       0093D2
_WDTCON0                                                  (abs)        000ED2
_WDTCON0bits                                              (abs)        000ED2
_WDTCON1                                                  (abs)        000ED3
_WPUA                                                     (abs)        000F10
_WPUB                                                     (abs)        000F18
_WPUC                                                     (abs)        000F20
_WPUD                                                     (abs)        000F25
_WPUE                                                     (abs)        000F2D
_WWDT_Initialize                                          text92       0096DC
_WWDT_SoftEnable                                          text88       0097DA
_WWDT_TimerClear                                          text87       00949A
_WaitPreFlash                                             text40       0082F8
__HRAM                                                    (abs)        000000
__Habs1                                                   abs1         000000
__Hbank0                                                  bank0        000000
__Hbank1                                                  bank1        000000
__Hbank10                                                 bank10       000000
__Hbank11                                                 bank11       000000
__Hbank12                                                 bank12       000000
__Hbank13                                                 bank13       000000
__Hbank14                                                 bank14       000000
__Hbank2                                                  bank2        000000
__Hbank3                                                  bank3        000000
__Hbank4                                                  bank4        000000
__Hbank5                                                  bank5        000000
__Hbank6                                                  bank6        000000
__Hbank7                                                  bank7        000000
__Hbank8                                                  bank8        000000
__Hbank9                                                  bank9        000000
__Hbigbss                                                 bigbss       000000
__Hbigdata                                                bigdata      000000
__Hbigram                                                 bigram       000000
__Hbigsfr                                                 bigsfr       000000
__Hbss                                                    bss          000000
__HbssBANK0                                               bssBANK0     000000
__HbssBANK1                                               bssBANK1     000000
__HbssBANK2                                               bssBANK2     000000
__HbssBANK3                                               bssBANK3     000000
__HbssCOMRAM                                              bssCOMRAM    000000
__Hcinit                                                  cinit        000000
__Hclrtext                                                clrtext      000000
__Hcomram                                                 comram       000000
__Hconfig                                                 config       30000C
__Hconst                                                  const        000000
__HcstackBANK0                                            cstackBANK0  000000
__HcstackCOMRAM                                           cstackCOMRAM 000000
__Hdata                                                   data         000000
__HdataBANK0                                              dataBANK0    000000
__HdataBANK1                                              dataBANK1    000000
__HdataBANK2                                              dataBANK2    000000
__HdataBANK3                                              dataBANK3    000000
__Heeprom_data                                            eeprom_data  000000
__Hfarbss                                                 farbss       000000
__Hfardata                                                fardata      000000
__Hheap                                                   heap         000000
__Hibigdata                                               ibigdata     000000
__Hidata                                                  idata        000000
__HidataBANK0                                             idataBANK0   000000
__HidataBANK1                                             idataBANK1   000000
__HidataBANK2                                             idataBANK2   000000
__HidataBANK3                                             idataBANK3   000000
__Hidloc                                                  idloc        200010
__Hifardata                                               ifardata     000000
__Hinit                                                   init         0000A0
__Hintcode                                                intcode      00009C
__Hintcode_body                                           intcode_body 000000
__Hintcodelo                                              intcodelo    00009C
__Hintentry                                               intentry     000000
__Hintret                                                 intret       000000
__Hintsave_regs                                           intsave_regs 000000
__Hirdata                                                 irdata       000000
__Hmediumconst                                            mediumconst  000000
__HnvBANK1                                                nvBANK1      000000
__HnvBANK2                                                nvBANK2      000000
__HnvFARRAM                                               nvFARRAM     000000
__Hnvbit                                                  nvbit        000000
__Hnvrram                                                 nvrram       000000
__Hparam                                                  rparam       000000
__Hpowerup                                                powerup      00009C
__Hram                                                    ram          000000
__Hramtop                                                 ramtop       000F00
__Hrbit                                                   rbit         000000
__Hrbss                                                   rbss         000000
__Hrdata                                                  rdata        000000
__Hreset_vec                                              reset_vec    000006
__Hrparam                                                 rparam       000000
__Hsfr                                                    sfr          000000
__Hsmallconst                                             smallconst   000F22
__Hspace_0                                                (abs)        009812
__Hspace_1                                                (abs)        0003F7
__Hspace_2                                                (abs)        000000
__Hspace_4                                                (abs)        60000C
__Hstack                                                  stack        000000
__Hstruct                                                 struct       000000
__Htemp                                                   temp         000051
__Htext                                                   text         000000
__Htext0                                                  text0        000000
__Htext1                                                  text1        000000
__Htext10                                                 text10       000000
__Htext100                                                text100      000000
__Htext101                                                text101      000000
__Htext102                                                text102      000000
__Htext103                                                text103      000000
__Htext104                                                text104      000000
__Htext105                                                text105      000000
__Htext106                                                text106      000000
__Htext107                                                text107      000000
__Htext108                                                text108      000000
__Htext109                                                text109      000000
__Htext11                                                 text11       000000
__Htext110                                                text110      000000
__Htext111                                                text111      000000
__Htext112                                                text112      000000
__Htext113                                                text113      000000
__Htext114                                                text114      000000
__Htext115                                                text115      000000
__Htext116                                                text116      000000
__Htext117                                                text117      000000
__Htext118                                                text118      000000
__Htext119                                                text119      000000
__Htext12                                                 text12       000000
__Htext120                                                text120      000000
__Htext121                                                text121      000000
__Htext122                                                text122      000000
__Htext123                                                text123      000000
__Htext124                                                text124      000000
__Htext125                                                text125      000000
__Htext126                                                text126      000000
__Htext127                                                text127      000000
__Htext128                                                text128      000000
__Htext129                                                text129      000000
__Htext13                                                 text13       000000
__Htext130                                                text130      000000
__Htext131                                                text131      000000
__Htext132                                                text132      000000
__Htext133                                                text133      000000
__Htext134                                                text134      000000
__Htext135                                                text135      000000
__Htext136                                                text136      000000
__Htext137                                                text137      000000
__Htext138                                                text138      000000
__Htext139                                                text139      000000
__Htext14                                                 text14       000000
__Htext140                                                text140      000000
__Htext141                                                text141      000000
__Htext142                                                text142      000000
__Htext143                                                text143      000000
__Htext144                                                text144      000000
__Htext145                                                text145      000000
__Htext146                                                text146      000000
__Htext147                                                text147      000000
__Htext148                                                text148      000000
__Htext149                                                text149      000000
__Htext15                                                 text15       000000
__Htext150                                                text150      000000
__Htext151                                                text151      000000
__Htext152                                                text152      000000
__Htext153                                                text153      000000
__Htext154                                                text154      000000
__Htext155                                                text155      000000
__Htext156                                                text156      000000
__Htext157                                                text157      000000
__Htext158                                                text158      000000
__Htext159                                                text159      000000
__Htext16                                                 text16       000000
__Htext160                                                text160      000000
__Htext161                                                text161      000000
__Htext162                                                text162      000000
__Htext163                                                text163      000000
__Htext164                                                text164      000000
__Htext165                                                text165      000000
__Htext166                                                text166      000000
__Htext167                                                text167      000000
__Htext168                                                text168      000000
__Htext169                                                text169      000000
__Htext17                                                 text17       000000
__Htext170                                                text170      000000
__Htext171                                                text171      000000
__Htext172                                                text172      000000
__Htext173                                                text173      000000
__Htext174                                                text174      000000
__Htext175                                                text175      000000
__Htext176                                                text176      000000
__Htext177                                                text177      000000
__Htext178                                                text178      000000
__Htext179                                                text179      000000
__Htext18                                                 text18       000000
__Htext180                                                text180      000000
__Htext181                                                text181      000000
__Htext182                                                text182      000000
__Htext183                                                text183      000000
__Htext184                                                text184      000000
__Htext185                                                text185      000000
__Htext187                                                text187      000000
__Htext188                                                text188      000000
__Htext189                                                text189      000000
__Htext19                                                 text19       000000
__Htext190                                                text190      000000
__Htext191                                                text191      000000
__Htext192                                                text192      000000
__Htext193                                                text193      000000
__Htext194                                                text194      000000
__Htext195                                                text195      000000
__Htext196                                                text196      000000
__Htext197                                                text197      000000
__Htext198                                                text198      000000
__Htext199                                                text199      000000
__Htext2                                                  text2        000000
__Htext20                                                 text20       000000
__Htext200                                                text200      000000
__Htext201                                                text201      000000
__Htext202                                                text202      000000
__Htext203                                                text203      000000
__Htext204                                                text204      000000
__Htext205                                                text205      000000
__Htext206                                                text206      000000
__Htext207                                                text207      000000
__Htext208                                                text208      000000
__Htext209                                                text209      000000
__Htext21                                                 text21       000000
__Htext210                                                text210      000000
__Htext22                                                 text22       000000
__Htext23                                                 text23       000000
__Htext24                                                 text24       000000
__Htext25                                                 text25       000000
__Htext26                                                 text26       000000
__Htext27                                                 text27       000000
__Htext28                                                 text28       000000
__Htext29                                                 text29       000000
__Htext3                                                  text3        000000
__Htext30                                                 text30       000000
__Htext31                                                 text31       000000
__Htext32                                                 text32       000000
__Htext33                                                 text33       000000
__Htext34                                                 text34       000000
__Htext35                                                 text35       000000
__Htext36                                                 text36       000000
__Htext37                                                 text37       000000
__Htext38                                                 text38       000000
__Htext39                                                 text39       000000
__Htext4                                                  text4        000000
__Htext40                                                 text40       000000
__Htext41                                                 text41       000000
__Htext42                                                 text42       000000
__Htext43                                                 text43       000000
__Htext44                                                 text44       000000
__Htext45                                                 text45       000000
__Htext46                                                 text46       000000
__Htext47                                                 text47       000000
__Htext48                                                 text48       000000
__Htext49                                                 text49       000000
__Htext5                                                  text5        000000
__Htext50                                                 text50       000000
__Htext51                                                 text51       000000
__Htext52                                                 text52       000000
__Htext53                                                 text53       000000
__Htext54                                                 text54       000000
__Htext55                                                 text55       000000
__Htext56                                                 text56       000000
__Htext57                                                 text57       000000
__Htext58                                                 text58       000000
__Htext59                                                 text59       000000
__Htext6                                                  text6        000000
__Htext60                                                 text60       000000
__Htext61                                                 text61       000000
__Htext62                                                 text62       000000
__Htext63                                                 text63       000000
__Htext64                                                 text64       000000
__Htext65                                                 text65       000000
__Htext66                                                 text66       000000
__Htext67                                                 text67       000000
__Htext68                                                 text68       000000
__Htext69                                                 text69       000000
__Htext7                                                  text7        000000
__Htext70                                                 text70       000000
__Htext71                                                 text71       000000
__Htext72                                                 text72       000000
__Htext73                                                 text73       000000
__Htext74                                                 text74       000000
__Htext75                                                 text75       000000
__Htext76                                                 text76       000000
__Htext77                                                 text77       000000
__Htext78                                                 text78       000000
__Htext79                                                 text79       000000
__Htext8                                                  text8        000000
__Htext80                                                 text80       000000
__Htext81                                                 text81       000000
__Htext82                                                 text82       000000
__Htext83                                                 text83       000000
__Htext84                                                 text84       000000
__Htext85                                                 text85       000000
__Htext86                                                 text86       000000
__Htext87                                                 text87       000000
__Htext88                                                 text88       000000
__Htext89                                                 text89       000000
__Htext9                                                  text9        000000
__Htext90                                                 text90       000000
__Htext91                                                 text91       000000
__Htext92                                                 text92       000000
__Htext93                                                 text93       000000
__Htext94                                                 text94       000000
__Htext95                                                 text95       000000
__Htext96                                                 text96       000000
__Htext97                                                 text97       000000
__Htext98                                                 text98       000000
__Htext99                                                 text99       000000
__LRAM                                                    (abs)        000001
__Labs1                                                   abs1         000000
__Lbank0                                                  bank0        000000
__Lbank1                                                  bank1        000000
__Lbank10                                                 bank10       000000
__Lbank11                                                 bank11       000000
__Lbank12                                                 bank12       000000
__Lbank13                                                 bank13       000000
__Lbank14                                                 bank14       000000
__Lbank2                                                  bank2        000000
__Lbank3                                                  bank3        000000
__Lbank4                                                  bank4        000000
__Lbank5                                                  bank5        000000
__Lbank6                                                  bank6        000000
__Lbank7                                                  bank7        000000
__Lbank8                                                  bank8        000000
__Lbank9                                                  bank9        000000
__Lbigbss                                                 bigbss       000000
__Lbigdata                                                bigdata      000000
__Lbigram                                                 bigram       000000
__Lbigsfr                                                 bigsfr       000000
__Lbss                                                    bss          000000
__LbssBANK0                                               bssBANK0     000000
__LbssBANK1                                               bssBANK1     000000
__LbssBANK2                                               bssBANK2     000000
__LbssBANK3                                               bssBANK3     000000
__LbssCOMRAM                                              bssCOMRAM    000000
__Lcinit                                                  cinit        000000
__Lclrtext                                                clrtext      000000
__Lcomram                                                 comram       000000
__Lconfig                                                 config       000000
__Lconst                                                  const        000000
__LcstackBANK0                                            cstackBANK0  000000
__LcstackCOMRAM                                           cstackCOMRAM 000000
__Ldata                                                   data         000000
__LdataBANK0                                              dataBANK0    000000
__LdataBANK1                                              dataBANK1    000000
__LdataBANK2                                              dataBANK2    000000
__LdataBANK3                                              dataBANK3    000000
__Leeprom_data                                            eeprom_data  000000
__Lfarbss                                                 farbss       000000
__Lfardata                                                fardata      000000
__Lheap                                                   heap         000000
__Libigdata                                               ibigdata     000000
__Lidata                                                  idata        000000
__LidataBANK0                                             idataBANK0   000000
__LidataBANK1                                             idataBANK1   000000
__LidataBANK2                                             idataBANK2   000000
__LidataBANK3                                             idataBANK3   000000
__Lidloc                                                  idloc        000000
__Lifardata                                               ifardata     000000
__Linit                                                   init         00009C
__Lintcode                                                intcode      000008
__Lintcode_body                                           intcode_body 000000
__Lintcodelo                                              intcodelo    00009C
__Lintentry                                               intentry     000000
__Lintret                                                 intret       000000
__Lintsave_regs                                           intsave_regs 000000
__Lirdata                                                 irdata       000000
__Lmediumconst                                            mediumconst  000000
__LnvBANK1                                                nvBANK1      000000
__LnvBANK2                                                nvBANK2      000000
__LnvFARRAM                                               nvFARRAM     000000
__Lnvbit                                                  nvbit        000000
__Lnvrram                                                 nvrram       000000
__Lparam                                                  rparam       000000
__Lpowerup                                                powerup      00009C
__Lram                                                    ram          000000
__Lramtop                                                 ramtop       000F00
__Lrbit                                                   rbit         000000
__Lrbss                                                   rbss         000000
__Lrdata                                                  rdata        000000
__Lreset_vec                                              reset_vec    000000
__Lrparam                                                 rparam       000000
__Lsfr                                                    sfr          000000
__Lsmallconst                                             smallconst   000F00
__Lspace_0                                                (abs)        000000
__Lspace_1                                                (abs)        000000
__Lspace_2                                                (abs)        000000
__Lspace_4                                                (abs)        000000
__Lstack                                                  stack        000000
__Lstruct                                                 struct       000000
__Ltemp                                                   temp         000050
__Ltext                                                   text         000000
__Ltext0                                                  text0        000000
__Ltext1                                                  text1        000000
__Ltext10                                                 text10       000000
__Ltext100                                                text100      000000
__Ltext101                                                text101      000000
__Ltext102                                                text102      000000
__Ltext103                                                text103      000000
__Ltext104                                                text104      000000
__Ltext105                                                text105      000000
__Ltext106                                                text106      000000
__Ltext107                                                text107      000000
__Ltext108                                                text108      000000
__Ltext109                                                text109      000000
__Ltext11                                                 text11       000000
__Ltext110                                                text110      000000
__Ltext111                                                text111      000000
__Ltext112                                                text112      000000
__Ltext113                                                text113      000000
__Ltext114                                                text114      000000
__Ltext115                                                text115      000000
__Ltext116                                                text116      000000
__Ltext117                                                text117      000000
__Ltext118                                                text118      000000
__Ltext119                                                text119      000000
__Ltext12                                                 text12       000000
__Ltext120                                                text120      000000
__Ltext121                                                text121      000000
__Ltext122                                                text122      000000
__Ltext123                                                text123      000000
__Ltext124                                                text124      000000
__Ltext125                                                text125      000000
__Ltext126                                                text126      000000
__Ltext127                                                text127      000000
__Ltext128                                                text128      000000
__Ltext129                                                text129      000000
__Ltext13                                                 text13       000000
__Ltext130                                                text130      000000
__Ltext131                                                text131      000000
__Ltext132                                                text132      000000
__Ltext133                                                text133      000000
__Ltext134                                                text134      000000
__Ltext135                                                text135      000000
__Ltext136                                                text136      000000
__Ltext137                                                text137      000000
__Ltext138                                                text138      000000
__Ltext139                                                text139      000000
__Ltext14                                                 text14       000000
__Ltext140                                                text140      000000
__Ltext141                                                text141      000000
__Ltext142                                                text142      000000
__Ltext143                                                text143      000000
__Ltext144                                                text144      000000
__Ltext145                                                text145      000000
__Ltext146                                                text146      000000
__Ltext147                                                text147      000000
__Ltext148                                                text148      000000
__Ltext149                                                text149      000000
__Ltext15                                                 text15       000000
__Ltext150                                                text150      000000
__Ltext151                                                text151      000000
__Ltext152                                                text152      000000
__Ltext153                                                text153      000000
__Ltext154                                                text154      000000
__Ltext155                                                text155      000000
__Ltext156                                                text156      000000
__Ltext157                                                text157      000000
__Ltext158                                                text158      000000
__Ltext159                                                text159      000000
__Ltext16                                                 text16       000000
__Ltext160                                                text160      000000
__Ltext161                                                text161      000000
__Ltext162                                                text162      000000
__Ltext163                                                text163      000000
__Ltext164                                                text164      000000
__Ltext165                                                text165      000000
__Ltext166                                                text166      000000
__Ltext167                                                text167      000000
__Ltext168                                                text168      000000
__Ltext169                                                text169      000000
__Ltext17                                                 text17       000000
__Ltext170                                                text170      000000
__Ltext171                                                text171      000000
__Ltext172                                                text172      000000
__Ltext173                                                text173      000000
__Ltext174                                                text174      000000
__Ltext175                                                text175      000000
__Ltext176                                                text176      000000
__Ltext177                                                text177      000000
__Ltext178                                                text178      000000
__Ltext179                                                text179      000000
__Ltext18                                                 text18       000000
__Ltext180                                                text180      000000
__Ltext181                                                text181      000000
__Ltext182                                                text182      000000
__Ltext183                                                text183      000000
__Ltext184                                                text184      000000
__Ltext185                                                text185      000000
__Ltext187                                                text187      000000
__Ltext188                                                text188      000000
__Ltext189                                                text189      000000
__Ltext19                                                 text19       000000
__Ltext190                                                text190      000000
__Ltext191                                                text191      000000
__Ltext192                                                text192      000000
__Ltext193                                                text193      000000
__Ltext194                                                text194      000000
__Ltext195                                                text195      000000
__Ltext196                                                text196      000000
__Ltext197                                                text197      000000
__Ltext198                                                text198      000000
__Ltext199                                                text199      000000
__Ltext2                                                  text2        000000
__Ltext20                                                 text20       000000
__Ltext200                                                text200      000000
__Ltext201                                                text201      000000
__Ltext202                                                text202      000000
__Ltext203                                                text203      000000
__Ltext204                                                text204      000000
__Ltext205                                                text205      000000
__Ltext206                                                text206      000000
__Ltext207                                                text207      000000
__Ltext208                                                text208      000000
__Ltext209                                                text209      000000
__Ltext21                                                 text21       000000
__Ltext210                                                text210      000000
__Ltext22                                                 text22       000000
__Ltext23                                                 text23       000000
__Ltext24                                                 text24       000000
__Ltext25                                                 text25       000000
__Ltext26                                                 text26       000000
__Ltext27                                                 text27       000000
__Ltext28                                                 text28       000000
__Ltext29                                                 text29       000000
__Ltext3                                                  text3        000000
__Ltext30                                                 text30       000000
__Ltext31                                                 text31       000000
__Ltext32                                                 text32       000000
__Ltext33                                                 text33       000000
__Ltext34                                                 text34       000000
__Ltext35                                                 text35       000000
__Ltext36                                                 text36       000000
__Ltext37                                                 text37       000000
__Ltext38                                                 text38       000000
__Ltext39                                                 text39       000000
__Ltext4                                                  text4        000000
__Ltext40                                                 text40       000000
__Ltext41                                                 text41       000000
__Ltext42                                                 text42       000000
__Ltext43                                                 text43       000000
__Ltext44                                                 text44       000000
__Ltext45                                                 text45       000000
__Ltext46                                                 text46       000000
__Ltext47                                                 text47       000000
__Ltext48                                                 text48       000000
__Ltext49                                                 text49       000000
__Ltext5                                                  text5        000000
__Ltext50                                                 text50       000000
__Ltext51                                                 text51       000000
__Ltext52                                                 text52       000000
__Ltext53                                                 text53       000000
__Ltext54                                                 text54       000000
__Ltext55                                                 text55       000000
__Ltext56                                                 text56       000000
__Ltext57                                                 text57       000000
__Ltext58                                                 text58       000000
__Ltext59                                                 text59       000000
__Ltext6                                                  text6        000000
__Ltext60                                                 text60       000000
__Ltext61                                                 text61       000000
__Ltext62                                                 text62       000000
__Ltext63                                                 text63       000000
__Ltext64                                                 text64       000000
__Ltext65                                                 text65       000000
__Ltext66                                                 text66       000000
__Ltext67                                                 text67       000000
__Ltext68                                                 text68       000000
__Ltext69                                                 text69       000000
__Ltext7                                                  text7        000000
__Ltext70                                                 text70       000000
__Ltext71                                                 text71       000000
__Ltext72                                                 text72       000000
__Ltext73                                                 text73       000000
__Ltext74                                                 text74       000000
__Ltext75                                                 text75       000000
__Ltext76                                                 text76       000000
__Ltext77                                                 text77       000000
__Ltext78                                                 text78       000000
__Ltext79                                                 text79       000000
__Ltext8                                                  text8        000000
__Ltext80                                                 text80       000000
__Ltext81                                                 text81       000000
__Ltext82                                                 text82       000000
__Ltext83                                                 text83       000000
__Ltext84                                                 text84       000000
__Ltext85                                                 text85       000000
__Ltext86                                                 text86       000000
__Ltext87                                                 text87       000000
__Ltext88                                                 text88       000000
__Ltext89                                                 text89       000000
__Ltext9                                                  text9        000000
__Ltext90                                                 text90       000000
__Ltext91                                                 text91       000000
__Ltext92                                                 text92       000000
__Ltext93                                                 text93       000000
__Ltext94                                                 text94       000000
__Ltext95                                                 text95       000000
__Ltext96                                                 text96       000000
__Ltext97                                                 text97       000000
__Ltext98                                                 text98       000000
__Ltext99                                                 text99       000000
__S0                                                      (abs)        009812
__S1                                                      (abs)        0003F7
__S4                                                      (abs)        000000
__S5                                                      (abs)        000000
___awdiv                                                  text11       007DA0
___awdiv@counter                                          cstackCOMRAM 000018
___awdiv@dividend                                         cstackCOMRAM 000014
___awdiv@divisor                                          cstackCOMRAM 000016
___awdiv@quotient                                         cstackCOMRAM 00001A
___awdiv@sign                                             cstackCOMRAM 000019
___heap_hi                                                (abs)        000000
___heap_lo                                                (abs)        000000
___inthi_sp                                               stack        000000
___intlo_sp                                               stack        000000
___lbdiv                                                  text51       008EF4
___lbdiv@counter                                          cstackCOMRAM 000012
___lbdiv@dividend                                         cstackCOMRAM 000011
___lbdiv@divisor                                          cstackCOMRAM 000010
___lbdiv@quotient                                         cstackCOMRAM 000013
___lbmod                                                  text10       009298
___lbmod@counter                                          cstackCOMRAM 000012
___lbmod@dividend                                         cstackCOMRAM 000011
___lbmod@divisor                                          cstackCOMRAM 000010
___lbmod@rem                                              cstackCOMRAM 000013
___lldiv                                                  text16       007EA8
___lldiv@counter                                          cstackCOMRAM 00001C
___lldiv@dividend                                         cstackCOMRAM 000010
___lldiv@divisor                                          cstackCOMRAM 000014
___lldiv@quotient                                         cstackCOMRAM 000018
___lmul                                                   text36       00893A
___lmul@multiplicand                                      cstackCOMRAM 000021
___lmul@multiplier                                        cstackCOMRAM 00001D
___lmul@product                                           cstackCOMRAM 000025
___lwdiv                                                  text125      008A3A
___lwdiv@counter                                          cstackCOMRAM 000016
___lwdiv@dividend                                         cstackCOMRAM 000010
___lwdiv@divisor                                          cstackCOMRAM 000012
___lwdiv@quotient                                         cstackCOMRAM 000014
___param_bank                                             (abs)        000000
___rparam_used                                            (abs)        000001
___sp                                                     stack        000000
___wmul                                                   text127      009360
___wmul@multiplicand                                      cstackCOMRAM 000012
___wmul@multiplier                                        cstackCOMRAM 000010
___wmul@product                                           cstackCOMRAM 000014
__accesstop                                               (abs)        000060
__activetblptr                                            (abs)        000003
__end_of_ADCC_GetSingleConversion                         text194      00962C
__end_of_ADCC_Initialize                                  text110      008B2C
__end_of_ClearFlag_rfCMD                                  text13       0097B0
__end_of_CloseOrder                                       text32       00933A
__end_of_ControlCounterMoves                              text129      00888C
__end_of_ControlCurrent                                   text119      00650C
__end_of_ControlDecelarationFactor                        text29       009588
__end_of_ControlInputs                                    text118      006B02
__end_of_ControlLights                                    text114      004226
__end_of_ControlMotor                                     text112      004EBC
__end_of_DecCHK                                           text66       008FCC
__end_of_Decrypt                                          text62       0073AC
__end_of_DecryptPacket_12BIT                              text67       007B78
__end_of_EUSART1_DefaultErrorHandler                      text208      0097D4
__end_of_EUSART1_DefaultFramingErrorHandler               text207      009812
__end_of_EUSART1_DefaultOverrunErrorHandler               text206      0097CE
__end_of_EUSART1_Initialize                               text104      008028
__end_of_EUSART1_Read                                     text55       008CA8
__end_of_EUSART1_Receive_ISR                              text205      007932
__end_of_EUSART1_RxDataHandler                            text209      00947E
__end_of_EUSART1_SetErrorHandler                          text109      009736
__end_of_EUSART1_SetFramingErrorHandler                   text108      00972C
__end_of_EUSART1_SetOverrunErrorHandler                   text107      009722
__end_of_EUSART1_SetRxInterruptHandler                    text106      009718
__end_of_EUSART1_SetTxInterruptHandler                    text105      00970E
__end_of_EUSART1_Transmit_ISR                             text204      008FFE
__end_of_EUSART1_Write                                    text80       008DF8
__end_of_EUSART1_is_rx_ready                              text111      00968A
__end_of_GetMotorPower                                    text128      007472
__end_of_GetOpenOrder                                     text50       005884
__end_of_GetSecurityStateInClosing                        text38       0077F2
__end_of_GetSecurityStateInOpening                        text48       007898
__end_of_HopCHK                                           text63       007D1A
__end_of_I2C1_CallbackReturnReset                         text164      0097EE
__end_of_I2C1_CallbackReturnStop                          text165      0097F2
__end_of_I2C1_Close                                       text182      00945C
__end_of_I2C1_DO_ADDRESS_NACK                             text141      008C16
__end_of_I2C1_DO_IDLE                                     text155      009754
__end_of_I2C1_DO_RCEN                                     text150      00974A
__end_of_I2C1_DO_RESET                                    text142      009740
__end_of_I2C1_DO_RX                                       text151      00811E
__end_of_I2C1_DO_RX_ACK                                   text145      00977C
__end_of_I2C1_DO_RX_NACK_RESTART                          text143      00976C
__end_of_I2C1_DO_RX_NACK_STOP                             text144      009774
__end_of_I2C1_DO_SEND_ADR_READ                            text154      0096C4
__end_of_I2C1_DO_SEND_ADR_WRITE                           text153      0096B6
__end_of_I2C1_DO_SEND_RESTART                             text147      00978C
__end_of_I2C1_DO_SEND_RESTART_READ                        text149      00979C
__end_of_I2C1_DO_SEND_RESTART_WRITE                       text148      009794
__end_of_I2C1_DO_SEND_STOP                                text146      009784
__end_of_I2C1_DO_TX                                       text152      007C90
__end_of_I2C1_DO_TX_EMPTY                                 text156      00871E
__end_of_I2C1_Initialize                                  text103      009668
__end_of_I2C1_MasterClearIrq                              text185      0097C8
__end_of_I2C1_MasterClose                                 text184      009806
__end_of_I2C1_MasterDisableIrq                            text183      009802
__end_of_I2C1_MasterEnableRestart                         text180      0097FA
__end_of_I2C1_MasterFsm                                   text140      008A3A
__end_of_I2C1_MasterGetRxData                             text161      0097E6
__end_of_I2C1_MasterIsNack                                text158      0096D0
__end_of_I2C1_MasterOpen                                  text135      0095E8
__end_of_I2C1_MasterOperation                             text137      009138
__end_of_I2C1_MasterSendAck                               text160      0097BC
__end_of_I2C1_MasterSendNack                              text162      0097C2
__end_of_I2C1_MasterSendTxData                            text159      0097A4
__end_of_I2C1_MasterSetIrq                                text157      0097B6
__end_of_I2C1_MasterStart                                 text181      0097FE
__end_of_I2C1_MasterStartRx                               text163      0097EA
__end_of_I2C1_MasterStop                                  text179      0097F6
__end_of_I2C1_MasterWaitForEvent                          text139      009764
__end_of_I2C1_MasterWrite                                 text136      00975C
__end_of_I2C1_Open                                        text134      007EA8
__end_of_I2C1_Poller                                      text138      00969A
__end_of_I2C1_Read1ByteRegister                           text72       008832
__end_of_I2C1_SetAddressNackCallback                      text133      0095D0
__end_of_I2C1_SetBuffer                                   text178      009570
__end_of_I2C1_SetCallback                                 text177      008524
__end_of_I2C1_SetDataCompleteCallback                     text176      009600
__end_of_INTERRUPT_Initialize                             text102      0097E2
__end_of_INTERRUPT_InterruptManager                       intcode      00009C
__end_of_InitFullAutoTime                                 text42       00953C
__end_of_InitReceiver                                     text5        009508
__end_of_InitSoftStart                                    text46       0087D6
__end_of_InitSoftStop                                     text28       008C60
__end_of_InitWalkAutoTime                                 text47       009640
__end_of_LoadManufCode                                    text61       009418
__end_of_NormalKeyGen                                     text60       006D20
__end_of_OSCILLATOR_Initialize                            text101      009616
__end_of_OpenFullOrder                                    text41       009360
__end_of_OpenWalkOrder                                    text43       0084B6
__end_of_PIN_MANAGER_Initialize                           text100      0079CA
__end_of_PMD_Initialize                                   text99       0094D2
__end_of_RGB_Set                                          text116      0096A8
__end_of_ReadADC                                          text193      0089E6
__end_of_ReadSerial                                       text85       008448
__end_of_RemoveSerial                                     text84       007FAA
__end_of_ReqResync                                        text65       0095A0
__end_of_ResetDefaultMemory                               text71       006214
__end_of_SYSTEM_Initialize                                text91       00905C
__end_of_SaveNVM_VarSystem                                text130      008F66
__end_of_Segments_Set                                     text189      0096DC
__end_of_SetSegmentValue                                  text90       009556
__end_of_SetSegmentValueIntermitent                       text49       009088
__end_of_SetSegmentValueIntermitentMain                   text52       009654
__end_of_SetSegmentValueLearn                             text15       007022
__end_of_SetSegmentValueMain                              text12       009522
__end_of_ShowVersion                                      text89       00865E
__end_of_StopOrder                                        text37       00949A
__end_of_TMR0_DefaultInterruptHandler                     text203      009810
__end_of_TMR0_ISR                                         text201      0093AC
__end_of_TMR0_Initialize                                  text97       00943A
__end_of_TMR0_SetInterruptHandler                         text98       009704
__end_of_TMR1_DefaultInterruptHandler                     text200      00980E
__end_of_TMR1_ISR                                         text195      008EB8
__end_of_TMR1_Initialize                                  text95       008DB8
__end_of_TMR1_SetInterruptHandler                         text96       0096FA
__end_of_TMR1_WriteTimer                                  text199      0094EE
__end_of_TMR2_DefaultInterruptHandler                     text192      00980C
__end_of_TMR2_ISR                                         text187      00665A
__end_of_TMR2_Initialize                                  text93       00910C
__end_of_TMR2_SetInterruptHandler                         text94       0096F0
__end_of_VerifyElectricalBrake                            text113      008196
__end_of_VerifyFollowMe                                   text31       0093F6
__end_of_WWDT_Initialize                                  text92       0096E6
__end_of_WWDT_SoftEnable                                  text88       0097DE
__end_of_WWDT_TimerClear                                  text87       0094B6
__end_of_WaitPreFlash                                     text40       008368
__end_of___awdiv                                          text11       007E24
__end_of___lbdiv                                          text51       008F2E
__end_of___lbmod                                          text10       0092C2
__end_of___lldiv                                          text16       007F2A
__end_of___lmul                                           text36       008990
__end_of___lwdiv                                          text125      008A8C
__end_of___wmul                                           text127      009386
__end_of__initialization                                  cinit        0075E4
__end_of_actionZone_Closed                                text39       00774C
__end_of_actionZone_Closing                               text33       0047A8
__end_of_actionZone_Opened                                text30       0054EA
__end_of_actionZone_Opening                               text24       004C72
__end_of_calculateMean                                    text23       0086C0
__end_of_checkNVM_VarSystem                               text70       005A24
__end_of_clearLearningValue                               text22       0080A4
__end_of_cmdMemoryIsEmpty                                 text83       007A5C
__end_of_confirmpackage                                   text81       008BC8
__end_of_controlLearnDigit                                text14       00902E
__end_of_controlMotorForce                                text196      0050DE
__end_of_controlSaveRemote                                text9        0076A2
__end_of_controlSelectRemote                              text6        003BB8
__end_of_controlTimeslots                                 text190      005EF4
__end_of_controlVelocity                                  text26       0052FC
__end_of_decrementTimeslot                                text191      0092EC
__end_of_eusartparser                                     text74       0024B8
__end_of_generateErrorLearnig                             text19       0085F8
__end_of_getCurrentComparator                             text126      005D5A
__end_of_getHopCode                                       text64       006788
__end_of_getKeyPressed                                    text73       0095B8
__end_of_getSerialCmd                                     text8        008B7A
__end_of_getStateOpenPosition                             text27       006C12
__end_of_getTimeDecelaration                              text35       007204
__end_of_getTypeRemote                                    text7        0097AA
__end_of_i2c1_fsmStateTable                               smallconst   000F21
__end_of_i2c_readDataBlock                                text86       008284
__end_of_i2c_writeNBytes                                  text131      0082F8
__end_of_init_package                                     text82       0090E0
__end_of_keeloqDecryptPacket                              text57       0056BC
__end_of_keeloq_classic_decrypt_packet                    text59       0088E4
__end_of_loadNVM_VarSystem                                text69       0068B6
__end_of_load_New_Menu                                    text4        00451C
__end_of_main                                             text0        006398
__end_of_memcpy                                           text132      008D76
__end_of_rd1RegCompleteHandler                            text173      009240
__end_of_rd1RegCompleteHandler@i2c1_master_example$F500   text169      0091BC
__end_of_rd2RegCompleteHandler                            text172      009214
__end_of_rd2RegCompleteHandler@i2c1_master_example$F511   text168      009190
__end_of_rdBlkRegCompleteHandler                          text170      008E78
__end_of_rdBlkRegCompleteHandler@i2c1_master_example$F535 text166      008E38
__end_of_readInputs                                       text68       006E28
__end_of_readRFButtons                                    text56       00608A
__end_of_read_eusartparser                                text78       0033D4
__end_of_read_package                                     text54       008ADC
__end_of_readbutton                                       text53       008590
__end_of_refreshADCZeroOffset                             text124      006F26
__end_of_refreshCurrent                                   text120      008CEE
__end_of_refreshSegment                                   text188      007DA0
__end_of_rxi                                              text202      004A1E
__end_of_saveEnergyADCHist                                text123      009314
__end_of_saveNewSerial                                    text77       0083D8
__end_of_setFlashLigth_ON                                 text117      008EF4
__end_of_setPositionInvertionInClosing                    text34       0069DE
__end_of_setPositionInvertionInOpening                    text25       0072E0
__end_of_setRGB_ON                                        text115      007AEC
__end_of_setValueToEdit                                   text3        0029C4
__end_of_sm_execute_ControlGate                           text17       003F02
__end_of_sm_execute_ControlLearning                       text18       001F94
__end_of_sm_execute_main                                  text1        002ECC
__end_of_sm_execute_menuConfiguration                     text2        001886
__end_of_sm_get_current_state                             text45       00967A
__end_of_sm_init                                          text20       00893A
__end_of_sm_restart                                       text21       008D32
__end_of_sm_send_event                                    text44       00877A
__end_of_sumEnergyADC                                     text122      007C04
__end_of_sumHIST                                          text121      00711C
__end_of_validateRemoteSerialNumber                       text76       005BC0
__end_of_verifyProgramingMode                             text58       008F9A
__end_of_wr1RegCompleteHandler                            text174      00926C
__end_of_wr1RegCompleteHandler@i2c1_master_example$F517   text167      009164
__end_of_wr2RegCompleteHandler                            text171      0091E8
__end_of_wr2RegCompleteHandler@i2c1_master_example$F523   text175      009298
__end_of_write_eusartparser                               text75       0037F8
__end_of_write_package                                    text79       0090B4
__end_ofi2_GetMotorPower                                  text198      007538
__end_ofi2_VerifyElectricalBrake                          text197      00820E
__initialization                                          cinit        007538
__mediumconst                                             mediumconst  000000
__pbssBANK0                                               bssBANK0     000060
__pbssBANK1                                               bssBANK1     000100
__pbssBANK2                                               bssBANK2     000200
__pbssBANK3                                               bssBANK3     000300
__pbssCOMRAM                                              bssCOMRAM    00003B
__pcinit                                                  cinit        007538
__pcstackBANK0                                            cstackBANK0  0000D8
__pcstackCOMRAM                                           cstackCOMRAM 000001
__pdataBANK0                                              dataBANK0    0000FB
__pdataBANK1                                              dataBANK1    0001FA
__pdataBANK2                                              dataBANK2    0002F1
__pdataBANK3                                              dataBANK3    0003D2
__pidataBANK0                                             idataBANK0   009806
__pidataBANK1                                             idataBANK1   0097D4
__pidataBANK2                                             idataBANK2   009808
__pidataBANK3                                             idataBANK3   0093AC
__pintcode                                                intcode      000008
__pnvBANK1                                                nvBANK1      0001FF
__pnvBANK2                                                nvBANK2      0002DF
__psmallconst                                             smallconst   000F00
__ptext0                                                  text0        006214
__ptext1                                                  text1        0029C4
__ptext10                                                 text10       009298
__ptext100                                                text100      007932
__ptext101                                                text101      009600
__ptext102                                                text102      0097DE
__ptext103                                                text103      009654
__ptext104                                                text104      007FAA
__ptext105                                                text105      009704
__ptext106                                                text106      00970E
__ptext107                                                text107      009718
__ptext108                                                text108      009722
__ptext109                                                text109      00972C
__ptext11                                                 text11       007DA0
__ptext110                                                text110      008ADC
__ptext111                                                text111      00967A
__ptext112                                                text112      004C72
__ptext113                                                text113      00811E
__ptext114                                                text114      003F02
__ptext115                                                text115      007A5C
__ptext116                                                text116      00969A
__ptext117                                                text117      008EB8
__ptext118                                                text118      0069DE
__ptext119                                                text119      006398
__ptext12                                                 text12       009508
__ptext120                                                text120      008CA8
__ptext121                                                text121      007022
__ptext122                                                text122      007B78
__ptext123                                                text123      0092EC
__ptext124                                                text124      006E28
__ptext125                                                text125      008A3A
__ptext126                                                text126      005BC0
__ptext127                                                text127      009360
__ptext128                                                text128      0073AC
__ptext129                                                text129      008832
__ptext13                                                 text13       0097AA
__ptext130                                                text130      008F2E
__ptext131                                                text131      008284
__ptext132                                                text132      008D32
__ptext133                                                text133      0095B8
__ptext134                                                text134      007E24
__ptext135                                                text135      0095D0
__ptext136                                                text136      009754
__ptext137                                                text137      00910C
__ptext138                                                text138      00968A
__ptext139                                                text139      00975C
__ptext14                                                 text14       008FFE
__ptext140                                                text140      0089E6
__ptext141                                                text141      008BC8
__ptext142                                                text142      009736
__ptext143                                                text143      009764
__ptext144                                                text144      00976C
__ptext145                                                text145      009774
__ptext146                                                text146      00977C
__ptext147                                                text147      009784
__ptext148                                                text148      00978C
__ptext149                                                text149      009794
__ptext15                                                 text15       006F26
__ptext150                                                text150      009740
__ptext151                                                text151      0080A4
__ptext152                                                text152      007C04
__ptext153                                                text153      0096A8
__ptext154                                                text154      0096B6
__ptext155                                                text155      00974A
__ptext156                                                text156      0086C0
__ptext157                                                text157      0097B0
__ptext158                                                text158      0096C4
__ptext159                                                text159      00979C
__ptext16                                                 text16       007EA8
__ptext160                                                text160      0097B6
__ptext161                                                text161      0097E2
__ptext162                                                text162      0097BC
__ptext163                                                text163      0097E6
__ptext164                                                text164      0097EA
__ptext165                                                text165      0097EE
__ptext166                                                text166      008DF8
__ptext167                                                text167      009138
__ptext168                                                text168      009164
__ptext169                                                text169      009190
__ptext17                                                 text17       003BB8
__ptext170                                                text170      008E38
__ptext171                                                text171      0091BC
__ptext172                                                text172      0091E8
__ptext173                                                text173      009214
__ptext174                                                text174      009240
__ptext175                                                text175      00926C
__ptext176                                                text176      0095E8
__ptext177                                                text177      0084B6
__ptext178                                                text178      009556
__ptext179                                                text179      0097F2
__ptext18                                                 text18       001886
__ptext180                                                text180      0097F6
__ptext181                                                text181      0097FA
__ptext182                                                text182      00943A
__ptext183                                                text183      0097FE
__ptext184                                                text184      009802
__ptext185                                                text185      0097C2
__ptext187                                                text187      00650C
__ptext188                                                text188      007D1A
__ptext189                                                text189      0096D0
__ptext19                                                 text19       008590
__ptext190                                                text190      005D5A
__ptext191                                                text191      0092C2
__ptext192                                                text192      00980A
__ptext193                                                text193      008990
__ptext194                                                text194      009616
__ptext195                                                text195      008E78
__ptext196                                                text196      004EBC
__ptext197                                                text197      008196
__ptext198                                                text198      007472
__ptext199                                                text199      0094D2
__ptext2                                                  text2        000F22
__ptext20                                                 text20       0088E4
__ptext200                                                text200      00980C
__ptext201                                                text201      009386
__ptext202                                                text202      0047A8
__ptext203                                                text203      00980E
__ptext204                                                text204      008FCC
__ptext205                                                text205      007898
__ptext206                                                text206      0097C8
__ptext207                                                text207      009810
__ptext208                                                text208      0097CE
__ptext209                                                text209      00945C
__ptext21                                                 text21       008CEE
__ptext210                                                text210      000000
__ptext22                                                 text22       008028
__ptext23                                                 text23       00865E
__ptext24                                                 text24       004A1E
__ptext25                                                 text25       007204
__ptext26                                                 text26       0050DE
__ptext27                                                 text27       006B02
__ptext28                                                 text28       008C16
__ptext29                                                 text29       009570
__ptext3                                                  text3        0024B8
__ptext30                                                 text30       0052FC
__ptext31                                                 text31       0093D2
__ptext32                                                 text32       009314
__ptext33                                                 text33       00451C
__ptext34                                                 text34       0068B6
__ptext35                                                 text35       00711C
__ptext36                                                 text36       00893A
__ptext37                                                 text37       00947E
__ptext38                                                 text38       00774C
__ptext39                                                 text39       0076A2
__ptext4                                                  text4        004226
__ptext40                                                 text40       0082F8
__ptext41                                                 text41       00933A
__ptext42                                                 text42       009522
__ptext43                                                 text43       008448
__ptext44                                                 text44       00871E
__ptext45                                                 text45       009668
__ptext46                                                 text46       00877A
__ptext47                                                 text47       00962C
__ptext48                                                 text48       0077F2
__ptext49                                                 text49       00905C
__ptext5                                                  text5        0094EE
__ptext50                                                 text50       0056BC
__ptext51                                                 text51       008EF4
__ptext52                                                 text52       009640
__ptext53                                                 text53       008524
__ptext54                                                 text54       008A8C
__ptext55                                                 text55       008C60
__ptext56                                                 text56       005EF4
__ptext57                                                 text57       0054EA
__ptext58                                                 text58       008F66
__ptext59                                                 text59       00888C
__ptext6                                                  text6        0037F8
__ptext60                                                 text60       006C12
__ptext61                                                 text61       0093F6
__ptext62                                                 text62       0072E0
__ptext63                                                 text63       007C90
__ptext64                                                 text64       00665A
__ptext65                                                 text65       009588
__ptext66                                                 text66       008F9A
__ptext67                                                 text67       007AEC
__ptext68                                                 text68       006D20
__ptext69                                                 text69       006788
__ptext7                                                  text7        0097A4
__ptext70                                                 text70       005884
__ptext71                                                 text71       00608A
__ptext72                                                 text72       0087D6
__ptext73                                                 text73       0095A0
__ptext74                                                 text74       001F94
__ptext75                                                 text75       0033D4
__ptext76                                                 text76       005A24
__ptext77                                                 text77       008368
__ptext78                                                 text78       002ECC
__ptext79                                                 text79       009088
__ptext8                                                  text8        008B2C
__ptext80                                                 text80       008DB8
__ptext81                                                 text81       008B7A
__ptext82                                                 text82       0090B4
__ptext83                                                 text83       0079CA
__ptext84                                                 text84       007F2A
__ptext85                                                 text85       0083D8
__ptext86                                                 text86       00820E
__ptext87                                                 text87       00949A
__ptext88                                                 text88       0097DA
__ptext89                                                 text89       0085F8
__ptext9                                                  text9        0075EE
__ptext90                                                 text90       00953C
__ptext91                                                 text91       00902E
__ptext92                                                 text92       0096DC
__ptext93                                                 text93       0090E0
__ptext94                                                 text94       0096E6
__ptext95                                                 text95       008D76
__ptext96                                                 text96       0096F0
__ptext97                                                 text97       009418
__ptext98                                                 text98       0096FA
__ptext99                                                 text99       0094B6
__ramtop                                                  ramtop       000F00
__smallconst                                              smallconst   000F00
_actionZone_Closed                                        text39       0076A2
_actionZone_Closing                                       text33       00451C
_actionZone_Opened                                        text30       0052FC
_actionZone_Opening                                       text24       004A1E
_auxCounter                                               dataBANK0    0000FB
_aux_i                                                    bssBANK1     00018D
_aux_in_auto_close                                        bssBANK1     00018C
_brakeElectric_st                                         bssBANK0     000078
_button_struct                                            bssCOMRAM    00004C
_calculateMean                                            text23       00865E
_checkNVM_VarSystem                                       text70       005884
_classic_data                                             bssBANK2     000294
_clearLearningValue                                       text22       008028
_cmdMemoryIsEmpty                                         text83       0079CA
_confirmpackage                                           text81       008B7A
_controlGate_stateMachine                                 bssBANK1     0001E3
_controlLearnDigit                                        text14       008FFE
_controlLearning_stateMachine                             bssBANK2     0002B4
_controlMotorForce                                        text196      004EBC
_controlSaveRemote                                        text9        0075EE
_controlSelectRemote                                      text6        0037F8
_controlTimeslots                                         text190      005D5A
_controlVelocity                                          text26       0050DE
_control_limit_switch                                     bssBANK0     000081
_decrementTimeslot                                        text191      0092C2
_difTime                                                  bssBANK1     000190
_dispStruct                                               bssBANK0     000072
_edit_Param                                               bssCOMRAM    000046
_erroranterior                                            bssBANK1     000189
_eusart1RxBuffer                                          bssBANK2     00027C
_eusart1RxCount                                           bssBANK0     000093
_eusart1RxHead                                            bssBANK0     000095
_eusart1RxLastError                                       bssBANK1     00019A
_eusart1RxStatusBuffer                                    bssBANK2     000274
_eusart1RxTail                                            bssBANK0     000094
_eusart1TxBuffer                                          bssBANK2     000284
_eusart1TxBufferRemaining                                 nvBANK1      0001FF
_eusart1TxHead                                            bssBANK0     000097
_eusart1TxTail                                            bssBANK0     000096
_eusartparser                                             text74       001F94
_fimdecurso                                               bssBANK1     000175
_firstselectflag                                          dataBANK1    0001FE
_fullmotorPower                                           bssBANK0     000082
_generateErrorLearnig                                     text19       008590
_getCurrentComparator                                     text126      005BC0
_getHopCode                                               text64       00665A
_getKeyPressed                                            text73       0095A0
_getSerialCmd                                             text8        008B2C
_getStateOpenPosition                                     text27       006B02
_getTimeDecelaration                                      text35       00711C
_getTypeRemote                                            text7        0097A4
_i2c1_fsmStateTable                                       smallconst   000F01
_i2c_readDataBlock                                        text86       00820E
_i2c_writeNBytes                                          text131      008284
_idxAdcAquisition                                         bssBANK0     000091
_idxAdcZeroAquisition                                     bssBANK0     00008F
_idxSaveEnergyADCHist                                     bssBANK0     000090
_init_package                                             text82       0090B4
_keeloqDecryptPacket                                      text57       0054EA
_keeloq_classic_decrypt_packet                            text59       00888C
_lastKey                                                  bssBANK1     000195
_learn_st                                                 bssBANK0     000060
_listSyncValues                                           bssBANK3     000300
_loadNVM_VarSystem                                        text69       006788
_load_New_Menu                                            text4        004226
_main                                                     text0        006214
_main_stateMachine                                        bssBANK1     0001EE
_memcpy                                                   text132      008D32
_memoryTEMP                                               bssBANK2     0002A4
_menuConfiguration_stateMachine                           bssBANK2     0002BF
_menu_st                                                  bssBANK1     000151
_numberOfErrorCurrent                                     bssBANK0     00008E
_pointSync                                                bssBANK0     00007A
_powerControl_st                                          bssBANK1     00017B
_programmer_enable                                        bssBANK0     000085
_rd1RegCompleteHandler                                    text173      009214
_rd1RegCompleteHandler@i2c1_master_example$F500           text169      009190
_rd2RegCompleteHandler                                    text172      0091E8
_rd2RegCompleteHandler@i2c1_master_example$F511           text168      009164
_rdBlkRegCompleteHandler                                  text170      008E38
_rdBlkRegCompleteHandler@i2c1_master_example$F535         text166      008DF8
_readInputs                                               text68       006D20
_readRFButtons                                            text56       005EF4
_read_eusartparser                                        text78       002ECC
_read_package                                             text54       008A8C
_readbutton                                               text53       008524
_refreshADCZeroOffset                                     text124      006E28
_refreshCurrent                                           text120      008CA8
_refreshSegment                                           text188      007D1A
_rfCMD                                                    bssCOMRAM    00003B
_rxi                                                      text202      0047A8
_saveEnergyADCHist                                        text123      0092EC
_saveNewSerial                                            text77       008368
_security                                                 bssBANK1     00016A
_setFlashLigth_ON                                         text117      008EB8
_setPositionInvertionInClosing                            text34       0068B6
_setPositionInvertionInOpening                            text25       007204
_setRGB_ON                                                text115      007A5C
_setValueToEdit                                           text3        0024B8
_sm_execute_ControlGate                                   text17       003BB8
_sm_execute_ControlLearning                               text18       001886
_sm_execute_main                                          text1        0029C4
_sm_execute_menuConfiguration                             text2        000F22
_sm_get_current_state                                     text45       009668
_sm_init                                                  text20       0088E4
_sm_restart                                               text21       008CEE
_sm_send_event                                            text44       00871E
_stateMotor                                               bssBANK0     000083
_sumEnergyADC                                             text122      007B78
_sumHIST                                                  text121      007022
_temp                                                     bssBANK0     000080
_tempCounter                                              dataBANK1    0001FA
_temppower                                                bssBANK1     00018F
_timer0ReloadVal16bit                                     bssBANK2     000292
_timer1ReloadVal                                          nvBANK2      0002E3
_ts_system                                                bssBANK1     00019B
_validateRemoteSerialNumber                               text76       005A24
_var_sys                                                  bssBANK1     000100
_var_sys_NVM                                              bssBANK0     000098
_verifyProgramingMode                                     text58       008F66
_waitZeroPeak                                             bssBANK1     000192
_wr1RegCompleteHandler                                    text174      009240
_wr1RegCompleteHandler@i2c1_master_example$F517           text167      009138
_wr2RegCompleteHandler                                    text171      0091BC
_wr2RegCompleteHandler@i2c1_master_example$F523           text175      00926C
_write_eusartparser                                       text75       0033D4
_write_package                                            text79       009088
_zeroCrossing                                             bssBANK1     000193
_zeroCrossingLength                                       bssBANK1     000194
_zeroCrossingWaitTime                                     dataBANK2    0002F1
_zeroCrossingWaitTimeIdx                                  bssBANK0     000084
actionZone_Closed@securityOpening                         cstackCOMRAM 000020
actionZone_Closed@typeOpenOrder                           cstackCOMRAM 000021
actionZone_Closing@securityClosing                        cstackCOMRAM 000032
actionZone_Closing@typeOpenOrder                          cstackCOMRAM 000033
actionZone_Opened@securityClosing                         cstackCOMRAM 000020
actionZone_Opened@typeOpenOrder                           cstackCOMRAM 000021
actionZone_Opening@securityClosing                        cstackBANK0  0000E4
actionZone_Opening@securityOpening                        cstackBANK0  0000E5
actionZone_Opening@typeOpenOrder                          cstackBANK0  0000E6
btemp                                                     temp         000050
calculateMean@meanValue                                   cstackCOMRAM 000010
calculateMean@newValue                                    cstackCOMRAM 000014
checkNVM_VarSystem@saveParam                              cstackCOMRAM 00003A
cmdMemoryIsEmpty@cmdType                                  cstackCOMRAM 000031
cmdMemoryIsEmpty@position                                 cstackCOMRAM 00002E
cmdMemoryIsEmpty@tempSerial                               cstackCOMRAM 000032
confirmpackage@confirm                                    cstackCOMRAM 000012
confirmpackage@package                                    cstackCOMRAM 000011
controlSelectRemote@pos                                   cstackBANK0  0000E2
controlSelectRemote@temp                                  cstackBANK0  0000E8
controlSelectRemote@tempSerial                            cstackBANK0  0000E4
controlSelectRemote@typeRemote                            cstackBANK0  0000E3
controlSelectRemote@validSerial                           cstackBANK0  0000E1
decrementTimeslot@ts                                      cstackCOMRAM 000001
end_of_initialization                                     cinit        0075E4
eusartparser@buffer                                       bssBANK2     00028C
eusartparser@i                                            cstackBANK0  0000E8
eusartparser@i_7280                                       cstackBANK0  0000E9
eusartparser@i_7281                                       cstackBANK0  0000EB
eusartparser@i_7282                                       cstackBANK0  0000EC
eusartparser@i_7283                                       cstackBANK0  0000ED
eusartparser@i_7284                                       cstackBANK0  0000EE
eusartparser@i_7285                                       cstackBANK0  0000EF
eusartparser@package                                      cstackBANK0  0000E0
eusartparser@pos                                          cstackBANK0  0000E7
eusartparser@relcounter                                   cstackBANK0  0000EA
eusartparser@save_f                                       bssBANK1     00018B
eusartparser@serial                                       cstackBANK0  0000F0
getCurrentComparator@tempOffset                           cstackCOMRAM 000020
getCurrentComparator@x                                    cstackCOMRAM 000022
getHopCode@data                                           cstackCOMRAM 000016
getHopCode@i                                              cstackCOMRAM 000023
getHopCode@tempHop                                        cstackCOMRAM 000020
getHopCode@tempPos                                        cstackCOMRAM 000022
getKeyPressed@temp                                        cstackCOMRAM 000010
getSerialCmd@serial                                       cstackCOMRAM 00001B
getSerialCmd@temp                                         cstackCOMRAM 00001C
getStateOpenPosition@state                                cstackBANK0  0000D8
getStateOpenPosition@stateMotor                           cstackBANK0  0000D9
getTimeDecelaration@state                                 cstackCOMRAM 000031
i2GetMotorPower@defineatraso                              cstackCOMRAM 000004
i2VerifyElectricalBrake@actualState                       cstackCOMRAM 000002
i2VerifyElectricalBrake@tempState                         cstackCOMRAM 000001
i2_GetMotorPower                                          text198      007472
i2_VerifyElectricalBrake                                  text197      008196
i2c_readDataBlock@address                                 cstackCOMRAM 000029
i2c_readDataBlock@d                                       cstackCOMRAM 00002A
i2c_readDataBlock@data                                    cstackCOMRAM 000024
i2c_readDataBlock@len                                     cstackCOMRAM 000026
i2c_readDataBlock@reg                                     cstackCOMRAM 000022
i2c_writeNBytes@address                                   cstackCOMRAM 000039
i2c_writeNBytes@dat                                       cstackCOMRAM 000028
i2c_writeNBytes@data                                      cstackCOMRAM 000024
i2c_writeNBytes@len                                       cstackCOMRAM 000025
i2c_writeNBytes@reg                                       cstackCOMRAM 000022
init_package@package                                      cstackCOMRAM 000010
int$flags                                                 temp         000050
intlevel0                                                 text         000000
intlevel1                                                 text         000000
intlevel2                                                 text         000000
intlevel3                                                 text         000000
isa$std                                                   (abs)        000001
isa$xinst                                                 (abs)        000000
keeloqDecryptPacket@classic_data                          cstackBANK0  0000E2
keeloqDecryptPacket@commandType                           cstackBANK0  0000E9
keeloqDecryptPacket@data                                  cstackBANK0  0000E0
keeloqDecryptPacket@hop_error                             cstackBANK0  0000E8
keeloq_classic_decrypt_packet@data                        cstackCOMRAM 000038
load_New_Menu@Menu                                        cstackCOMRAM 000022
load_New_Menu@i                                           cstackCOMRAM 000023
main@package                                              cstackBANK0  0000F4
memcpy@d                                                  cstackCOMRAM 000017
memcpy@d1                                                 cstackCOMRAM 000010
memcpy@n                                                  cstackCOMRAM 000014
memcpy@s                                                  cstackCOMRAM 000019
memcpy@s1                                                 cstackCOMRAM 000012
memcpy@tmp                                                cstackCOMRAM 000016
rd1RegCompleteHandler@i2c1_master_example$F500@ptr        cstackCOMRAM 000019
rd1RegCompleteHandler@p                                   cstackCOMRAM 000019
rd2RegCompleteHandler@i2c1_master_example$F511@ptr        cstackCOMRAM 000019
rd2RegCompleteHandler@p                                   cstackCOMRAM 000019
rdBlkRegCompleteHandler@i2c1_master_example$F535@ptr      cstackCOMRAM 000019
rdBlkRegCompleteHandler@p                                 cstackCOMRAM 000019
readRFButtons@key1                                        bssBANK0     000088
readRFButtons@keyType                                     bssBANK0     000087
readRFButtons@rollingCode                                 bssBANK1     000185
readRFButtons@serial                                      bssBANK1     000181
readRFButtons@typeRemote                                  bssBANK1     000198
read_eusartparser@package                                 cstackCOMRAM 000018
read_package@package                                      cstackCOMRAM 000018
readbutton@key1                                           bssBANK0     000086
readbutton@key2                                           bssBANK1     000197
refreshADCZeroOffset@i                                    cstackCOMRAM 000017
refreshADCZeroOffset@media                                cstackCOMRAM 000018
saveEnergyADCHist@valueToSave                             cstackCOMRAM 000010
saveNewSerial@cmdType                                     cstackCOMRAM 00003A
saveNewSerial@position                                    cstackBANK0  0000DC
saveNewSerial@tempSerial                                  cstackBANK0  0000D8
setFlashLigth_ON@Freq                                     cstackCOMRAM 000010
setRGB_ON@Freq                                            cstackCOMRAM 000011
setRGB_ON@RGBLigth                                        cstackCOMRAM 000015
setValueToEdit@ParameterSelected                          cstackCOMRAM 00003A
setValueToEdit@haveValueToEdit                            cstackBANK0  0000E0
setValueToEdit@menuType                                   cstackBANK0  0000DE
setValueToEdit@posindex                                   cstackBANK0  0000DF
setValueToEdit@value                                      bssBANK1     0001F9
sm_execute_ControlGate@psm                                cstackBANK0  0000E7
sm_execute_ControlGate@typeOpenOrder                      cstackBANK0  0000EB
sm_execute_ControlLearning@psm                            cstackBANK0  0000DC
sm_execute_ControlLearning@typeOpenOrder                  cstackCOMRAM 00003A
sm_execute_main@psm                                       cstackBANK0  0000ED
sm_execute_menuConfiguration@psm                          cstackBANK0  0000E9
sm_get_current_state@psm                                  cstackCOMRAM 000010
sm_init@hist_mode                                         cstackCOMRAM 000016
sm_init@initial_state                                     cstackCOMRAM 000014
sm_init@psm                                               cstackCOMRAM 000012
sm_restart@psm                                            cstackCOMRAM 000010
sm_send_event@event                                       cstackCOMRAM 000014
sm_send_event@psm                                         cstackCOMRAM 000012
stackhi                                                   (abs)        000000
stacklo                                                   (abs)        000000
start                                                     init         00009C
start_initialization                                      cinit        007538
sumEnergyADC@auxValue                                     cstackCOMRAM 000016
sumEnergyADC@i                                            cstackCOMRAM 000018
sumEnergyADC@sumE                                         cstackCOMRAM 000014
sumHIST@i                                                 cstackCOMRAM 000020
sumHIST@max                                               cstackCOMRAM 000018
sumHIST@min                                               cstackCOMRAM 00001A
sumHIST@sumH                                              cstackCOMRAM 00001C
ttemp5                                                    temp         000051
ttemp6                                                    temp         000054
ttemp7                                                    temp         000058
validateRemoteSerialNumber@VerifyOnlySerial               cstackCOMRAM 000032
validateRemoteSerialNumber@i                              cstackCOMRAM 00003A
validateRemoteSerialNumber@j                              cstackCOMRAM 000039
validateRemoteSerialNumber@mask                           cstackCOMRAM 000035
validateRemoteSerialNumber@position                       cstackCOMRAM 000033
validateRemoteSerialNumber@serial                         cstackCOMRAM 00002E
verifyProgramingMode@classic_data                         cstackCOMRAM 000010
wr1RegCompleteHandler@i2c1_master_example$F517@ptr        cstackCOMRAM 000019
wr1RegCompleteHandler@p                                   cstackCOMRAM 000019
wr2RegCompleteHandler@i2c1_master_example$F523@ptr        cstackCOMRAM 000019
wr2RegCompleteHandler@p                                   cstackCOMRAM 000019
write_eusartparser@debug                                  cstackCOMRAM 00001F
write_eusartparser@debug2                                 cstackCOMRAM 000021
write_eusartparser@package                                cstackCOMRAM 000010
write_package@package                                     cstackCOMRAM 000011
wtemp8                                                    temp         000051


MODULE INFORMATION

Module		Function		Class		Link	Load	Size
controlMemory_MC50.c
		_SaveNVM_VarSystem		CODE           	8F2E	0000	56
		_validateRemoteSerialNumber		CODE           	5A24	0000	412
		_checkNVM_VarSystem		CODE           	5884	0000	416
		_saveNewSerial 		CODE           	8368	0000	112
		_ReadSerial    		CODE           	83D8	0000	112
		_ControlCounterMoves		CODE           	8832	0000	90
		_ResetDefaultMemory		CODE           	608A	0000	394
		_RemoveSerial  		CODE           	7F2A	0000	128
		_loadNVM_VarSystem		CODE           	6788	0000	302
		_cmdMemoryIsEmpty		CODE           	79CA	0000	146

controlMemory_MC50.c estimated size: 2168

sm_ControlGate_MC50.c
		_setPositionInvertionInOpening		CODE           	7204	0000	220
		_WaitPreFlash  		CODE           	82F8	0000	112
		_actionZone_Opened		CODE           	52FC	0000	494
		_actionZone_Closed		CODE           	76A2	0000	170
		_InitFullAutoTime		CODE           	9522	0000	26
		_InitSoftStop  		CODE           	8C16	0000	74
		_InitWalkAutoTime		CODE           	962C	0000	20
		_StopOrder     		CODE           	947E	0000	28
		_InitSoftStart 		CODE           	877A	0000	92
		_actionZone_Opening		CODE           	4A1E	0000	596
		_actionZone_Closing		CODE           	451C	0000	652
		_VerifyFollowMe		CODE           	93D2	0000	36
		_sm_execute_ControlGate		CODE           	3BB8	0000	842
		_CloseOrder    		CODE           	9314	0000	38
		_setPositionInvertionInClosing		CODE           	68B6	0000	296
		_OpenFullOrder 		CODE           	933A	0000	38
		_OpenWalkOrder 		CODE           	8448	0000	110

sm_ControlGate_MC50.c estimated size: 3844

mcc_generated_files/examples/i2c1_master_example.c
		_rdBlkRegCompleteHandler@i2c1_master_example$F535		CODE           	8DF8	0000	64
		_rd1RegCompleteHandler@i2c1_master_example$F500		CODE           	9190	0000	44
		_rd2RegCompleteHandler@i2c1_master_example$F511		CODE           	9164	0000	44
		_wr1RegCompleteHandler@i2c1_master_example$F517		CODE           	9138	0000	44
		_wr2RegCompleteHandler@i2c1_master_example$F523		CODE           	926C	0000	44
		_I2C1_Read1ByteRegister		CODE           	87D6	0000	92

mcc_generated_files/examples/i2c1_master_example.c estimated size: 332

controlCurrent_MC50.c
		_refreshADCZeroOffset		CODE           	6E28	0000	254
		_getCurrentComparator		CODE           	5BC0	0000	410
		_ControlCurrent		CODE           	6398	0000	372
		_refreshCurrent		CODE           	8CA8	0000	70
		_ReadADC       		CODE           	8990	0000	86
		_sumEnergyADC  		CODE           	7B78	0000	140
		_sumHIST       		CODE           	7022	0000	250
		_saveEnergyADCHist		CODE           	92EC	0000	40

controlCurrent_MC50.c estimated size: 1622

sm_Main_MC50.c
		_sm_execute_main		CODE           	29C4	0000	1288

sm_Main_MC50.c estimated size: 1288

outputs_MC50.c
		_getTimeDecelaration		CODE           	711C	0000	232
		_Segments_Set  		CODE           	96D0	0000	12
		_ControlMotor  		CODE           	4C72	0000	586
		_SetSegmentValueMain		CODE           	9508	0000	26
		_GetMotorPower 		CODE           	73AC	0000	198
		_ControlLights 		CODE           	3F02	0000	804
		_RGB_Set       		CODE           	969A	0000	14
		_refreshSegment		CODE           	7D1A	0000	134
		_setFlashLigth_ON		CODE           	8EB8	0000	60
		_getStateOpenPosition		CODE           	6B02	0000	272
		_controlMotorForce		CODE           	4EBC	0000	546
		_SetSegmentValueIntermitent		CODE           	905C	0000	44
		_SetSegmentValueLearn		CODE           	6F26	0000	252
		_SetSegmentValue		CODE           	953C	0000	26
		_VerifyElectricalBrake		CODE           	811E	0000	120
		_SetSegmentValueIntermitentMain		CODE           	9640	0000	20
		_setRGB_ON     		CODE           	7A5C	0000	144
		_controlVelocity		CODE           	50DE	0000	542
		_ControlDecelarationFactor		CODE           	9570	0000	24

outputs_MC50.c estimated size: 4056

mcc_generated_files/i2c1_master.c
		_I2C1_DO_SEND_RESTART		CODE           	9784	0000	8
		_I2C1_DO_TX_EMPTY		CODE           	86C0	0000	94
		_I2C1_DO_SEND_RESTART_READ		CODE           	9794	0000	8
		_I2C1_CallbackReturnStop		CODE           	97EE	0000	4
		_I2C1_DO_RX    		CODE           	80A4	0000	122
		_I2C1_DO_TX    		CODE           	7C04	0000	140
		_I2C1_SetAddressNackCallback		CODE           	95B8	0000	24
		_I2C1_DO_IDLE  		CODE           	974A	0000	10
		_I2C1_MasterOpen		CODE           	95D0	0000	24
		_I2C1_DO_RCEN  		CODE           	9740	0000	10
		_I2C1_MasterSendTxData		CODE           	979C	0000	8
		_I2C1_MasterStop		CODE           	97F2	0000	4
		_I2C1_CallbackReturnReset		CODE           	97EA	0000	4
		_I2C1_DO_RESET 		CODE           	9736	0000	10
		_I2C1_MasterStartRx		CODE           	97E6	0000	4
		_I2C1_Poller   		CODE           	968A	0000	16
		_I2C1_DO_RX_ACK		CODE           	9774	0000	8
		_I2C1_MasterWaitForEvent		CODE           	975C	0000	8
		_I2C1_MasterSendNack		CODE           	97BC	0000	6
		_I2C1_DO_RX_NACK_RESTART		CODE           	9764	0000	8
		_I2C1_MasterDisableIrq		CODE           	97FE	0000	4
		_I2C1_MasterOperation		CODE           	910C	0000	44
		_I2C1_SetCallback		CODE           	84B6	0000	110
		_I2C1_MasterEnableRestart		CODE           	97F6	0000	4
		_I2C1_Open     		CODE           	7E24	0000	132
		_I2C1_DO_ADDRESS_NACK		CODE           	8BC8	0000	78
		_I2C1_SetBuffer		CODE           	9556	0000	26
		_I2C1_DO_SEND_RESTART_WRITE		CODE           	978C	0000	8
		_I2C1_MasterClose		CODE           	9802	0000	4
		_I2C1_MasterWrite		CODE           	9754	0000	8
		_I2C1_Initialize		CODE           	9654	0000	20
		_I2C1_Close    		CODE           	943A	0000	34
		_I2C1_MasterIsNack		CODE           	96C4	0000	12
		_I2C1_MasterStart		CODE           	97FA	0000	4
		_I2C1_DO_SEND_ADR_WRITE		CODE           	96A8	0000	14
		_I2C1_MasterClearIrq		CODE           	97C2	0000	6
		_I2C1_SetDataCompleteCallback		CODE           	95E8	0000	24
		_I2C1_DO_SEND_STOP		CODE           	977C	0000	8
		_I2C1_MasterSendAck		CODE           	97B6	0000	6
		_I2C1_MasterFsm		CODE           	89E6	0000	84
		_I2C1_MasterGetRxData		CODE           	97E2	0000	4
		_I2C1_MasterSetIrq		CODE           	97B0	0000	6
		_I2C1_DO_SEND_ADR_READ		CODE           	96B6	0000	14
		_I2C1_DO_RX_NACK_STOP		CODE           	976C	0000	8

mcc_generated_files/i2c1_master.c estimated size: 1182

eusartparser.c
		_read_eusartparser		CODE           	2ECC	0000	1288
		_confirmpackage		CODE           	8B7A	0000	78
		_write_eusartparser		CODE           	33D4	0000	1060
		_eusartparser  		CODE           	1F94	0000	1316

eusartparser.c estimated size: 3742

mcc_generated_files/tmr2.c
		_TMR2_ISR      		CODE           	650C	0000	334
		_TMR2_Initialize		CODE           	90E0	0000	44
		_TMR2_SetInterruptHandler		CODE           	96E6	0000	10
		_TMR2_DefaultInterruptHandler		CODE           	980A	0000	2

mcc_generated_files/tmr2.c estimated size: 390

mcc_generated_files/interrupt_manager.c
		_INTERRUPT_Initialize		CODE           	97DE	0000	4
		_INTERRUPT_InterruptManager		CODE           	0008	0000	148

mcc_generated_files/interrupt_manager.c estimated size: 152

C:\Program Files\Microchip\xc8\v2.36\pic\sources\c99\common\Umul32.c
		___lmul        		CODE           	893A	0000	86

C:\Program Files\Microchip\xc8\v2.36\pic\sources\c99\common\Umul32.c estimated size: 86

inputs_MC50.c
		_ControlInputs 		CODE           	69DE	0000	292
		_readbutton    		CODE           	8524	0000	108
		_ClearFlag_rfCMD		CODE           	97AA	0000	6
		_getSerialCmd  		CODE           	8B2C	0000	78
		_rxi           		CODE           	47A8	0000	630
		_GetSecurityStateInClosing		CODE           	774C	0000	166
		_getTypeRemote 		CODE           	97A4	0000	6
		_GetOpenOrder  		CODE           	56BC	0000	456
		_readInputs    		CODE           	6D20	0000	264
		_InitReceiver  		CODE           	94EE	0000	26
		_GetSecurityStateInOpening		CODE           	77F2	0000	166
		_getKeyPressed 		CODE           	95A0	0000	24
		_readRFButtons 		CODE           	5EF4	0000	406

inputs_MC50.c estimated size: 2628

mcc_generated_files/tmr0.c
		_TMR0_SetInterruptHandler		CODE           	96FA	0000	10
		_TMR0_DefaultInterruptHandler		CODE           	980E	0000	2
		_TMR0_ISR      		CODE           	9386	0000	38
		_TMR0_Initialize		CODE           	9418	0000	34

mcc_generated_files/tmr0.c estimated size: 84

sm_MenuConfiguration_MC50.c
		_load_New_Menu 		CODE           	4226	0000	758
		_sm_execute_menuConfiguration		CODE           	0F22	0000	2404
		_controlSelectRemote		CODE           	37F8	0000	960
		_setValueToEdit		CODE           	24B8	0000	1292
		_controlSaveRemote		CODE           	75EE	0000	180
		_controlLearnDigit		CODE           	8FFE	0000	48

sm_MenuConfiguration_MC50.c estimated size: 5642

mcc_generated_files/pin_manager.c
		_PIN_MANAGER_Initialize		CODE           	7932	0000	152

mcc_generated_files/pin_manager.c estimated size: 152

main_MC50.c
		_decrementTimeslot		CODE           	92C2	0000	42
		_ShowVersion   		CODE           	85F8	0000	102
		_main          		CODE           	6214	0000	388
		_controlTimeslots		CODE           	5D5A	0000	410

main_MC50.c estimated size: 942

C:\Program Files\Microchip\xc8\v2.36\pic\sources\c99\common\__lldiv.c
		___lldiv       		CODE           	7EA8	0000	130

C:\Program Files\Microchip\xc8\v2.36\pic\sources\c99\common\__lldiv.c estimated size: 130

mcc_generated_files/drivers/i2c_simple_master.c
		_i2c_readDataBlock		CODE           	820E	0000	118
		_wr1RegCompleteHandler		CODE           	9240	0000	44
		_wr2RegCompleteHandler		CODE           	91BC	0000	44
		_i2c_writeNBytes		CODE           	8284	0000	116
		_rdBlkRegCompleteHandler		CODE           	8E38	0000	64
		_rd1RegCompleteHandler		CODE           	9214	0000	44
		_rd2RegCompleteHandler		CODE           	91E8	0000	44

mcc_generated_files/drivers/i2c_simple_master.c estimated size: 474

C:\Program Files\Microchip\xc8\v2.36\pic\sources\c99\common\lwdiv.c
		___lwdiv       		CODE           	8A3A	0000	82

C:\Program Files\Microchip\xc8\v2.36\pic\sources\c99\common\lwdiv.c estimated size: 82

C:\Program Files\Microchip\xc8\v2.36\pic\sources\c99\common\awdiv.c
		___awdiv       		CODE           	7DA0	0000	132

C:\Program Files\Microchip\xc8\v2.36\pic\sources\c99\common\awdiv.c estimated size: 132

C:\Program Files\Microchip\xc8\v2.36\pic\sources\c99\common\lbmod.c
		___lbmod       		CODE           	9298	0000	42

C:\Program Files\Microchip\xc8\v2.36\pic\sources\c99\common\lbmod.c estimated size: 42

shared
		i2_VerifyElectricalBrake		CODE           	8196	0000	120
		__initialization		CODE           	7538	0000	172
		_i2c1_fsmStateTable		SMALLCONST     	0F01	0000	32
		i2_GetMotorPower		CODE           	7472	0000	198

shared estimated size: 522

mcc_generated_files/eusart1.c
		_EUSART1_SetRxInterruptHandler		CODE           	970E	0000	10
		_EUSART1_SetTxInterruptHandler		CODE           	9704	0000	10
		_EUSART1_is_rx_ready		CODE           	967A	0000	16
		_EUSART1_Initialize		CODE           	7FAA	0000	126
		_EUSART1_DefaultErrorHandler		CODE           	97CE	0000	6
		_EUSART1_SetFramingErrorHandler		CODE           	9722	0000	10
		_EUSART1_Read  		CODE           	8C60	0000	72
		_EUSART1_SetOverrunErrorHandler		CODE           	9718	0000	10
		_EUSART1_SetErrorHandler		CODE           	972C	0000	10
		_EUSART1_Write 		CODE           	8DB8	0000	64
		_EUSART1_Receive_ISR		CODE           	7898	0000	154
		_EUSART1_RxDataHandler		CODE           	945C	0000	34
		_EUSART1_DefaultOverrunErrorHandler		CODE           	97C8	0000	6
		_EUSART1_Transmit_ISR		CODE           	8FCC	0000	50
		_EUSART1_DefaultFramingErrorHandler		CODE           	9810	0000	2

mcc_generated_files/eusart1.c estimated size: 580

mcc_generated_files/mcc.c
		_WWDT_TimerClear		CODE           	949A	0000	28
		_PMD_Initialize		CODE           	94B6	0000	28
		_OSCILLATOR_Initialize		CODE           	9600	0000	22
		_SYSTEM_Initialize		CODE           	902E	0000	46
		_WWDT_Initialize		CODE           	96DC	0000	10
		_WWDT_SoftEnable		CODE           	97DA	0000	4

mcc_generated_files/mcc.c estimated size: 138

sm_common_MC50.c
		_sm_restart    		CODE           	8CEE	0000	68
		_sm_get_current_state		CODE           	9668	0000	18
		_sm_init       		CODE           	88E4	0000	86
		_sm_send_event 		CODE           	871E	0000	92

sm_common_MC50.c estimated size: 264

mcc_generated_files/tmr1.c
		_TMR1_Initialize		CODE           	8D76	0000	66
		_TMR1_SetInterruptHandler		CODE           	96F0	0000	10
		_TMR1_DefaultInterruptHandler		CODE           	980C	0000	2
		_TMR1_WriteTimer		CODE           	94D2	0000	28
		_TMR1_ISR      		CODE           	8E78	0000	64

mcc_generated_files/tmr1.c estimated size: 170

eusartpackage.c
		_write_package 		CODE           	9088	0000	44
		_init_package  		CODE           	90B4	0000	44
		_read_package  		CODE           	8A8C	0000	80

eusartpackage.c estimated size: 168

keeloqDecrypt_MC50.c
		_NormalKeyGen  		CODE           	6C12	0000	270
		_keeloqDecryptPacket		CODE           	54EA	0000	466
		_DecCHK        		CODE           	8F9A	0000	50
		_Decrypt       		CODE           	72E0	0000	204
		_ReqResync     		CODE           	9588	0000	24
		_getHopCode    		CODE           	665A	0000	302
		_LoadManufCode 		CODE           	93F6	0000	34
		_keeloq_classic_decrypt_packet		CODE           	888C	0000	88
		_DecryptPacket_12BIT		CODE           	7AEC	0000	140
		_verifyProgramingMode		CODE           	8F66	0000	52
		_HopCHK        		CODE           	7C90	0000	138

keeloqDecrypt_MC50.c estimated size: 1768

mcc_generated_files/adcc.c
		_ADCC_GetSingleConversion		CODE           	9616	0000	22
		_ADCC_Initialize		CODE           	8ADC	0000	80

mcc_generated_files/adcc.c estimated size: 102

C:\Program Files\Microchip\xc8\v2.36\pic\sources\c99\common\memcpy.c
		_memcpy        		CODE           	8D32	0000	68

C:\Program Files\Microchip\xc8\v2.36\pic\sources\c99\common\memcpy.c estimated size: 68

C:\Program Files\Microchip\xc8\v2.36\pic\sources\c99\common\Umul16.c
		___wmul        		CODE           	9360	0000	38

C:\Program Files\Microchip\xc8\v2.36\pic\sources\c99\common\Umul16.c estimated size: 38

C:\Program Files\Microchip\xc8\v2.36\pic\sources\c99\common\lbdiv.c
		___lbdiv       		CODE           	8EF4	0000	58

C:\Program Files\Microchip\xc8\v2.36\pic\sources\c99\common\lbdiv.c estimated size: 58

sm_ControlLearning_MC50.c
		_sm_execute_ControlLearning		CODE           	1886	0000	1806
		_calculateMean 		CODE           	865E	0000	98
		_generateErrorLearnig		CODE           	8590	0000	104
		_clearLearningValue		CODE           	8028	0000	124

sm_ControlLearning_MC50.c estimated size: 2132

