Microchip MPLAB XC8 Compiler V2.36

Linker command line:

-W-3 --edf=C:\Program Files\Microchip\xc8\v2.36\pic\dat\en_msgs.txt -cn \
  -h+dist/default/debug\MC50UNI.V.0.2.3.X.debug.sym \
  --cmf=dist/default/debug\MC50UNI.V.0.2.3.X.debug.cmf -z -Q18F46K40 \
  -oC:\Users\RAFAEL~1\AppData\Local\Temp\xcAs3j4.4 --defsym=__MPLAB_BUILD=1 \
  -Mdist/default/debug/MC50UNI.V.0.2.3.X.debug.map \
  --md=C:\Users\RAFAEL~1\AppData\Local\Temp\xcAs3j4.dat -E1 \
  -ver=XC8 Compiler --acfsm=1493 -ACODE=00h-0FFFFh -ACONST=00h-0FFFFh \
  -ASMALLCONST=0F00h-0FFFhx241 -AMEDIUMCONST=0F00h-0FFFFh -ACOMRAM=01h-05Fh \
  -AABS1=00h-0E87h -ABIGRAM=01h-0E87h \
  -ARAM=060h-0FFh,0100h-01FFhx13,0E00h-0E87h -ABANK0=060h-0FFh \
  -ABANK1=0100h-01FFh -ABANK2=0200h-02FFh -ABANK3=0300h-03FFh \
  -ABANK4=0400h-04FFh -ABANK5=0500h-05FFh -ABANK6=0600h-06FFh \
  -ABANK7=0700h-07FFh -ABANK8=0800h-08FFh -ABANK9=0900h-09FFh \
  -ABANK10=0A00h-0AFFh -ABANK11=0B00h-0BFFh -ABANK12=0C00h-0CFFh \
  -ABANK13=0D00h-0DFFh -ABANK14=0E00h-0E87h \
  -ASFR=0E8Dh-0EFFh,0F00h-0F5Fh,0F60h-0FFFh -ABIGSFR=0E8Dh-0FFFh \
  -ACONFIG=0300000h-030000Bh -AIDLOC=0200000h-020000Fh \
  -AEEDATA=0310000h-03103FFh -peeprom_data=EEDATA \
  -preset_vec=00h,intcode=08h,intcodelo,powerup,init -pramtop=0F00h \
  -psmallconst=SMALLCONST -pmediumconst=MEDIUMCONST -pconst=CONST \
  -AFARRAM=00h-00h \
  -prdata=COMRAM,nvrram=COMRAM,nvbit=COMRAM,rbss=COMRAM,rbit=COMRAM \
  -pfarbss=FARRAM,fardata=FARRAM,nvFARRAM=FARRAM \
  -pintsave_regs=BIGRAM,bigbss=BIGRAM,bigdata=BIGRAM -pbss=RAM \
  -pidata=CODE,irdata=CODE,ibigdata=CODE,ifardata=CODE -prparam=COMRAM \
  C:\Users\RAFAEL~1\AppData\Local\Temp\xcAs3j4.o \
  dist/default/debug\MC50UNI.V.0.2.3.X.debug.o 

Object code version is 3.11

Machine type is 18F46K40



                Name                               Link     Load   Length Selector   Space Scale
C:\Users\RAFAEL~1\AppData\Local\Temp\xcAs3j4.o
                idloc                            200000   200000       10        0       5
                config                           300000   300000        C        0       4
                init                                 9C       9C        4        4       0
                reset_vec                             0        0        6        0       0
dist/default/debug\MC50UNI.V.0.2.3.X.debug.o
                intcode                               8        8       94        4       0
                idloc                            200000   200000       10        0       5
                config                           300000   300000        C        0       4
                temp                                 50       50        1        1       1
                smallconst                          F00      F00       22      780       0
                text209                            98FA     98FA       22     4C38       0
                text208                            9C70     9C70        6     4C38       0
                text207                            9CAA     9CAA        2     4C38       0
                text206                            9C6A     9C6A        6     4C38       0
                text205                            7D26     7D26       9A      791       0
                text204                            9496     9496       32      791       0
                text203                            9CA8     9CA8        2     4C38       0
                text202                            4C38     4C38      276      791       0
                text201                            9824     9824       26      791       0
                text200                            9CA6     9CA6        2     4C38       0
                text199                            9970     9970       1C     4C38       0
                text198                            7906     7906       C6      791       0
                text197                            8622     8622       78      791       0
                text196                            534C     534C      222      791       0
                text195                            9310     9310       40      791       0
                text194                            9AB2     9AB2       16     4C38       0
                text193                            8E76     8E76       56      791       0
                text192                            9CA4     9CA4        2     4C38       0
                text191                            9760     9760       2A      791       0
                text190                            61EA     61EA      19A      791       0
                text189                            9B6C     9B6C        C     4C38       0
                text188                            81A6     81A6       86      791       0
                text187                            69A0     69A0      14E      791       0
                text185                            9C64     9C64        6     4C38       0
                text184                            9C9E     9C9E        4     4C38       0
                text183                            9C9A     9C9A        4     4C38       0
                text182                            98D8     98D8       22     4C38       0
                text181                            9C96     9C96        4     4C38       0
                text180                            9C92     9C92        4     4C38       0
                text179                            9C8E     9C8E        4     4C38       0
                text178                            99F4     99F4       1A     4C38       0
                text177                            8942     8942       6E      791       0
                text176                            9A6E     9A6E       18     4C38       0
                text175                            970A     970A       2C      791       0
                text174                            96DE     96DE       2C      791       0
                text173                            96B2     96B2       2C      791       0
                text172                            9686     9686       2C      791       0
                text171                            965A     965A       2C      791       0
                text170                            92D0     92D0       40      791       0
                text169                            962E     962E       2C      791       0
                text168                            9602     9602       2C      791       0
                text167                            95D6     95D6       2C      791       0
                text166                            9290     9290       40      791       0
                text165                            9C8A     9C8A        4     4C38       0
                text164                            9C86     9C86        4     4C38       0
                text163                            9C82     9C82        4     4C38       0
                text162                            9C5E     9C5E        6     4C38       0
                text161                            9C7E     9C7E        4     4C38       0
                text160                            9C58     9C58        6     4C38       0
                text159                            9C38     9C38        8     4C38       0
                text158                            9B60     9B60        C     4C38       0
                text157                            9C52     9C52        6     4C38       0
                text156                            8B4C     8B4C       5E      791       0
                text155                            9BE6     9BE6        A     4C38       0
                text154                            9B52     9B52        E     4C38       0
                text153                            9B44     9B44        E     4C38       0
                text152                            8092     8092       8C      791       0
                text151                            8530     8530       7A      791       0
                text150                            9BDC     9BDC        A     4C38       0
                text149                            9C30     9C30        8     4C38       0
                text148                            9C28     9C28        8     4C38       0
                text147                            9C20     9C20        8     4C38       0
                text146                            9C18     9C18        8     4C38       0
                text145                            9C10     9C10        8     4C38       0
                text144                            9C08     9C08        8     4C38       0
                text143                            9C00     9C00        8     4C38       0
                text142                            9BD2     9BD2        A     4C38       0
                text141                            9060     9060       4E      791       0
                text140                            8ECC     8ECC       54      791       0
                text139                            9BF8     9BF8        8     4C38       0
                text138                            9B26     9B26       10     4C38       0
                text137                            95AA     95AA       2C      791       0
                text136                            9BF0     9BF0        8     4C38       0
                text135                            9A56     9A56       18     4C38       0
                text134                            82B0     82B0       84      791       0
                text133                            9A3E     9A3E       18     4C38       0
                text132                            91CA     91CA       44      791       0
                text131                            8710     8710       74      791       0
                text130                            93C6     93C6       38      791       0
                text129                            8D18     8D18       5A      791       0
                text128                            7840     7840       C6      791       0
                text127                            97FE     97FE       26      791       0
                text126                            6050     6050      19A      791       0
                text125                            8F20     8F20       52      791       0
                text124                            72BC     72BC       FE      791       0
                text123                            978A     978A       28      791       0
                text122                            8006     8006       8C      791       0
                text121                            74B6     74B6       FA      791       0
                text120                            9140     9140       46      791       0
                text119                            682C     682C      174      791       0
                text118                            6E72     6E72      124      791       0
                text117                            9350     9350       3C      791       0
                text116                            9B36     9B36        E     4C38       0
                text115                            7EEA     7EEA       90      791       0
                text114                            4392     4392      324      791       0
                text113                            85AA     85AA       78      791       0
                text112                            5102     5102      24A      791       0
                text111                            9B16     9B16       10     4C38       0
                text110                            8FC2     8FC2       50      791       0
                text109                            9BC8     9BC8        A     4C38       0
                text108                            9BBE     9BBE        A     4C38       0
                text107                            9BB4     9BB4        A     4C38       0
                text106                            9BAA     9BAA        A     4C38       0
                text105                            9BA0     9BA0        A     4C38       0
                text104                            8436     8436       7E      791       0
                text103                            9AF0     9AF0       14     4C38       0
                text102                            9C7A     9C7A        4     4C38       0
                text101                            9A9C     9A9C       16     4C38       0
                text100                            7DC0     7DC0       98      791       0
                text99                             9954     9954       1C     4C38       0
                text98                             9B96     9B96        A     4C38       0
                text97                             98B6     98B6       22     4C38       0
                text96                             9B8C     9B8C        A     4C38       0
                text95                             920E     920E       42      791       0
                text94                             9B82     9B82        A     4C38       0
                text93                             957E     957E       2C      791       0
                text92                             9B78     9B78        A     4C38       0
                text91                             94F8     94F8       2E      791       0
                text90                             99DA     99DA       1A     4C38       0
                text89                             8A84     8A84       66      791       0
                text88                             9C76     9C76        4     4C38       0
                text87                             9938     9938       1C     4C38       0
                text86                             869A     869A       76      791       0
                text85                             8864     8864       70      791       0
                text84                             83B6     83B6       80      791       0
                text83                             7E58     7E58       92      791       0
                text82                             9464     9464       32      791       0
                text81                             8CBE     8CBE       5A      791       0
                text80                             9250     9250       40      791       0
                text79                             9552     9552       2C      791       0
                text78                             28D8     28D8      578      791       0
                text77                             87F4     87F4       70      791       0
                text76                             5EB4     5EB4      19C      791       0
                text75                             3864     3864      424      791       0
                text74                             1886     1886      944      791       0
                text73                             9A26     9A26       18     4C38       0
                text72                             8C62     8C62       5C      791       0
                text71                             651A     651A      18A      791       0
                text70                             5D14     5D14      1A0      791       0
                text69                             6C1C     6C1C      12E      791       0
                text68                             71B4     71B4      108      791       0
                text67                             7F7A     7F7A       8C      791       0
                text66                             9432     9432       32      791       0
                text65                             9A86     9A86       16     4C38       0
                text64                             6AEE     6AEE      12E      791       0
                text63                             811E     811E       88      791       0
                text62                             7774     7774       CC      791       0
                text61                             9894     9894       22     4C38       0
                text60                             70A6     70A6      10E      791       0
                text59                             8D72     8D72       58      791       0
                text58                             93FE     93FE       34      791       0
                text57                             597A     597A      1D2      791       0
                text56                             6384     6384      196      791       0
                text55                             90F8     90F8       48      791       0
                text54                             8F72     8F72       50      791       0
                text53                             89B0     89B0       6C      791       0
                text52                             9ADC     9ADC       14     4C38       0
                text51                             938C     938C       3A      791       0
                text50                             5B4C     5B4C      1C8      791       0
                text49                             9526     9526       2C      791       0
                text48                             7C80     7C80       A6      791       0
                text47                             9AC8     9AC8       14     4C38       0
                text46                             8C06     8C06       5C      791       0
                text45                             9B04     9B04       12     4C38       0
                text44                             8BAA     8BAA       5C      791       0
                text43                             88D4     88D4       6E      791       0
                text42                             99C0     99C0       1A     4C38       0
                text41                             97D8     97D8       26      791       0
                text40                             8784     8784       70      791       0
                text39                             7B30     7B30       AA      791       0
                text38                             7BDA     7BDA       A6      791       0
                text37                             991C     991C       1C     4C38       0
                text36                             8E20     8E20       56      791       0
                text35                             75B0     75B0       E8      791       0
                text34                             6D4A     6D4A      128      791       0
                text33                             49AC     49AC      28C      791       0
                text32                             97B2     97B2       26      791       0
                text31                             9870     9870       24     4C38       0
                text30                             578C     578C      1EE      791       0
                text29                             9A0E     9A0E       18     4C38       0
                text28                             90AE     90AE       4A      791       0
                text27                             6F96     6F96      110      791       0
                text26                             556E     556E      21E      791       0
                text25                             7698     7698       DC      791       0
                text24                             4EAE     4EAE      254      791       0
                text23                             8AEA     8AEA       62      791       0
                text22                             84B4     84B4       7C      791       0
                text21                             9186     9186       44      791       0
                text20                             8DCA     8DCA       56      791       0
                text19                             8A1C     8A1C       68      791       0
                text18                             21CA     21CA      70E      791       0
                text17                             4048     4048      34A      791       0
                text16                             8334     8334       82      791       0
                text15                             73BA     73BA       FC      791       0
                text14                             94C8     94C8       30      791       0
                text13                             9C4C     9C4C        6     4C38       0
                text12                             99A6     99A6       1A     4C38       0
                text11                             822C     822C       84      791       0
                text10                             9736     9736       2A      791       0
                text9                              79CC     79CC       B4      791       0
                text8                              9012     9012       4E      791       0
                text7                              9C46     9C46        6     4C38       0
                text6                              3C88     3C88      3C0      791       0
                text5                              998C     998C       1A     4C38       0
                text4                              46B6     46B6      2F6      791       0
                text3                              2E50     2E50      50C      791       0
                text2                               F22      F22      964      791       0
                text1                              335C     335C      508      791       0
                text0                              66A4     66A4      188      791       0
                cstackCOMRAM                          1        1       3A        1       1
                cstackBANK0                          D8       D8       24       60       1
                cstackBANK2                         2ED      2ED        7      200       1
                dataBANK3                           3D2      3D2       25      300       1
                bssBANK3                            300      300       D2      300       1
                dataBANK2                           2F4      2F4        6      200       1
                bssBANK2                            200      200       DB      200       1
                dataBANK1                           1FF      1FF        1      100       1
                bssBANK1                            100      100       FE      100       1
                dataBANK0                            FC       FC        2       60       1
                bssBANK0                             60       60       78       60       1
                bssCOMRAM                            3B       3B       15        1       1
                cinit                              7A80     7A80       B0      791       0
                nvBANK2                             2DB      2DB       12      200       1
                nvBANK1                             1FE      1FE        1      100       1
                idataBANK3                         984A     984A       25      791       0
                idataBANK2                         9C40     9C40        6     4C38       0
                idataBANK1                         9CAC     9CAC        1     4C38       0
                idataBANK0                         9CA2     9CA2        2     4C38       0

TOTAL           Name                               Link     Load   Length     Space
        CLASS   CODE           
                intcode                               8        8       94         0
                init                                 9C       9C        4         0
                reset_vec                             0        0        6         0
                text209                            98FA     98FA       22         0
                text208                            9C70     9C70        6         0
                text207                            9CAA     9CAA        2         0
                text206                            9C6A     9C6A        6         0
                text205                            7D26     7D26       9A         0
                text204                            9496     9496       32         0
                text203                            9CA8     9CA8        2         0
                text202                            4C38     4C38      276         0
                text201                            9824     9824       26         0
                text200                            9CA6     9CA6        2         0
                text199                            9970     9970       1C         0
                text198                            7906     7906       C6         0
                text197                            8622     8622       78         0
                text196                            534C     534C      222         0
                text195                            9310     9310       40         0
                text194                            9AB2     9AB2       16         0
                text193                            8E76     8E76       56         0
                text192                            9CA4     9CA4        2         0
                text191                            9760     9760       2A         0
                text190                            61EA     61EA      19A         0
                text189                            9B6C     9B6C        C         0
                text188                            81A6     81A6       86         0
                text187                            69A0     69A0      14E         0
                text185                            9C64     9C64        6         0
                text184                            9C9E     9C9E        4         0
                text183                            9C9A     9C9A        4         0
                text182                            98D8     98D8       22         0
                text181                            9C96     9C96        4         0
                text180                            9C92     9C92        4         0
                text179                            9C8E     9C8E        4         0
                text178                            99F4     99F4       1A         0
                text177                            8942     8942       6E         0
                text176                            9A6E     9A6E       18         0
                text175                            970A     970A       2C         0
                text174                            96DE     96DE       2C         0
                text173                            96B2     96B2       2C         0
                text172                            9686     9686       2C         0
                text171                            965A     965A       2C         0
                text170                            92D0     92D0       40         0
                text169                            962E     962E       2C         0
                text168                            9602     9602       2C         0
                text167                            95D6     95D6       2C         0
                text166                            9290     9290       40         0
                text165                            9C8A     9C8A        4         0
                text164                            9C86     9C86        4         0
                text163                            9C82     9C82        4         0
                text162                            9C5E     9C5E        6         0
                text161                            9C7E     9C7E        4         0
                text160                            9C58     9C58        6         0
                text159                            9C38     9C38        8         0
                text158                            9B60     9B60        C         0
                text157                            9C52     9C52        6         0
                text156                            8B4C     8B4C       5E         0
                text155                            9BE6     9BE6        A         0
                text154                            9B52     9B52        E         0
                text153                            9B44     9B44        E         0
                text152                            8092     8092       8C         0
                text151                            8530     8530       7A         0
                text150                            9BDC     9BDC        A         0
                text149                            9C30     9C30        8         0
                text148                            9C28     9C28        8         0
                text147                            9C20     9C20        8         0
                text146                            9C18     9C18        8         0
                text145                            9C10     9C10        8         0
                text144                            9C08     9C08        8         0
                text143                            9C00     9C00        8         0
                text142                            9BD2     9BD2        A         0
                text141                            9060     9060       4E         0
                text140                            8ECC     8ECC       54         0
                text139                            9BF8     9BF8        8         0
                text138                            9B26     9B26       10         0
                text137                            95AA     95AA       2C         0
                text136                            9BF0     9BF0        8         0
                text135                            9A56     9A56       18         0
                text134                            82B0     82B0       84         0
                text133                            9A3E     9A3E       18         0
                text132                            91CA     91CA       44         0
                text131                            8710     8710       74         0
                text130                            93C6     93C6       38         0
                text129                            8D18     8D18       5A         0
                text128                            7840     7840       C6         0
                text127                            97FE     97FE       26         0
                text126                            6050     6050      19A         0
                text125                            8F20     8F20       52         0
                text124                            72BC     72BC       FE         0
                text123                            978A     978A       28         0
                text122                            8006     8006       8C         0
                text121                            74B6     74B6       FA         0
                text120                            9140     9140       46         0
                text119                            682C     682C      174         0
                text118                            6E72     6E72      124         0
                text117                            9350     9350       3C         0
                text116                            9B36     9B36        E         0
                text115                            7EEA     7EEA       90         0
                text114                            4392     4392      324         0
                text113                            85AA     85AA       78         0
                text112                            5102     5102      24A         0
                text111                            9B16     9B16       10         0
                text110                            8FC2     8FC2       50         0
                text109                            9BC8     9BC8        A         0
                text108                            9BBE     9BBE        A         0
                text107                            9BB4     9BB4        A         0
                text106                            9BAA     9BAA        A         0
                text105                            9BA0     9BA0        A         0
                text104                            8436     8436       7E         0
                text103                            9AF0     9AF0       14         0
                text102                            9C7A     9C7A        4         0
                text101                            9A9C     9A9C       16         0
                text100                            7DC0     7DC0       98         0
                text99                             9954     9954       1C         0
                text98                             9B96     9B96        A         0
                text97                             98B6     98B6       22         0
                text96                             9B8C     9B8C        A         0
                text95                             920E     920E       42         0
                text94                             9B82     9B82        A         0
                text93                             957E     957E       2C         0
                text92                             9B78     9B78        A         0
                text91                             94F8     94F8       2E         0
                text90                             99DA     99DA       1A         0
                text89                             8A84     8A84       66         0
                text88                             9C76     9C76        4         0
                text87                             9938     9938       1C         0
                text86                             869A     869A       76         0
                text85                             8864     8864       70         0
                text84                             83B6     83B6       80         0
                text83                             7E58     7E58       92         0
                text82                             9464     9464       32         0
                text81                             8CBE     8CBE       5A         0
                text80                             9250     9250       40         0
                text79                             9552     9552       2C         0
                text78                             28D8     28D8      578         0
                text77                             87F4     87F4       70         0
                text76                             5EB4     5EB4      19C         0
                text75                             3864     3864      424         0
                text74                             1886     1886      944         0
                text73                             9A26     9A26       18         0
                text72                             8C62     8C62       5C         0
                text71                             651A     651A      18A         0
                text70                             5D14     5D14      1A0         0
                text69                             6C1C     6C1C      12E         0
                text68                             71B4     71B4      108         0
                text67                             7F7A     7F7A       8C         0
                text66                             9432     9432       32         0
                text65                             9A86     9A86       16         0
                text64                             6AEE     6AEE      12E         0
                text63                             811E     811E       88         0
                text62                             7774     7774       CC         0
                text61                             9894     9894       22         0
                text60                             70A6     70A6      10E         0
                text59                             8D72     8D72       58         0
                text58                             93FE     93FE       34         0
                text57                             597A     597A      1D2         0
                text56                             6384     6384      196         0
                text55                             90F8     90F8       48         0
                text54                             8F72     8F72       50         0
                text53                             89B0     89B0       6C         0
                text52                             9ADC     9ADC       14         0
                text51                             938C     938C       3A         0
                text50                             5B4C     5B4C      1C8         0
                text49                             9526     9526       2C         0
                text48                             7C80     7C80       A6         0
                text47                             9AC8     9AC8       14         0
                text46                             8C06     8C06       5C         0
                text45                             9B04     9B04       12         0
                text44                             8BAA     8BAA       5C         0
                text43                             88D4     88D4       6E         0
                text42                             99C0     99C0       1A         0
                text41                             97D8     97D8       26         0
                text40                             8784     8784       70         0
                text39                             7B30     7B30       AA         0
                text38                             7BDA     7BDA       A6         0
                text37                             991C     991C       1C         0
                text36                             8E20     8E20       56         0
                text35                             75B0     75B0       E8         0
                text34                             6D4A     6D4A      128         0
                text33                             49AC     49AC      28C         0
                text32                             97B2     97B2       26         0
                text31                             9870     9870       24         0
                text30                             578C     578C      1EE         0
                text29                             9A0E     9A0E       18         0
                text28                             90AE     90AE       4A         0
                text27                             6F96     6F96      110         0
                text26                             556E     556E      21E         0
                text25                             7698     7698       DC         0
                text24                             4EAE     4EAE      254         0
                text23                             8AEA     8AEA       62         0
                text22                             84B4     84B4       7C         0
                text21                             9186     9186       44         0
                text20                             8DCA     8DCA       56         0
                text19                             8A1C     8A1C       68         0
                text18                             21CA     21CA      70E         0
                text17                             4048     4048      34A         0
                text16                             8334     8334       82         0
                text15                             73BA     73BA       FC         0
                text14                             94C8     94C8       30         0
                text13                             9C4C     9C4C        6         0
                text12                             99A6     99A6       1A         0
                text11                             822C     822C       84         0
                text10                             9736     9736       2A         0
                text9                              79CC     79CC       B4         0
                text8                              9012     9012       4E         0
                text7                              9C46     9C46        6         0
                text6                              3C88     3C88      3C0         0
                text5                              998C     998C       1A         0
                text4                              46B6     46B6      2F6         0
                text3                              2E50     2E50      50C         0
                text2                               F22      F22      964         0
                text1                              335C     335C      508         0
                text0                              66A4     66A4      188         0
                cinit                              7A80     7A80       B0         0
                idataBANK3                         984A     984A       25         0
                idataBANK2                         9C40     9C40        6         0
                idataBANK1                         9CAC     9CAC        1         0
                idataBANK0                         9CA2     9CA2        2         0

        CLASS   CONST          

        CLASS   SMALLCONST     
                smallconst                          F00      F00       22         0

        CLASS   MEDIUMCONST    

        CLASS   COMRAM         
                temp                                 50       50        1         1
                cstackCOMRAM                          1        1       3A         1
                bssCOMRAM                            3B       3B       15         1

        CLASS   ABS1           

        CLASS   BIGRAM         

        CLASS   RAM            

        CLASS   BANK0          
                cstackBANK0                          D8       D8       24         1
                dataBANK0                            FC       FC        2         1
                bssBANK0                             60       60       78         1

        CLASS   BANK1          
                dataBANK1                           1FF      1FF        1         1
                bssBANK1                            100      100       FE         1
                nvBANK1                             1FE      1FE        1         1

        CLASS   BANK2          
                cstackBANK2                         2ED      2ED        7         1
                dataBANK2                           2F4      2F4        6         1
                bssBANK2                            200      200       DB         1
                nvBANK2                             2DB      2DB       12         1

        CLASS   BANK3          
                dataBANK3                           3D2      3D2       25         1
                bssBANK3                            300      300       D2         1

        CLASS   BANK4          

        CLASS   BANK5          

        CLASS   BANK6          

        CLASS   BANK7          

        CLASS   BANK8          

        CLASS   BANK9          

        CLASS   BANK10         

        CLASS   BANK11         

        CLASS   BANK12         

        CLASS   BANK13         

        CLASS   BANK14         

        CLASS   SFR            

        CLASS   BIGSFR         

        CLASS   CONFIG         
                config                           300000   300000        C         4

        CLASS   IDLOC          
                idloc                            200000   200000       10         5

        CLASS   EEDATA         

        CLASS   FARRAM         

        CLASS   HEAP           

        CLASS   STACK          



SEGMENTS        Name                           Load    Length   Top    Selector   Space  Class

                reset_vec                      000000  000006  000006         0       0  CODE    
                cstackCOMRAM                   000001  000050  000051         1       1  COMRAM  
                intcode                        000008  000098  0000A0         4       0  CODE    
                bssBANK0                       000060  00009E  0000FE        60       1  BANK0   
                bssBANK1                       000100  000100  000200       100       1  BANK1   
                bssBANK2                       000200  0000FA  0002FA       200       1  BANK2   
                bssBANK3                       000300  0000F7  0003F7       300       1  BANK3   
                smallconst                     000F00  000022  000F22       780       0  SMALLCON
                text2                          000F22  00894D  00986F       791       0  CODE    
                text31                         009870  00043D  009CAD      4C38       0  CODE    


UNUSED ADDRESS RANGES

        Name                Unused          Largest block    Delta
        BANK0            0000FE-0000FF                2
        BANK10           000A00-000AFF              100
        BANK11           000B00-000BFF              100
        BANK12           000C00-000CFF              100
        BANK13           000D00-000DFF              100
        BANK14           000E00-000E87               88
        BANK2            0002FA-0002FF                6
        BANK3            0003F7-0003FF                9
        BANK4            000400-0004FF              100
        BANK5            000500-0005FF              100
        BANK6            000600-0006FF              100
        BANK7            000700-0007FF              100
        BANK8            000800-0008FF              100
        BANK9            000900-0009FF              100
        BIGRAM           000051-00005F                F
                         0000FE-0000FF                2
                         0002FA-0002FF                6
                         0003F7-000E87              A91
        BIGSFR           000E8D-000FFF              173
        CODE             000006-000007                2
                         0000A0-000EFF              E60
                         00986F-00986F                1
                         009CAD-00FFFF             6353
        COMRAM           000051-00005F                F
        CONST            000006-000007                2
                         0000A0-000EFF              E60
                         00986F-00986F                1
                         009CAD-00FFFF             6353
        EEDATA           310000-3103FF              400
        MEDIUMCONST      00986F-00986F                1
                         009CAD-00FFFF             6353
        RAM              0000FE-0000FF                2
                         0002FA-0002FF                6
                         0003F7-000E87              100
        SFR              000E8D-000FFF               73
        SMALLCONST       00986F-00986F                1
                         009CAD-00FFFF              100

                                  Symbol Table

?___awdiv                                                 cstackCOMRAM 000014
?___lldiv                                                 cstackCOMRAM 000010
?___lmul                                                  cstackCOMRAM 00001D
?___lwdiv                                                 cstackCOMRAM 000010
?___wmul                                                  cstackCOMRAM 000010
?_calculateMean                                           cstackCOMRAM 000010
?_getCurrentComparator                                    cstackCOMRAM 000016
?_getHopCode                                              cstackCOMRAM 000016
?_getTimeDecelaration                                     cstackCOMRAM 000029
?_read_package                                            cstackCOMRAM 000011
?_sm_get_current_state                                    cstackCOMRAM 000010
?_sumEnergyADC                                            cstackCOMRAM 000010
?_sumHIST                                                 cstackCOMRAM 000010
ADCC_GetSingleConversion@channel                          cstackCOMRAM 000001
ControlMotor@stateMotor                                   cstackCOMRAM 000018
DecCHK@data                                               cstackCOMRAM 000010
Decrypt@Buffer                                            cstackCOMRAM 000022
Decrypt@aux                                               cstackCOMRAM 000021
Decrypt@i                                                 cstackCOMRAM 00001E
Decrypt@j                                                 cstackCOMRAM 00001F
Decrypt@key                                               cstackCOMRAM 00001D
Decrypt@p                                                 cstackCOMRAM 000020
Decrypt@packet                                            cstackCOMRAM 00001B
DecryptPacket_12BIT@classic_data                          cstackBANK0  0000E2
DecryptPacket_12BIT@commandType                           cstackBANK0  0000E4
DecryptPacket_12BIT@data                                  cstackBANK0  0000E0
EUSART1_Read@readValue                                    cstackCOMRAM 000010
EUSART1_SetErrorHandler@interruptHandler                  cstackCOMRAM 000010
EUSART1_SetFramingErrorHandler@interruptHandler           cstackCOMRAM 000010
EUSART1_SetOverrunErrorHandler@interruptHandler           cstackCOMRAM 000010
EUSART1_SetRxInterruptHandler@interruptHandler            cstackCOMRAM 000010
EUSART1_SetTxInterruptHandler@interruptHandler            cstackCOMRAM 000010
EUSART1_Write@txData                                      cstackCOMRAM 000010
GetMotorPower@defineatraso                                cstackCOMRAM 000013
HopCHK@data                                               cstackCOMRAM 000024
HopCHK@hopDiff                                            cstackCOMRAM 000026
I2C1_CallbackReturnReset@funPtr                           cstackCOMRAM 000019
I2C1_Close@returnValue                                    cstackCOMRAM 000010
I2C1_MasterOperation@read                                 cstackCOMRAM 000020
I2C1_MasterOperation@returnValue                          cstackCOMRAM 000021
I2C1_MasterSendTxData@data                                cstackCOMRAM 000010
I2C1_Open@address                                         cstackCOMRAM 000010
I2C1_Open@returnValue                                     cstackCOMRAM 000011
I2C1_Read1ByteRegister@address                            cstackCOMRAM 000023
I2C1_Read1ByteRegister@reg                                cstackCOMRAM 000022
I2C1_Read1ByteRegister@returnValue                        cstackCOMRAM 000024
I2C1_SetAddressNackCallback@cb                            cstackCOMRAM 000015
I2C1_SetAddressNackCallback@ptr                           cstackCOMRAM 000017
I2C1_SetBuffer@buffer                                     cstackCOMRAM 000010
I2C1_SetBuffer@bufferSize                                 cstackCOMRAM 000012
I2C1_SetCallback@cb                                       cstackCOMRAM 000010
I2C1_SetCallback@idx                                      cstackCOMRAM 000014
I2C1_SetCallback@ptr                                      cstackCOMRAM 000012
I2C1_SetDataCompleteCallback@cb                           cstackCOMRAM 000015
I2C1_SetDataCompleteCallback@ptr                          cstackCOMRAM 000017
NormalKeyGen@Buffer                                       cstackCOMRAM 000030
NormalKeyGen@HOPtemp                                      cstackCOMRAM 000028
NormalKeyGen@SEED                                         bssBANK2     0002D7
NormalKeyGen@SKEYtemp                                     cstackCOMRAM 00002C
NormalKeyGen@serial                                       cstackCOMRAM 000026
OpenWalkOrder@diffTime                                    cstackCOMRAM 00001A
RGB_Set@value                                             cstackCOMRAM 000010
ReadSerial@cmdType                                        cstackCOMRAM 000032
ReadSerial@position                                       cstackCOMRAM 00002F
ReadSerial@tempSerial                                     cstackCOMRAM 00002E
RemoveSerial@cmdType                                      cstackBANK0  0000DA
RemoveSerial@position                                     cstackCOMRAM 00003A
RemoveSerial@tempSerial                                   cstackBANK0  0000DB
ReqResync@CurrentHop                                      cstackCOMRAM 000010
ResetDefaultMemory@type                                   cstackCOMRAM 00003A
SaveNVM_VarSystem@page                                    cstackBANK0  0000D8
SaveNVM_VarSystem@point                                   cstackBANK0  0000DB
SaveNVM_VarSystem@tempAdd                                 cstackBANK0  0000D9
Segments_Set@value                                        cstackCOMRAM 000001
SetSegmentValue@d1                                        cstackCOMRAM 00001D
SetSegmentValue@d2                                        cstackCOMRAM 00001C
SetSegmentValueIntermitent@d1                             cstackCOMRAM 000013
SetSegmentValueIntermitent@d2                             cstackCOMRAM 000010
SetSegmentValueIntermitent@time                           cstackCOMRAM 000011
SetSegmentValueIntermitentMain@d1                         cstackCOMRAM 00001F
SetSegmentValueIntermitentMain@d2                         cstackCOMRAM 00001C
SetSegmentValueIntermitentMain@time                       cstackCOMRAM 00001D
SetSegmentValueLearn@direction                            cstackCOMRAM 000012
SetSegmentValueMain@d1                                    cstackCOMRAM 00001D
SetSegmentValueMain@d2                                    cstackCOMRAM 00001C
TMR0_SetInterruptHandler@InterruptHandler                 cstackCOMRAM 000010
TMR1_SetInterruptHandler@InterruptHandler                 cstackCOMRAM 000010
TMR1_WriteTimer@timerVal                                  cstackCOMRAM 000001
TMR2_SetInterruptHandler@InterruptHandler                 cstackCOMRAM 000010
VerifyElectricalBrake@actualState                         cstackCOMRAM 000011
VerifyElectricalBrake@tempState                           cstackCOMRAM 000010
VerifyFollowMe@securityClose                              cstackCOMRAM 000010
WWDT_TimerClear@state                                     cstackCOMRAM 000010
_ADACCH                                                   (abs)        000F71
_ADACCL                                                   (abs)        000F70
_ADACQ                                                    (abs)        000F5C
_ADACT                                                    (abs)        000F56
_ADCAP                                                    (abs)        000F5D
_ADCC_GetSingleConversion                                 text194      009AB2
_ADCC_Initialize                                          text110      008FC2
_ADCLK                                                    (abs)        000F57
_ADCNT                                                    (abs)        000F67
_ADCON0                                                   (abs)        000F60
_ADCON0bits                                               (abs)        000F60
_ADCON1                                                   (abs)        000F59
_ADCON2                                                   (abs)        000F5A
_ADCON3                                                   (abs)        000F5B
_ADC_array                                                bssBANK2     000200
_ADC_zero_array                                           bssBANK3     000396
_ADERRH                                                   (abs)        000F6F
_ADERRL                                                   (abs)        000F6E
_ADFLTRH                                                  (abs)        000F73
_ADFLTRL                                                  (abs)        000F72
_ADLTHH                                                   (abs)        000F6B
_ADLTHL                                                   (abs)        000F6A
_ADPCH                                                    (abs)        000F5F
_ADPRE                                                    (abs)        000F5E
_ADPREVH                                                  (abs)        000F62
_ADPREVL                                                  (abs)        000F61
_ADREF                                                    (abs)        000F58
_ADRESH                                                   (abs)        000F64
_ADRESL                                                   (abs)        000F63
_ADRPT                                                    (abs)        000F66
_ADSTAT                                                   (abs)        000F65
_ADSTPTH                                                  (abs)        000F69
_ADSTPTL                                                  (abs)        000F68
_ADUTHH                                                   (abs)        000F6D
_ADUTHL                                                   (abs)        000F6C
_ANSELA                                                   (abs)        000F11
_ANSELB                                                   (abs)        000F19
_ANSELC                                                   (abs)        000F21
_ANSELD                                                   (abs)        000F26
_ANSELE                                                   (abs)        000F2E
_Abertura_pedonal                                         bssBANK1     000192
_BAUD1CON                                                 (abs)        000F9F
_BitCount                                                 bssBANK0     00008C
_Bptr                                                     bssBANK0     00008D
_BufferRF                                                 bssBANK2     0002C6
_BufferRF_12BIT                                           bssBANK1     00018B
_ClearFlag_rfCMD                                          text13       009C4C
_CloseOrder                                               text32       0097B2
_ControlCounterMoves                                      text129      008D18
_ControlCurrent                                           text119      00682C
_ControlDecelarationFactor                                text29       009A0E
_ControlInputs                                            text118      006E72
_ControlLights                                            text114      004392
_ControlMotor                                             text112      005102
_Counterchoose                                            bssBANK0     000092
_DKEY                                                     bssBANK2     0002CF
_DecCHK                                                   text66       009432
_Decrypt                                                  text62       007774
_DecryptPacket_12BIT                                      text67       007F7A
_DispTable                                                dataBANK3    0003D2
_EHop                                                     bssBANK2     00028C
_EUSART1_DefaultErrorHandler                              text208      009C70
_EUSART1_DefaultFramingErrorHandler                       text207      009CAA
_EUSART1_DefaultOverrunErrorHandler                       text206      009C6A
_EUSART1_ErrorHandler                                     nvBANK2      0002E3
_EUSART1_FramingErrorHandler                              nvBANK2      0002E7
_EUSART1_Initialize                                       text104      008436
_EUSART1_OverrunErrorHandler                              nvBANK2      0002E5
_EUSART1_Read                                             text55       0090F8
_EUSART1_Receive_ISR                                      text205      007D26
_EUSART1_RxDataHandler                                    text209      0098FA
_EUSART1_RxDefaultInterruptHandler                        nvBANK2      0002E9
_EUSART1_SetErrorHandler                                  text109      009BC8
_EUSART1_SetFramingErrorHandler                           text108      009BBE
_EUSART1_SetOverrunErrorHandler                           text107      009BB4
_EUSART1_SetRxInterruptHandler                            text106      009BAA
_EUSART1_SetTxInterruptHandler                            text105      009BA0
_EUSART1_Transmit_ISR                                     text204      009496
_EUSART1_TxDefaultInterruptHandler                        nvBANK2      0002EB
_EUSART1_Write                                            text80       009250
_EUSART1_is_rx_ready                                      text111      009B16
_F2Chance                                                 bssBANK1     00019A
_GIE                                                      (abs)        007F97
_GetMotorPower                                            text128      007840
_GetOpenOrder                                             text50       005B4C
_GetSecurityStateInClosing                                text38       007BDA
_GetSecurityStateInOpening                                text48       007C80
_Hop                                                      bssBANK0     00007C
_HopCHK                                                   text63       00811E
_I2C1_CallbackReturnReset                                 text164      009C86
_I2C1_CallbackReturnStop                                  text165      009C8A
_I2C1_Close                                               text182      0098D8
_I2C1_DO_ADDRESS_NACK                                     text141      009060
_I2C1_DO_IDLE                                             text155      009BE6
_I2C1_DO_RCEN                                             text150      009BDC
_I2C1_DO_RESET                                            text142      009BD2
_I2C1_DO_RX                                               text151      008530
_I2C1_DO_RX_ACK                                           text145      009C10
_I2C1_DO_RX_NACK_RESTART                                  text143      009C00
_I2C1_DO_RX_NACK_STOP                                     text144      009C08
_I2C1_DO_SEND_ADR_READ                                    text154      009B52
_I2C1_DO_SEND_ADR_WRITE                                   text153      009B44
_I2C1_DO_SEND_RESTART                                     text147      009C20
_I2C1_DO_SEND_RESTART_READ                                text149      009C30
_I2C1_DO_SEND_RESTART_WRITE                               text148      009C28
_I2C1_DO_SEND_STOP                                        text146      009C18
_I2C1_DO_TX                                               text152      008092
_I2C1_DO_TX_EMPTY                                         text156      008B4C
_I2C1_Initialize                                          text103      009AF0
_I2C1_MasterClearIrq                                      text185      009C64
_I2C1_MasterClose                                         text184      009C9E
_I2C1_MasterDisableIrq                                    text183      009C9A
_I2C1_MasterEnableRestart                                 text180      009C92
_I2C1_MasterFsm                                           text140      008ECC
_I2C1_MasterGetRxData                                     text161      009C7E
_I2C1_MasterIsNack                                        text158      009B60
_I2C1_MasterOpen                                          text135      009A56
_I2C1_MasterOperation                                     text137      0095AA
_I2C1_MasterSendAck                                       text160      009C58
_I2C1_MasterSendNack                                      text162      009C5E
_I2C1_MasterSendTxData                                    text159      009C38
_I2C1_MasterSetIrq                                        text157      009C52
_I2C1_MasterStart                                         text181      009C96
_I2C1_MasterStartRx                                       text163      009C82
_I2C1_MasterStop                                          text179      009C8E
_I2C1_MasterWaitForEvent                                  text139      009BF8
_I2C1_MasterWrite                                         text136      009BF0
_I2C1_Open                                                text134      0082B0
_I2C1_Poller                                              text138      009B26
_I2C1_Read1ByteRegister                                   text72       008C62
_I2C1_SetAddressNackCallback                              text133      009A3E
_I2C1_SetBuffer                                           text178      0099F4
_I2C1_SetCallback                                         text177      008942
_I2C1_SetDataCompleteCallback                             text176      009A6E
_I2C1_Status                                              bssBANK2     00023C
_INLVLA                                                   (abs)        000F0D
_INLVLB                                                   (abs)        000F15
_INLVLC                                                   (abs)        000F1D
_INLVLD                                                   (abs)        000F22
_INLVLE                                                   (abs)        000F2A
_INTCONbits                                               (abs)        000FF2
_INTERRUPT_Initialize                                     text102      009C7A
_INTERRUPT_InterruptManager                               intcode      000008
_IOCBN3                                                   (abs)        00789B
_IOCBP3                                                   (abs)        0078A3
_InitFullAutoTime                                         text42       0099C0
_InitReceiver                                             text5        00998C
_InitSoftStart                                            text46       008C06
_InitSoftStop                                             text28       0090AE
_InitWalkAutoTime                                         text47       009AC8
_LATA                                                     (abs)        000F83
_LATAbits                                                 (abs)        000F83
_LATB                                                     (abs)        000F84
_LATC                                                     (abs)        000F85
_LATCbits                                                 (abs)        000F85
_LATD                                                     (abs)        000F86
_LATDbits                                                 (abs)        000F86
_LATE                                                     (abs)        000F87
_LATEbits                                                 (abs)        000F87
_LoadManufCode                                            text61       009894
_NextHop                                                  bssBANK1     000187
_NormalKeyGen                                             text60       0070A6
_ODCONA                                                   (abs)        000F0F
_ODCONB                                                   (abs)        000F17
_ODCONC                                                   (abs)        000F1F
_ODCOND                                                   (abs)        000F24
_ODCONE                                                   (abs)        000F2C
_OSCCON1                                                  (abs)        000ED8
_OSCCON3                                                  (abs)        000EDA
_OSCEN                                                    (abs)        000EDC
_OSCFRQ                                                   (abs)        000EDE
_OSCILLATOR_Initialize                                    text101      009A9C
_OSCTUNE                                                  (abs)        000EDD
_OpenFullOrder                                            text41       0097D8
_OpenWalkOrder                                            text43       0088D4
_PCON0bits                                                (abs)        000FD7
_PIE0bits                                                 (abs)        000EC2
_PIE3bits                                                 (abs)        000EC5
_PIE4bits                                                 (abs)        000EC6
_PIN_MANAGER_Initialize                                   text100      007DC0
_PIR0bits                                                 (abs)        000ECA
_PIR3bits                                                 (abs)        000ECD
_PIR4bits                                                 (abs)        000ECE
_PMD0                                                     (abs)        000EE1
_PMD1                                                     (abs)        000EE2
_PMD2                                                     (abs)        000EE3
_PMD3                                                     (abs)        000EE4
_PMD4                                                     (abs)        000EE5
_PMD5                                                     (abs)        000EE6
_PMD_Initialize                                           text99       009954
_PORTAbits                                                (abs)        000F8D
_PORTB                                                    (abs)        000F8E
_PORTBbits                                                (abs)        000F8E
_PORTEbits                                                (abs)        000F91
_RC1REG                                                   (abs)        000F99
_RC1STA                                                   (abs)        000F9D
_RC1STAbits                                               (abs)        000F9D
_RC3PPS                                                   (abs)        000EFA
_RC4PPS                                                   (abs)        000EFB
_RC7PPS                                                   (abs)        000EFE
_RFBit                                                    bssBANK0     000089
_RFFull                                                   bssBANK0     00008B
_RFFull_12BIT                                             bssBANK0     00008A
_RFcount                                                  bssBANK0     00007E
_RFstate                                                  bssBANK1     00019D
_RGB_Set                                                  text116      009B36
_RX1PPS                                                   (abs)        000EB5
_ReadADC                                                  text193      008E76
_ReadSerial                                               text85       008864
_RemoveSerial                                             text84       0083B6
_ReqResync                                                text65       009A86
_ResetDefaultMemory                                       text71       00651A
_SLRCONA                                                  (abs)        000F0E
_SLRCONB                                                  (abs)        000F16
_SLRCONC                                                  (abs)        000F1E
_SLRCOND                                                  (abs)        000F23
_SLRCONE                                                  (abs)        000F2B
_SP1BRGH                                                  (abs)        000F9C
_SP1BRGL                                                  (abs)        000F9B
_SSP1ADD                                                  (abs)        000F93
_SSP1BUF                                                  (abs)        000F92
_SSP1CLKPPS                                               (abs)        000EB7
_SSP1CON1                                                 (abs)        000F96
_SSP1CON1bits                                             (abs)        000F96
_SSP1CON2                                                 (abs)        000F97
_SSP1CON2bits                                             (abs)        000F97
_SSP1DATPPS                                               (abs)        000EB8
_SSP1STAT                                                 (abs)        000F95
_SYSTEM_Initialize                                        text91       0094F8
_SaveNVM_VarSystem                                        text130      0093C6
_Segments_Set                                             text189      009B6C
_SetSegmentValue                                          text90       0099DA
_SetSegmentValueIntermitent                               text49       009526
_SetSegmentValueIntermitentMain                           text52       009ADC
_SetSegmentValueLearn                                     text15       0073BA
_SetSegmentValueMain                                      text12       0099A6
_ShowVersion                                              text89       008A84
_StateTRIAC                                               bssBANK1     000195
_StopOrder                                                text37       00991C
_SumEnergyADCHist_array                                   bssBANK2     000260
_T0CON0                                                   (abs)        000FD5
_T0CON1                                                   (abs)        000FD6
_T1CLK                                                    (abs)        000FD2
_T1CON                                                    (abs)        000FCF
_T1CONbits                                                (abs)        000FCF
_T1GATE                                                   (abs)        000FD1
_T1GCON                                                   (abs)        000FD0
_T2CLKCON                                                 (abs)        000FBF
_T2CON                                                    (abs)        000FBD
_T2HLT                                                    (abs)        000FBE
_T2PR                                                     (abs)        000FBC
_T2RST                                                    (abs)        000FC0
_T2TMR                                                    (abs)        000FBB
_TMR0H                                                    (abs)        000FD4
_TMR0IE                                                   (abs)        007615
_TMR0IF                                                   (abs)        007655
_TMR0L                                                    (abs)        000FD3
_TMR0_DefaultInterruptHandler                             text203      009CA8
_TMR0_ISR                                                 text201      009824
_TMR0_Initialize                                          text97       0098B6
_TMR0_InterruptHandler                                    nvBANK2      0002E1
_TMR0_SetInterruptHandler                                 text98       009B96
_TMR1H                                                    (abs)        000FCE
_TMR1L                                                    (abs)        000FCD
_TMR1_DefaultInterruptHandler                             text200      009CA6
_TMR1_ISR                                                 text195      009310
_TMR1_Initialize                                          text95       00920E
_TMR1_InterruptHandler                                    nvBANK2      0002DD
_TMR1_SetInterruptHandler                                 text96       009B8C
_TMR1_WriteTimer                                          text199      009970
_TMR2_DefaultInterruptHandler                             text192      009CA4
_TMR2_ISR                                                 text187      0069A0
_TMR2_Initialize                                          text93       00957E
_TMR2_InterruptHandler                                    nvBANK2      0002DB
_TMR2_SetInterruptHandler                                 text94       009B82
_TRISA                                                    (abs)        000F88
_TRISB                                                    (abs)        000F89
_TRISC                                                    (abs)        000F8A
_TRISD                                                    (abs)        000F8B
_TRISE                                                    (abs)        000F8C
_TX1REG                                                   (abs)        000F9A
_TX1STA                                                   (abs)        000F9E
_VerifyElectricalBrake                                    text113      0085AA
_VerifyFollowMe                                           text31       009870
_WDTCON0                                                  (abs)        000ED2
_WDTCON0bits                                              (abs)        000ED2
_WDTCON1                                                  (abs)        000ED3
_WPUA                                                     (abs)        000F10
_WPUB                                                     (abs)        000F18
_WPUC                                                     (abs)        000F20
_WPUD                                                     (abs)        000F25
_WPUE                                                     (abs)        000F2D
_WWDT_Initialize                                          text92       009B78
_WWDT_SoftEnable                                          text88       009C76
_WWDT_TimerClear                                          text87       009938
_WaitPreFlash                                             text40       008784
__HRAM                                                    (abs)        000000
__Habs1                                                   abs1         000000
__Hbank0                                                  bank0        000000
__Hbank1                                                  bank1        000000
__Hbank10                                                 bank10       000000
__Hbank11                                                 bank11       000000
__Hbank12                                                 bank12       000000
__Hbank13                                                 bank13       000000
__Hbank14                                                 bank14       000000
__Hbank2                                                  bank2        000000
__Hbank3                                                  bank3        000000
__Hbank4                                                  bank4        000000
__Hbank5                                                  bank5        000000
__Hbank6                                                  bank6        000000
__Hbank7                                                  bank7        000000
__Hbank8                                                  bank8        000000
__Hbank9                                                  bank9        000000
__Hbigbss                                                 bigbss       000000
__Hbigdata                                                bigdata      000000
__Hbigram                                                 bigram       000000
__Hbigsfr                                                 bigsfr       000000
__Hbss                                                    bss          000000
__HbssBANK0                                               bssBANK0     000000
__HbssBANK1                                               bssBANK1     000000
__HbssBANK2                                               bssBANK2     000000
__HbssBANK3                                               bssBANK3     000000
__HbssCOMRAM                                              bssCOMRAM    000000
__Hcinit                                                  cinit        000000
__Hclrtext                                                clrtext      000000
__Hcomram                                                 comram       000000
__Hconfig                                                 config       30000C
__Hconst                                                  const        000000
__HcstackBANK0                                            cstackBANK0  000000
__HcstackBANK2                                            cstackBANK2  000000
__HcstackCOMRAM                                           cstackCOMRAM 000000
__Hdata                                                   data         000000
__HdataBANK0                                              dataBANK0    000000
__HdataBANK1                                              dataBANK1    000000
__HdataBANK2                                              dataBANK2    000000
__HdataBANK3                                              dataBANK3    000000
__Heeprom_data                                            eeprom_data  000000
__Hfarbss                                                 farbss       000000
__Hfardata                                                fardata      000000
__Hheap                                                   heap         000000
__Hibigdata                                               ibigdata     000000
__Hidata                                                  idata        000000
__HidataBANK0                                             idataBANK0   000000
__HidataBANK1                                             idataBANK1   000000
__HidataBANK2                                             idataBANK2   000000
__HidataBANK3                                             idataBANK3   000000
__Hidloc                                                  idloc        200010
__Hifardata                                               ifardata     000000
__Hinit                                                   init         0000A0
__Hintcode                                                intcode      00009C
__Hintcode_body                                           intcode_body 000000
__Hintcodelo                                              intcodelo    00009C
__Hintentry                                               intentry     000000
__Hintret                                                 intret       000000
__Hintsave_regs                                           intsave_regs 000000
__Hirdata                                                 irdata       000000
__Hmediumconst                                            mediumconst  000000
__HnvBANK1                                                nvBANK1      000000
__HnvBANK2                                                nvBANK2      000000
__HnvFARRAM                                               nvFARRAM     000000
__Hnvbit                                                  nvbit        000000
__Hnvrram                                                 nvrram       000000
__Hparam                                                  rparam       000000
__Hpowerup                                                powerup      00009C
__Hram                                                    ram          000000
__Hramtop                                                 ramtop       000F00
__Hrbit                                                   rbit         000000
__Hrbss                                                   rbss         000000
__Hrdata                                                  rdata        000000
__Hreset_vec                                              reset_vec    000006
__Hrparam                                                 rparam       000000
__Hsfr                                                    sfr          000000
__Hsmallconst                                             smallconst   000F22
__Hspace_0                                                (abs)        009CAD
__Hspace_1                                                (abs)        0003F7
__Hspace_2                                                (abs)        000000
__Hspace_4                                                (abs)        60000C
__Hstack                                                  stack        000000
__Hstruct                                                 struct       000000
__Htemp                                                   temp         000051
__Htext                                                   text         000000
__Htext0                                                  text0        000000
__Htext1                                                  text1        000000
__Htext10                                                 text10       000000
__Htext100                                                text100      000000
__Htext101                                                text101      000000
__Htext102                                                text102      000000
__Htext103                                                text103      000000
__Htext104                                                text104      000000
__Htext105                                                text105      000000
__Htext106                                                text106      000000
__Htext107                                                text107      000000
__Htext108                                                text108      000000
__Htext109                                                text109      000000
__Htext11                                                 text11       000000
__Htext110                                                text110      000000
__Htext111                                                text111      000000
__Htext112                                                text112      000000
__Htext113                                                text113      000000
__Htext114                                                text114      000000
__Htext115                                                text115      000000
__Htext116                                                text116      000000
__Htext117                                                text117      000000
__Htext118                                                text118      000000
__Htext119                                                text119      000000
__Htext12                                                 text12       000000
__Htext120                                                text120      000000
__Htext121                                                text121      000000
__Htext122                                                text122      000000
__Htext123                                                text123      000000
__Htext124                                                text124      000000
__Htext125                                                text125      000000
__Htext126                                                text126      000000
__Htext127                                                text127      000000
__Htext128                                                text128      000000
__Htext129                                                text129      000000
__Htext13                                                 text13       000000
__Htext130                                                text130      000000
__Htext131                                                text131      000000
__Htext132                                                text132      000000
__Htext133                                                text133      000000
__Htext134                                                text134      000000
__Htext135                                                text135      000000
__Htext136                                                text136      000000
__Htext137                                                text137      000000
__Htext138                                                text138      000000
__Htext139                                                text139      000000
__Htext14                                                 text14       000000
__Htext140                                                text140      000000
__Htext141                                                text141      000000
__Htext142                                                text142      000000
__Htext143                                                text143      000000
__Htext144                                                text144      000000
__Htext145                                                text145      000000
__Htext146                                                text146      000000
__Htext147                                                text147      000000
__Htext148                                                text148      000000
__Htext149                                                text149      000000
__Htext15                                                 text15       000000
__Htext150                                                text150      000000
__Htext151                                                text151      000000
__Htext152                                                text152      000000
__Htext153                                                text153      000000
__Htext154                                                text154      000000
__Htext155                                                text155      000000
__Htext156                                                text156      000000
__Htext157                                                text157      000000
__Htext158                                                text158      000000
__Htext159                                                text159      000000
__Htext16                                                 text16       000000
__Htext160                                                text160      000000
__Htext161                                                text161      000000
__Htext162                                                text162      000000
__Htext163                                                text163      000000
__Htext164                                                text164      000000
__Htext165                                                text165      000000
__Htext166                                                text166      000000
__Htext167                                                text167      000000
__Htext168                                                text168      000000
__Htext169                                                text169      000000
__Htext17                                                 text17       000000
__Htext170                                                text170      000000
__Htext171                                                text171      000000
__Htext172                                                text172      000000
__Htext173                                                text173      000000
__Htext174                                                text174      000000
__Htext175                                                text175      000000
__Htext176                                                text176      000000
__Htext177                                                text177      000000
__Htext178                                                text178      000000
__Htext179                                                text179      000000
__Htext18                                                 text18       000000
__Htext180                                                text180      000000
__Htext181                                                text181      000000
__Htext182                                                text182      000000
__Htext183                                                text183      000000
__Htext184                                                text184      000000
__Htext185                                                text185      000000
__Htext187                                                text187      000000
__Htext188                                                text188      000000
__Htext189                                                text189      000000
__Htext19                                                 text19       000000
__Htext190                                                text190      000000
__Htext191                                                text191      000000
__Htext192                                                text192      000000
__Htext193                                                text193      000000
__Htext194                                                text194      000000
__Htext195                                                text195      000000
__Htext196                                                text196      000000
__Htext197                                                text197      000000
__Htext198                                                text198      000000
__Htext199                                                text199      000000
__Htext2                                                  text2        000000
__Htext20                                                 text20       000000
__Htext200                                                text200      000000
__Htext201                                                text201      000000
__Htext202                                                text202      000000
__Htext203                                                text203      000000
__Htext204                                                text204      000000
__Htext205                                                text205      000000
__Htext206                                                text206      000000
__Htext207                                                text207      000000
__Htext208                                                text208      000000
__Htext209                                                text209      000000
__Htext21                                                 text21       000000
__Htext210                                                text210      000000
__Htext22                                                 text22       000000
__Htext23                                                 text23       000000
__Htext24                                                 text24       000000
__Htext25                                                 text25       000000
__Htext26                                                 text26       000000
__Htext27                                                 text27       000000
__Htext28                                                 text28       000000
__Htext29                                                 text29       000000
__Htext3                                                  text3        000000
__Htext30                                                 text30       000000
__Htext31                                                 text31       000000
__Htext32                                                 text32       000000
__Htext33                                                 text33       000000
__Htext34                                                 text34       000000
__Htext35                                                 text35       000000
__Htext36                                                 text36       000000
__Htext37                                                 text37       000000
__Htext38                                                 text38       000000
__Htext39                                                 text39       000000
__Htext4                                                  text4        000000
__Htext40                                                 text40       000000
__Htext41                                                 text41       000000
__Htext42                                                 text42       000000
__Htext43                                                 text43       000000
__Htext44                                                 text44       000000
__Htext45                                                 text45       000000
__Htext46                                                 text46       000000
__Htext47                                                 text47       000000
__Htext48                                                 text48       000000
__Htext49                                                 text49       000000
__Htext5                                                  text5        000000
__Htext50                                                 text50       000000
__Htext51                                                 text51       000000
__Htext52                                                 text52       000000
__Htext53                                                 text53       000000
__Htext54                                                 text54       000000
__Htext55                                                 text55       000000
__Htext56                                                 text56       000000
__Htext57                                                 text57       000000
__Htext58                                                 text58       000000
__Htext59                                                 text59       000000
__Htext6                                                  text6        000000
__Htext60                                                 text60       000000
__Htext61                                                 text61       000000
__Htext62                                                 text62       000000
__Htext63                                                 text63       000000
__Htext64                                                 text64       000000
__Htext65                                                 text65       000000
__Htext66                                                 text66       000000
__Htext67                                                 text67       000000
__Htext68                                                 text68       000000
__Htext69                                                 text69       000000
__Htext7                                                  text7        000000
__Htext70                                                 text70       000000
__Htext71                                                 text71       000000
__Htext72                                                 text72       000000
__Htext73                                                 text73       000000
__Htext74                                                 text74       000000
__Htext75                                                 text75       000000
__Htext76                                                 text76       000000
__Htext77                                                 text77       000000
__Htext78                                                 text78       000000
__Htext79                                                 text79       000000
__Htext8                                                  text8        000000
__Htext80                                                 text80       000000
__Htext81                                                 text81       000000
__Htext82                                                 text82       000000
__Htext83                                                 text83       000000
__Htext84                                                 text84       000000
__Htext85                                                 text85       000000
__Htext86                                                 text86       000000
__Htext87                                                 text87       000000
__Htext88                                                 text88       000000
__Htext89                                                 text89       000000
__Htext9                                                  text9        000000
__Htext90                                                 text90       000000
__Htext91                                                 text91       000000
__Htext92                                                 text92       000000
__Htext93                                                 text93       000000
__Htext94                                                 text94       000000
__Htext95                                                 text95       000000
__Htext96                                                 text96       000000
__Htext97                                                 text97       000000
__Htext98                                                 text98       000000
__Htext99                                                 text99       000000
__LRAM                                                    (abs)        000001
__Labs1                                                   abs1         000000
__Lbank0                                                  bank0        000000
__Lbank1                                                  bank1        000000
__Lbank10                                                 bank10       000000
__Lbank11                                                 bank11       000000
__Lbank12                                                 bank12       000000
__Lbank13                                                 bank13       000000
__Lbank14                                                 bank14       000000
__Lbank2                                                  bank2        000000
__Lbank3                                                  bank3        000000
__Lbank4                                                  bank4        000000
__Lbank5                                                  bank5        000000
__Lbank6                                                  bank6        000000
__Lbank7                                                  bank7        000000
__Lbank8                                                  bank8        000000
__Lbank9                                                  bank9        000000
__Lbigbss                                                 bigbss       000000
__Lbigdata                                                bigdata      000000
__Lbigram                                                 bigram       000000
__Lbigsfr                                                 bigsfr       000000
__Lbss                                                    bss          000000
__LbssBANK0                                               bssBANK0     000000
__LbssBANK1                                               bssBANK1     000000
__LbssBANK2                                               bssBANK2     000000
__LbssBANK3                                               bssBANK3     000000
__LbssCOMRAM                                              bssCOMRAM    000000
__Lcinit                                                  cinit        000000
__Lclrtext                                                clrtext      000000
__Lcomram                                                 comram       000000
__Lconfig                                                 config       000000
__Lconst                                                  const        000000
__LcstackBANK0                                            cstackBANK0  000000
__LcstackBANK2                                            cstackBANK2  000000
__LcstackCOMRAM                                           cstackCOMRAM 000000
__Ldata                                                   data         000000
__LdataBANK0                                              dataBANK0    000000
__LdataBANK1                                              dataBANK1    000000
__LdataBANK2                                              dataBANK2    000000
__LdataBANK3                                              dataBANK3    000000
__Leeprom_data                                            eeprom_data  000000
__Lfarbss                                                 farbss       000000
__Lfardata                                                fardata      000000
__Lheap                                                   heap         000000
__Libigdata                                               ibigdata     000000
__Lidata                                                  idata        000000
__LidataBANK0                                             idataBANK0   000000
__LidataBANK1                                             idataBANK1   000000
__LidataBANK2                                             idataBANK2   000000
__LidataBANK3                                             idataBANK3   000000
__Lidloc                                                  idloc        000000
__Lifardata                                               ifardata     000000
__Linit                                                   init         00009C
__Lintcode                                                intcode      000008
__Lintcode_body                                           intcode_body 000000
__Lintcodelo                                              intcodelo    00009C
__Lintentry                                               intentry     000000
__Lintret                                                 intret       000000
__Lintsave_regs                                           intsave_regs 000000
__Lirdata                                                 irdata       000000
__Lmediumconst                                            mediumconst  000000
__LnvBANK1                                                nvBANK1      000000
__LnvBANK2                                                nvBANK2      000000
__LnvFARRAM                                               nvFARRAM     000000
__Lnvbit                                                  nvbit        000000
__Lnvrram                                                 nvrram       000000
__Lparam                                                  rparam       000000
__Lpowerup                                                powerup      00009C
__Lram                                                    ram          000000
__Lramtop                                                 ramtop       000F00
__Lrbit                                                   rbit         000000
__Lrbss                                                   rbss         000000
__Lrdata                                                  rdata        000000
__Lreset_vec                                              reset_vec    000000
__Lrparam                                                 rparam       000000
__Lsfr                                                    sfr          000000
__Lsmallconst                                             smallconst   000F00
__Lspace_0                                                (abs)        000000
__Lspace_1                                                (abs)        000000
__Lspace_2                                                (abs)        000000
__Lspace_4                                                (abs)        000000
__Lstack                                                  stack        000000
__Lstruct                                                 struct       000000
__Ltemp                                                   temp         000050
__Ltext                                                   text         000000
__Ltext0                                                  text0        000000
__Ltext1                                                  text1        000000
__Ltext10                                                 text10       000000
__Ltext100                                                text100      000000
__Ltext101                                                text101      000000
__Ltext102                                                text102      000000
__Ltext103                                                text103      000000
__Ltext104                                                text104      000000
__Ltext105                                                text105      000000
__Ltext106                                                text106      000000
__Ltext107                                                text107      000000
__Ltext108                                                text108      000000
__Ltext109                                                text109      000000
__Ltext11                                                 text11       000000
__Ltext110                                                text110      000000
__Ltext111                                                text111      000000
__Ltext112                                                text112      000000
__Ltext113                                                text113      000000
__Ltext114                                                text114      000000
__Ltext115                                                text115      000000
__Ltext116                                                text116      000000
__Ltext117                                                text117      000000
__Ltext118                                                text118      000000
__Ltext119                                                text119      000000
__Ltext12                                                 text12       000000
__Ltext120                                                text120      000000
__Ltext121                                                text121      000000
__Ltext122                                                text122      000000
__Ltext123                                                text123      000000
__Ltext124                                                text124      000000
__Ltext125                                                text125      000000
__Ltext126                                                text126      000000
__Ltext127                                                text127      000000
__Ltext128                                                text128      000000
__Ltext129                                                text129      000000
__Ltext13                                                 text13       000000
__Ltext130                                                text130      000000
__Ltext131                                                text131      000000
__Ltext132                                                text132      000000
__Ltext133                                                text133      000000
__Ltext134                                                text134      000000
__Ltext135                                                text135      000000
__Ltext136                                                text136      000000
__Ltext137                                                text137      000000
__Ltext138                                                text138      000000
__Ltext139                                                text139      000000
__Ltext14                                                 text14       000000
__Ltext140                                                text140      000000
__Ltext141                                                text141      000000
__Ltext142                                                text142      000000
__Ltext143                                                text143      000000
__Ltext144                                                text144      000000
__Ltext145                                                text145      000000
__Ltext146                                                text146      000000
__Ltext147                                                text147      000000
__Ltext148                                                text148      000000
__Ltext149                                                text149      000000
__Ltext15                                                 text15       000000
__Ltext150                                                text150      000000
__Ltext151                                                text151      000000
__Ltext152                                                text152      000000
__Ltext153                                                text153      000000
__Ltext154                                                text154      000000
__Ltext155                                                text155      000000
__Ltext156                                                text156      000000
__Ltext157                                                text157      000000
__Ltext158                                                text158      000000
__Ltext159                                                text159      000000
__Ltext16                                                 text16       000000
__Ltext160                                                text160      000000
__Ltext161                                                text161      000000
__Ltext162                                                text162      000000
__Ltext163                                                text163      000000
__Ltext164                                                text164      000000
__Ltext165                                                text165      000000
__Ltext166                                                text166      000000
__Ltext167                                                text167      000000
__Ltext168                                                text168      000000
__Ltext169                                                text169      000000
__Ltext17                                                 text17       000000
__Ltext170                                                text170      000000
__Ltext171                                                text171      000000
__Ltext172                                                text172      000000
__Ltext173                                                text173      000000
__Ltext174                                                text174      000000
__Ltext175                                                text175      000000
__Ltext176                                                text176      000000
__Ltext177                                                text177      000000
__Ltext178                                                text178      000000
__Ltext179                                                text179      000000
__Ltext18                                                 text18       000000
__Ltext180                                                text180      000000
__Ltext181                                                text181      000000
__Ltext182                                                text182      000000
__Ltext183                                                text183      000000
__Ltext184                                                text184      000000
__Ltext185                                                text185      000000
__Ltext187                                                text187      000000
__Ltext188                                                text188      000000
__Ltext189                                                text189      000000
__Ltext19                                                 text19       000000
__Ltext190                                                text190      000000
__Ltext191                                                text191      000000
__Ltext192                                                text192      000000
__Ltext193                                                text193      000000
__Ltext194                                                text194      000000
__Ltext195                                                text195      000000
__Ltext196                                                text196      000000
__Ltext197                                                text197      000000
__Ltext198                                                text198      000000
__Ltext199                                                text199      000000
__Ltext2                                                  text2        000000
__Ltext20                                                 text20       000000
__Ltext200                                                text200      000000
__Ltext201                                                text201      000000
__Ltext202                                                text202      000000
__Ltext203                                                text203      000000
__Ltext204                                                text204      000000
__Ltext205                                                text205      000000
__Ltext206                                                text206      000000
__Ltext207                                                text207      000000
__Ltext208                                                text208      000000
__Ltext209                                                text209      000000
__Ltext21                                                 text21       000000
__Ltext210                                                text210      000000
__Ltext22                                                 text22       000000
__Ltext23                                                 text23       000000
__Ltext24                                                 text24       000000
__Ltext25                                                 text25       000000
__Ltext26                                                 text26       000000
__Ltext27                                                 text27       000000
__Ltext28                                                 text28       000000
__Ltext29                                                 text29       000000
__Ltext3                                                  text3        000000
__Ltext30                                                 text30       000000
__Ltext31                                                 text31       000000
__Ltext32                                                 text32       000000
__Ltext33                                                 text33       000000
__Ltext34                                                 text34       000000
__Ltext35                                                 text35       000000
__Ltext36                                                 text36       000000
__Ltext37                                                 text37       000000
__Ltext38                                                 text38       000000
__Ltext39                                                 text39       000000
__Ltext4                                                  text4        000000
__Ltext40                                                 text40       000000
__Ltext41                                                 text41       000000
__Ltext42                                                 text42       000000
__Ltext43                                                 text43       000000
__Ltext44                                                 text44       000000
__Ltext45                                                 text45       000000
__Ltext46                                                 text46       000000
__Ltext47                                                 text47       000000
__Ltext48                                                 text48       000000
__Ltext49                                                 text49       000000
__Ltext5                                                  text5        000000
__Ltext50                                                 text50       000000
__Ltext51                                                 text51       000000
__Ltext52                                                 text52       000000
__Ltext53                                                 text53       000000
__Ltext54                                                 text54       000000
__Ltext55                                                 text55       000000
__Ltext56                                                 text56       000000
__Ltext57                                                 text57       000000
__Ltext58                                                 text58       000000
__Ltext59                                                 text59       000000
__Ltext6                                                  text6        000000
__Ltext60                                                 text60       000000
__Ltext61                                                 text61       000000
__Ltext62                                                 text62       000000
__Ltext63                                                 text63       000000
__Ltext64                                                 text64       000000
__Ltext65                                                 text65       000000
__Ltext66                                                 text66       000000
__Ltext67                                                 text67       000000
__Ltext68                                                 text68       000000
__Ltext69                                                 text69       000000
__Ltext7                                                  text7        000000
__Ltext70                                                 text70       000000
__Ltext71                                                 text71       000000
__Ltext72                                                 text72       000000
__Ltext73                                                 text73       000000
__Ltext74                                                 text74       000000
__Ltext75                                                 text75       000000
__Ltext76                                                 text76       000000
__Ltext77                                                 text77       000000
__Ltext78                                                 text78       000000
__Ltext79                                                 text79       000000
__Ltext8                                                  text8        000000
__Ltext80                                                 text80       000000
__Ltext81                                                 text81       000000
__Ltext82                                                 text82       000000
__Ltext83                                                 text83       000000
__Ltext84                                                 text84       000000
__Ltext85                                                 text85       000000
__Ltext86                                                 text86       000000
__Ltext87                                                 text87       000000
__Ltext88                                                 text88       000000
__Ltext89                                                 text89       000000
__Ltext9                                                  text9        000000
__Ltext90                                                 text90       000000
__Ltext91                                                 text91       000000
__Ltext92                                                 text92       000000
__Ltext93                                                 text93       000000
__Ltext94                                                 text94       000000
__Ltext95                                                 text95       000000
__Ltext96                                                 text96       000000
__Ltext97                                                 text97       000000
__Ltext98                                                 text98       000000
__Ltext99                                                 text99       000000
__S0                                                      (abs)        009CAD
__S1                                                      (abs)        0003F7
__S4                                                      (abs)        000000
__S5                                                      (abs)        000000
___awdiv                                                  text11       00822C
___awdiv@counter                                          cstackCOMRAM 000018
___awdiv@dividend                                         cstackCOMRAM 000014
___awdiv@divisor                                          cstackCOMRAM 000016
___awdiv@quotient                                         cstackCOMRAM 00001A
___awdiv@sign                                             cstackCOMRAM 000019
___heap_hi                                                (abs)        000000
___heap_lo                                                (abs)        000000
___inthi_sp                                               stack        000000
___intlo_sp                                               stack        000000
___lbdiv                                                  text51       00938C
___lbdiv@counter                                          cstackCOMRAM 000012
___lbdiv@dividend                                         cstackCOMRAM 000011
___lbdiv@divisor                                          cstackCOMRAM 000010
___lbdiv@quotient                                         cstackCOMRAM 000013
___lbmod                                                  text10       009736
___lbmod@counter                                          cstackCOMRAM 000012
___lbmod@dividend                                         cstackCOMRAM 000011
___lbmod@divisor                                          cstackCOMRAM 000010
___lbmod@rem                                              cstackCOMRAM 000013
___lldiv                                                  text16       008334
___lldiv@counter                                          cstackCOMRAM 00001C
___lldiv@dividend                                         cstackCOMRAM 000010
___lldiv@divisor                                          cstackCOMRAM 000014
___lldiv@quotient                                         cstackCOMRAM 000018
___lmul                                                   text36       008E20
___lmul@multiplicand                                      cstackCOMRAM 000021
___lmul@multiplier                                        cstackCOMRAM 00001D
___lmul@product                                           cstackCOMRAM 000025
___lwdiv                                                  text125      008F20
___lwdiv@counter                                          cstackCOMRAM 000014
___lwdiv@dividend                                         cstackCOMRAM 000010
___lwdiv@divisor                                          cstackCOMRAM 000012
___lwdiv@quotient                                         cstackCOMRAM 000015
___param_bank                                             (abs)        000000
___rparam_used                                            (abs)        000001
___sp                                                     stack        000000
___wmul                                                   text127      0097FE
___wmul@multiplicand                                      cstackCOMRAM 000012
___wmul@multiplier                                        cstackCOMRAM 000010
___wmul@product                                           cstackCOMRAM 000014
__accesstop                                               (abs)        000060
__activetblptr                                            (abs)        000003
__end_of_ADCC_GetSingleConversion                         text194      009AC8
__end_of_ADCC_Initialize                                  text110      009012
__end_of_ClearFlag_rfCMD                                  text13       009C52
__end_of_CloseOrder                                       text32       0097D8
__end_of_ControlCounterMoves                              text129      008D72
__end_of_ControlCurrent                                   text119      0069A0
__end_of_ControlDecelarationFactor                        text29       009A26
__end_of_ControlInputs                                    text118      006F96
__end_of_ControlLights                                    text114      0046B6
__end_of_ControlMotor                                     text112      00534C
__end_of_DecCHK                                           text66       009464
__end_of_Decrypt                                          text62       007840
__end_of_DecryptPacket_12BIT                              text67       008006
__end_of_EUSART1_DefaultErrorHandler                      text208      009C76
__end_of_EUSART1_DefaultFramingErrorHandler               text207      009CAC
__end_of_EUSART1_DefaultOverrunErrorHandler               text206      009C70
__end_of_EUSART1_Initialize                               text104      0084B4
__end_of_EUSART1_Read                                     text55       009140
__end_of_EUSART1_Receive_ISR                              text205      007DC0
__end_of_EUSART1_RxDataHandler                            text209      00991C
__end_of_EUSART1_SetErrorHandler                          text109      009BD2
__end_of_EUSART1_SetFramingErrorHandler                   text108      009BC8
__end_of_EUSART1_SetOverrunErrorHandler                   text107      009BBE
__end_of_EUSART1_SetRxInterruptHandler                    text106      009BB4
__end_of_EUSART1_SetTxInterruptHandler                    text105      009BAA
__end_of_EUSART1_Transmit_ISR                             text204      0094C8
__end_of_EUSART1_Write                                    text80       009290
__end_of_EUSART1_is_rx_ready                              text111      009B26
__end_of_GetMotorPower                                    text128      007906
__end_of_GetOpenOrder                                     text50       005D14
__end_of_GetSecurityStateInClosing                        text38       007C80
__end_of_GetSecurityStateInOpening                        text48       007D26
__end_of_HopCHK                                           text63       0081A6
__end_of_I2C1_CallbackReturnReset                         text164      009C8A
__end_of_I2C1_CallbackReturnStop                          text165      009C8E
__end_of_I2C1_Close                                       text182      0098FA
__end_of_I2C1_DO_ADDRESS_NACK                             text141      0090AE
__end_of_I2C1_DO_IDLE                                     text155      009BF0
__end_of_I2C1_DO_RCEN                                     text150      009BE6
__end_of_I2C1_DO_RESET                                    text142      009BDC
__end_of_I2C1_DO_RX                                       text151      0085AA
__end_of_I2C1_DO_RX_ACK                                   text145      009C18
__end_of_I2C1_DO_RX_NACK_RESTART                          text143      009C08
__end_of_I2C1_DO_RX_NACK_STOP                             text144      009C10
__end_of_I2C1_DO_SEND_ADR_READ                            text154      009B60
__end_of_I2C1_DO_SEND_ADR_WRITE                           text153      009B52
__end_of_I2C1_DO_SEND_RESTART                             text147      009C28
__end_of_I2C1_DO_SEND_RESTART_READ                        text149      009C38
__end_of_I2C1_DO_SEND_RESTART_WRITE                       text148      009C30
__end_of_I2C1_DO_SEND_STOP                                text146      009C20
__end_of_I2C1_DO_TX                                       text152      00811E
__end_of_I2C1_DO_TX_EMPTY                                 text156      008BAA
__end_of_I2C1_Initialize                                  text103      009B04
__end_of_I2C1_MasterClearIrq                              text185      009C6A
__end_of_I2C1_MasterClose                                 text184      009CA2
__end_of_I2C1_MasterDisableIrq                            text183      009C9E
__end_of_I2C1_MasterEnableRestart                         text180      009C96
__end_of_I2C1_MasterFsm                                   text140      008F20
__end_of_I2C1_MasterGetRxData                             text161      009C82
__end_of_I2C1_MasterIsNack                                text158      009B6C
__end_of_I2C1_MasterOpen                                  text135      009A6E
__end_of_I2C1_MasterOperation                             text137      0095D6
__end_of_I2C1_MasterSendAck                               text160      009C5E
__end_of_I2C1_MasterSendNack                              text162      009C64
__end_of_I2C1_MasterSendTxData                            text159      009C40
__end_of_I2C1_MasterSetIrq                                text157      009C58
__end_of_I2C1_MasterStart                                 text181      009C9A
__end_of_I2C1_MasterStartRx                               text163      009C86
__end_of_I2C1_MasterStop                                  text179      009C92
__end_of_I2C1_MasterWaitForEvent                          text139      009C00
__end_of_I2C1_MasterWrite                                 text136      009BF8
__end_of_I2C1_Open                                        text134      008334
__end_of_I2C1_Poller                                      text138      009B36
__end_of_I2C1_Read1ByteRegister                           text72       008CBE
__end_of_I2C1_SetAddressNackCallback                      text133      009A56
__end_of_I2C1_SetBuffer                                   text178      009A0E
__end_of_I2C1_SetCallback                                 text177      0089B0
__end_of_I2C1_SetDataCompleteCallback                     text176      009A86
__end_of_INTERRUPT_Initialize                             text102      009C7E
__end_of_INTERRUPT_InterruptManager                       intcode      00009C
__end_of_InitFullAutoTime                                 text42       0099DA
__end_of_InitReceiver                                     text5        0099A6
__end_of_InitSoftStart                                    text46       008C62
__end_of_InitSoftStop                                     text28       0090F8
__end_of_InitWalkAutoTime                                 text47       009ADC
__end_of_LoadManufCode                                    text61       0098B6
__end_of_NormalKeyGen                                     text60       0071B4
__end_of_OSCILLATOR_Initialize                            text101      009AB2
__end_of_OpenFullOrder                                    text41       0097FE
__end_of_OpenWalkOrder                                    text43       008942
__end_of_PIN_MANAGER_Initialize                           text100      007E58
__end_of_PMD_Initialize                                   text99       009970
__end_of_RGB_Set                                          text116      009B44
__end_of_ReadADC                                          text193      008ECC
__end_of_ReadSerial                                       text85       0088D4
__end_of_RemoveSerial                                     text84       008436
__end_of_ReqResync                                        text65       009A9C
__end_of_ResetDefaultMemory                               text71       0066A4
__end_of_SYSTEM_Initialize                                text91       009526
__end_of_SaveNVM_VarSystem                                text130      0093FE
__end_of_Segments_Set                                     text189      009B78
__end_of_SetSegmentValue                                  text90       0099F4
__end_of_SetSegmentValueIntermitent                       text49       009552
__end_of_SetSegmentValueIntermitentMain                   text52       009AF0
__end_of_SetSegmentValueLearn                             text15       0074B6
__end_of_SetSegmentValueMain                              text12       0099C0
__end_of_ShowVersion                                      text89       008AEA
__end_of_StopOrder                                        text37       009938
__end_of_TMR0_DefaultInterruptHandler                     text203      009CAA
__end_of_TMR0_ISR                                         text201      00984A
__end_of_TMR0_Initialize                                  text97       0098D8
__end_of_TMR0_SetInterruptHandler                         text98       009BA0
__end_of_TMR1_DefaultInterruptHandler                     text200      009CA8
__end_of_TMR1_ISR                                         text195      009350
__end_of_TMR1_Initialize                                  text95       009250
__end_of_TMR1_SetInterruptHandler                         text96       009B96
__end_of_TMR1_WriteTimer                                  text199      00998C
__end_of_TMR2_DefaultInterruptHandler                     text192      009CA6
__end_of_TMR2_ISR                                         text187      006AEE
__end_of_TMR2_Initialize                                  text93       0095AA
__end_of_TMR2_SetInterruptHandler                         text94       009B8C
__end_of_VerifyElectricalBrake                            text113      008622
__end_of_VerifyFollowMe                                   text31       009894
__end_of_WWDT_Initialize                                  text92       009B82
__end_of_WWDT_SoftEnable                                  text88       009C7A
__end_of_WWDT_TimerClear                                  text87       009954
__end_of_WaitPreFlash                                     text40       0087F4
__end_of___awdiv                                          text11       0082B0
__end_of___lbdiv                                          text51       0093C6
__end_of___lbmod                                          text10       009760
__end_of___lldiv                                          text16       0083B6
__end_of___lmul                                           text36       008E76
__end_of___lwdiv                                          text125      008F72
__end_of___wmul                                           text127      009824
__end_of__initialization                                  cinit        007B26
__end_of_actionZone_Closed                                text39       007BDA
__end_of_actionZone_Closing                               text33       004C38
__end_of_actionZone_Opened                                text30       00597A
__end_of_actionZone_Opening                               text24       005102
__end_of_calculateMean                                    text23       008B4C
__end_of_checkNVM_VarSystem                               text70       005EB4
__end_of_clearLearningValue                               text22       008530
__end_of_cmdMemoryIsEmpty                                 text83       007EEA
__end_of_confirmpackage                                   text81       008D18
__end_of_controlLearnDigit                                text14       0094F8
__end_of_controlMotorForce                                text196      00556E
__end_of_controlSaveRemote                                text9        007A80
__end_of_controlSelectRemote                              text6        004048
__end_of_controlTimeslots                                 text190      006384
__end_of_controlVelocity                                  text26       00578C
__end_of_decrementTimeslot                                text191      00978A
__end_of_eusartparser                                     text74       0021CA
__end_of_generateErrorLearnig                             text19       008A84
__end_of_getCurrentComparator                             text126      0061EA
__end_of_getHopCode                                       text64       006C1C
__end_of_getKeyPressed                                    text73       009A3E
__end_of_getSerialCmd                                     text8        009060
__end_of_getStateOpenPosition                             text27       0070A6
__end_of_getTimeDecelaration                              text35       007698
__end_of_getTypeRemote                                    text7        009C4C
__end_of_i2c1_fsmStateTable                               smallconst   000F21
__end_of_i2c_readDataBlock                                text86       008710
__end_of_i2c_writeNBytes                                  text131      008784
__end_of_init_package                                     text82       009496
__end_of_keeloqDecryptPacket                              text57       005B4C
__end_of_keeloq_classic_decrypt_packet                    text59       008DCA
__end_of_loadNVM_VarSystem                                text69       006D4A
__end_of_load_New_Menu                                    text4        0049AC
__end_of_main                                             text0        00682C
__end_of_memcpy                                           text132      00920E
__end_of_rd1RegCompleteHandler                            text173      0096DE
__end_of_rd1RegCompleteHandler@i2c1_master_example$F500   text169      00965A
__end_of_rd2RegCompleteHandler                            text172      0096B2
__end_of_rd2RegCompleteHandler@i2c1_master_example$F511   text168      00962E
__end_of_rdBlkRegCompleteHandler                          text170      009310
__end_of_rdBlkRegCompleteHandler@i2c1_master_example$F535 text166      0092D0
__end_of_readInputs                                       text68       0072BC
__end_of_readRFButtons                                    text56       00651A
__end_of_read_eusartparser                                text78       002E50
__end_of_read_package                                     text54       008FC2
__end_of_readbutton                                       text53       008A1C
__end_of_refreshADCZeroOffset                             text124      0073BA
__end_of_refreshCurrent                                   text120      009186
__end_of_refreshSegment                                   text188      00822C
__end_of_rxi                                              text202      004EAE
__end_of_saveEnergyADCHist                                text123      0097B2
__end_of_saveNewSerial                                    text77       008864
__end_of_setFlashLigth_ON                                 text117      00938C
__end_of_setPositionInvertionInClosing                    text34       006E72
__end_of_setPositionInvertionInOpening                    text25       007774
__end_of_setRGB_ON                                        text115      007F7A
__end_of_setValueToEdit                                   text3        00335C
__end_of_sm_execute_ControlGate                           text17       004392
__end_of_sm_execute_ControlLearning                       text18       0028D8
__end_of_sm_execute_main                                  text1        003864
__end_of_sm_execute_menuConfiguration                     text2        001886
__end_of_sm_get_current_state                             text45       009B16
__end_of_sm_init                                          text20       008E20
__end_of_sm_restart                                       text21       0091CA
__end_of_sm_send_event                                    text44       008C06
__end_of_sumEnergyADC                                     text122      008092
__end_of_sumHIST                                          text121      0075B0
__end_of_validateRemoteSerialNumber                       text76       006050
__end_of_verifyProgramingMode                             text58       009432
__end_of_wr1RegCompleteHandler                            text174      00970A
__end_of_wr1RegCompleteHandler@i2c1_master_example$F517   text167      009602
__end_of_wr2RegCompleteHandler                            text171      009686
__end_of_wr2RegCompleteHandler@i2c1_master_example$F523   text175      009736
__end_of_write_eusartparser                               text75       003C88
__end_of_write_package                                    text79       00957E
__end_ofi2_GetMotorPower                                  text198      0079CC
__end_ofi2_VerifyElectricalBrake                          text197      00869A
__initialization                                          cinit        007A80
__mediumconst                                             mediumconst  000000
__pbssBANK0                                               bssBANK0     000060
__pbssBANK1                                               bssBANK1     000100
__pbssBANK2                                               bssBANK2     000200
__pbssBANK3                                               bssBANK3     000300
__pbssCOMRAM                                              bssCOMRAM    00003B
__pcinit                                                  cinit        007A80
__pcstackBANK0                                            cstackBANK0  0000D8
__pcstackBANK2                                            cstackBANK2  0002ED
__pcstackCOMRAM                                           cstackCOMRAM 000001
__pdataBANK0                                              dataBANK0    0000FC
__pdataBANK1                                              dataBANK1    0001FF
__pdataBANK2                                              dataBANK2    0002F4
__pdataBANK3                                              dataBANK3    0003D2
__pidataBANK0                                             idataBANK0   009CA2
__pidataBANK1                                             idataBANK1   009CAC
__pidataBANK2                                             idataBANK2   009C40
__pidataBANK3                                             idataBANK3   00984A
__pintcode                                                intcode      000008
__pnvBANK1                                                nvBANK1      0001FE
__pnvBANK2                                                nvBANK2      0002DB
__psmallconst                                             smallconst   000F00
__ptext0                                                  text0        0066A4
__ptext1                                                  text1        00335C
__ptext10                                                 text10       009736
__ptext100                                                text100      007DC0
__ptext101                                                text101      009A9C
__ptext102                                                text102      009C7A
__ptext103                                                text103      009AF0
__ptext104                                                text104      008436
__ptext105                                                text105      009BA0
__ptext106                                                text106      009BAA
__ptext107                                                text107      009BB4
__ptext108                                                text108      009BBE
__ptext109                                                text109      009BC8
__ptext11                                                 text11       00822C
__ptext110                                                text110      008FC2
__ptext111                                                text111      009B16
__ptext112                                                text112      005102
__ptext113                                                text113      0085AA
__ptext114                                                text114      004392
__ptext115                                                text115      007EEA
__ptext116                                                text116      009B36
__ptext117                                                text117      009350
__ptext118                                                text118      006E72
__ptext119                                                text119      00682C
__ptext12                                                 text12       0099A6
__ptext120                                                text120      009140
__ptext121                                                text121      0074B6
__ptext122                                                text122      008006
__ptext123                                                text123      00978A
__ptext124                                                text124      0072BC
__ptext125                                                text125      008F20
__ptext126                                                text126      006050
__ptext127                                                text127      0097FE
__ptext128                                                text128      007840
__ptext129                                                text129      008D18
__ptext13                                                 text13       009C4C
__ptext130                                                text130      0093C6
__ptext131                                                text131      008710
__ptext132                                                text132      0091CA
__ptext133                                                text133      009A3E
__ptext134                                                text134      0082B0
__ptext135                                                text135      009A56
__ptext136                                                text136      009BF0
__ptext137                                                text137      0095AA
__ptext138                                                text138      009B26
__ptext139                                                text139      009BF8
__ptext14                                                 text14       0094C8
__ptext140                                                text140      008ECC
__ptext141                                                text141      009060
__ptext142                                                text142      009BD2
__ptext143                                                text143      009C00
__ptext144                                                text144      009C08
__ptext145                                                text145      009C10
__ptext146                                                text146      009C18
__ptext147                                                text147      009C20
__ptext148                                                text148      009C28
__ptext149                                                text149      009C30
__ptext15                                                 text15       0073BA
__ptext150                                                text150      009BDC
__ptext151                                                text151      008530
__ptext152                                                text152      008092
__ptext153                                                text153      009B44
__ptext154                                                text154      009B52
__ptext155                                                text155      009BE6
__ptext156                                                text156      008B4C
__ptext157                                                text157      009C52
__ptext158                                                text158      009B60
__ptext159                                                text159      009C38
__ptext16                                                 text16       008334
__ptext160                                                text160      009C58
__ptext161                                                text161      009C7E
__ptext162                                                text162      009C5E
__ptext163                                                text163      009C82
__ptext164                                                text164      009C86
__ptext165                                                text165      009C8A
__ptext166                                                text166      009290
__ptext167                                                text167      0095D6
__ptext168                                                text168      009602
__ptext169                                                text169      00962E
__ptext17                                                 text17       004048
__ptext170                                                text170      0092D0
__ptext171                                                text171      00965A
__ptext172                                                text172      009686
__ptext173                                                text173      0096B2
__ptext174                                                text174      0096DE
__ptext175                                                text175      00970A
__ptext176                                                text176      009A6E
__ptext177                                                text177      008942
__ptext178                                                text178      0099F4
__ptext179                                                text179      009C8E
__ptext18                                                 text18       0021CA
__ptext180                                                text180      009C92
__ptext181                                                text181      009C96
__ptext182                                                text182      0098D8
__ptext183                                                text183      009C9A
__ptext184                                                text184      009C9E
__ptext185                                                text185      009C64
__ptext187                                                text187      0069A0
__ptext188                                                text188      0081A6
__ptext189                                                text189      009B6C
__ptext19                                                 text19       008A1C
__ptext190                                                text190      0061EA
__ptext191                                                text191      009760
__ptext192                                                text192      009CA4
__ptext193                                                text193      008E76
__ptext194                                                text194      009AB2
__ptext195                                                text195      009310
__ptext196                                                text196      00534C
__ptext197                                                text197      008622
__ptext198                                                text198      007906
__ptext199                                                text199      009970
__ptext2                                                  text2        000F22
__ptext20                                                 text20       008DCA
__ptext200                                                text200      009CA6
__ptext201                                                text201      009824
__ptext202                                                text202      004C38
__ptext203                                                text203      009CA8
__ptext204                                                text204      009496
__ptext205                                                text205      007D26
__ptext206                                                text206      009C6A
__ptext207                                                text207      009CAA
__ptext208                                                text208      009C70
__ptext209                                                text209      0098FA
__ptext21                                                 text21       009186
__ptext210                                                text210      000000
__ptext22                                                 text22       0084B4
__ptext23                                                 text23       008AEA
__ptext24                                                 text24       004EAE
__ptext25                                                 text25       007698
__ptext26                                                 text26       00556E
__ptext27                                                 text27       006F96
__ptext28                                                 text28       0090AE
__ptext29                                                 text29       009A0E
__ptext3                                                  text3        002E50
__ptext30                                                 text30       00578C
__ptext31                                                 text31       009870
__ptext32                                                 text32       0097B2
__ptext33                                                 text33       0049AC
__ptext34                                                 text34       006D4A
__ptext35                                                 text35       0075B0
__ptext36                                                 text36       008E20
__ptext37                                                 text37       00991C
__ptext38                                                 text38       007BDA
__ptext39                                                 text39       007B30
__ptext4                                                  text4        0046B6
__ptext40                                                 text40       008784
__ptext41                                                 text41       0097D8
__ptext42                                                 text42       0099C0
__ptext43                                                 text43       0088D4
__ptext44                                                 text44       008BAA
__ptext45                                                 text45       009B04
__ptext46                                                 text46       008C06
__ptext47                                                 text47       009AC8
__ptext48                                                 text48       007C80
__ptext49                                                 text49       009526
__ptext5                                                  text5        00998C
__ptext50                                                 text50       005B4C
__ptext51                                                 text51       00938C
__ptext52                                                 text52       009ADC
__ptext53                                                 text53       0089B0
__ptext54                                                 text54       008F72
__ptext55                                                 text55       0090F8
__ptext56                                                 text56       006384
__ptext57                                                 text57       00597A
__ptext58                                                 text58       0093FE
__ptext59                                                 text59       008D72
__ptext6                                                  text6        003C88
__ptext60                                                 text60       0070A6
__ptext61                                                 text61       009894
__ptext62                                                 text62       007774
__ptext63                                                 text63       00811E
__ptext64                                                 text64       006AEE
__ptext65                                                 text65       009A86
__ptext66                                                 text66       009432
__ptext67                                                 text67       007F7A
__ptext68                                                 text68       0071B4
__ptext69                                                 text69       006C1C
__ptext7                                                  text7        009C46
__ptext70                                                 text70       005D14
__ptext71                                                 text71       00651A
__ptext72                                                 text72       008C62
__ptext73                                                 text73       009A26
__ptext74                                                 text74       001886
__ptext75                                                 text75       003864
__ptext76                                                 text76       005EB4
__ptext77                                                 text77       0087F4
__ptext78                                                 text78       0028D8
__ptext79                                                 text79       009552
__ptext8                                                  text8        009012
__ptext80                                                 text80       009250
__ptext81                                                 text81       008CBE
__ptext82                                                 text82       009464
__ptext83                                                 text83       007E58
__ptext84                                                 text84       0083B6
__ptext85                                                 text85       008864
__ptext86                                                 text86       00869A
__ptext87                                                 text87       009938
__ptext88                                                 text88       009C76
__ptext89                                                 text89       008A84
__ptext9                                                  text9        0079CC
__ptext90                                                 text90       0099DA
__ptext91                                                 text91       0094F8
__ptext92                                                 text92       009B78
__ptext93                                                 text93       00957E
__ptext94                                                 text94       009B82
__ptext95                                                 text95       00920E
__ptext96                                                 text96       009B8C
__ptext97                                                 text97       0098B6
__ptext98                                                 text98       009B96
__ptext99                                                 text99       009954
__ramtop                                                  ramtop       000F00
__smallconst                                              smallconst   000F00
_actionZone_Closed                                        text39       007B30
_actionZone_Closing                                       text33       0049AC
_actionZone_Opened                                        text30       00578C
_actionZone_Opening                                       text24       004EAE
_auxCounter                                               dataBANK0    0000FC
_aux_i                                                    bssBANK1     000191
_aux_in_auto_close                                        bssBANK1     000190
_brakeElectric_st                                         bssBANK0     000078
_button_struct                                            bssCOMRAM    00004C
_calculateMean                                            text23       008AEA
_checkNVM_VarSystem                                       text70       005D14
_classic_data                                             bssBANK2     000290
_clearLearningValue                                       text22       0084B4
_cmdMemoryIsEmpty                                         text83       007E58
_confirmpackage                                           text81       008CBE
_controlGate_stateMachine                                 bssBANK1     0001E7
_controlLearnDigit                                        text14       0094C8
_controlLearning_stateMachine                             bssBANK2     0002B0
_controlMotorForce                                        text196      00534C
_controlSaveRemote                                        text9        0079CC
_controlSelectRemote                                      text6        003C88
_controlTimeslots                                         text190      0061EA
_controlVelocity                                          text26       00556E
_control_limit_switch                                     bssBANK0     000081
_decrementTimeslot                                        text191      009760
_difTime                                                  bssBANK1     000194
_dispStruct                                               bssBANK0     000072
_edit_Param                                               bssCOMRAM    000046
_erroranterior                                            bssBANK1     00018D
_eusart1RxBuffer                                          bssBANK2     00027C
_eusart1RxCount                                           bssBANK0     000093
_eusart1RxHead                                            bssBANK0     000095
_eusart1RxLastError                                       bssBANK1     00019E
_eusart1RxStatusBuffer                                    bssBANK2     000274
_eusart1RxTail                                            bssBANK0     000094
_eusart1TxBuffer                                          bssBANK2     000284
_eusart1TxBufferRemaining                                 nvBANK1      0001FE
_eusart1TxHead                                            bssBANK0     000097
_eusart1TxTail                                            bssBANK0     000096
_eusartparser                                             text74       001886
_fimdecurso                                               bssBANK1     000175
_firstselectflag                                          dataBANK1    0001FF
_fullmotorPower                                           bssBANK0     000082
_generateErrorLearnig                                     text19       008A1C
_getCurrentComparator                                     text126      006050
_getHopCode                                               text64       006AEE
_getKeyPressed                                            text73       009A26
_getSerialCmd                                             text8        009012
_getStateOpenPosition                                     text27       006F96
_getTimeDecelaration                                      text35       0075B0
_getTypeRemote                                            text7        009C46
_i2c1_fsmStateTable                                       smallconst   000F01
_i2c_readDataBlock                                        text86       00869A
_i2c_writeNBytes                                          text131      008710
_idxAdcAquisition                                         bssBANK0     000091
_idxAdcZeroAquisition                                     bssBANK0     00008F
_idxSaveEnergyADCHist                                     bssBANK0     000090
_init_package                                             text82       009464
_keeloqDecryptPacket                                      text57       00597A
_keeloq_classic_decrypt_packet                            text59       008D72
_lastKey                                                  bssBANK1     000199
_learn_st                                                 bssBANK0     000060
_listSyncValues                                           bssBANK3     000300
_loadNVM_VarSystem                                        text69       006C1C
_load_New_Menu                                            text4        0046B6
_main                                                     text0        0066A4
_main_stateMachine                                        bssBANK1     0001F2
_memcpy                                                   text132      0091CA
_memoryTEMP                                               bssBANK2     0002A0
_menuConfiguration_stateMachine                           bssBANK2     0002BB
_menu_st                                                  bssBANK1     000151
_numberOfErrorCurrent                                     bssBANK0     00008E
_pointSync                                                bssBANK0     00007A
_powerControl_st                                          bssBANK1     00017B
_programmer_enable                                        bssBANK0     000085
_rd1RegCompleteHandler                                    text173      0096B2
_rd1RegCompleteHandler@i2c1_master_example$F500           text169      00962E
_rd2RegCompleteHandler                                    text172      009686
_rd2RegCompleteHandler@i2c1_master_example$F511           text168      009602
_rdBlkRegCompleteHandler                                  text170      0092D0
_rdBlkRegCompleteHandler@i2c1_master_example$F535         text166      009290
_readInputs                                               text68       0071B4
_readRFButtons                                            text56       006384
_read_eusartparser                                        text78       0028D8
_read_package                                             text54       008F72
_readbutton                                               text53       0089B0
_refreshADCZeroOffset                                     text124      0072BC
_refreshCurrent                                           text120      009140
_refreshSegment                                           text188      0081A6
_rfCMD                                                    bssCOMRAM    00003B
_rxi                                                      text202      004C38
_saveEnergyADCHist                                        text123      00978A
_saveNewSerial                                            text77       0087F4
_security                                                 bssBANK1     00016A
_setFlashLigth_ON                                         text117      009350
_setPositionInvertionInClosing                            text34       006D4A
_setPositionInvertionInOpening                            text25       007698
_setRGB_ON                                                text115      007EEA
_setValueToEdit                                           text3        002E50
_sm_execute_ControlGate                                   text17       004048
_sm_execute_ControlLearning                               text18       0021CA
_sm_execute_main                                          text1        00335C
_sm_execute_menuConfiguration                             text2        000F22
_sm_get_current_state                                     text45       009B04
_sm_init                                                  text20       008DCA
_sm_restart                                               text21       009186
_sm_send_event                                            text44       008BAA
_stateMotor                                               bssBANK0     000083
_sumEnergyADC                                             text122      008006
_sumHIST                                                  text121      0074B6
_temp                                                     bssBANK0     000080
_tempCounter                                              dataBANK2    0002F4
_temppower                                                bssBANK1     000193
_timer0ReloadVal16bit                                     bssBANK2     00028E
_timer1ReloadVal                                          nvBANK2      0002DF
_ts_system                                                bssBANK1     00019F
_validateRemoteSerialNumber                               text76       005EB4
_var_sys                                                  bssBANK1     000100
_var_sys_NVM                                              bssBANK0     000098
_verifyProgramingMode                                     text58       0093FE
_waitZeroPeak                                             bssBANK1     000196
_wr1RegCompleteHandler                                    text174      0096DE
_wr1RegCompleteHandler@i2c1_master_example$F517           text167      0095D6
_wr2RegCompleteHandler                                    text171      00965A
_wr2RegCompleteHandler@i2c1_master_example$F523           text175      00970A
_write_eusartparser                                       text75       003864
_write_package                                            text79       009552
_zeroCrossing                                             bssBANK1     000197
_zeroCrossingLength                                       bssBANK1     000198
_zeroCrossingWaitTime                                     dataBANK2    0002F8
_zeroCrossingWaitTimeIdx                                  bssBANK0     000084
actionZone_Closed@securityOpening                         cstackCOMRAM 000020
actionZone_Closed@typeOpenOrder                           cstackCOMRAM 000021
actionZone_Closing@securityClosing                        cstackCOMRAM 000032
actionZone_Closing@typeOpenOrder                          cstackCOMRAM 000033
actionZone_Opened@securityClosing                         cstackCOMRAM 000020
actionZone_Opened@typeOpenOrder                           cstackCOMRAM 000021
actionZone_Opening@securityClosing                        cstackBANK0  0000E4
actionZone_Opening@securityOpening                        cstackBANK0  0000E5
actionZone_Opening@typeOpenOrder                          cstackBANK0  0000E6
btemp                                                     temp         000050
calculateMean@meanValue                                   cstackCOMRAM 000010
calculateMean@newValue                                    cstackCOMRAM 000014
checkNVM_VarSystem@saveParam                              cstackCOMRAM 00003A
cmdMemoryIsEmpty@cmdType                                  cstackCOMRAM 000031
cmdMemoryIsEmpty@position                                 cstackCOMRAM 00002E
cmdMemoryIsEmpty@tempSerial                               cstackCOMRAM 000032
confirmpackage@confirm                                    cstackCOMRAM 000014
confirmpackage@package                                    cstackCOMRAM 000012
controlSelectRemote@pos                                   cstackBANK0  0000E2
controlSelectRemote@temp                                  cstackBANK0  0000E8
controlSelectRemote@tempSerial                            cstackBANK0  0000E4
controlSelectRemote@typeRemote                            cstackBANK0  0000E3
controlSelectRemote@validSerial                           cstackBANK0  0000E1
decrementTimeslot@ts                                      cstackCOMRAM 000001
end_of_initialization                                     cinit        007B26
eusartparser@buffer                                       bssBANK1     000185
eusartparser@i                                            cstackBANK0  0000E8
eusartparser@i_7301                                       cstackBANK0  0000E9
eusartparser@i_7302                                       cstackBANK0  0000ED
eusartparser@i_7303                                       cstackBANK0  0000EE
eusartparser@i_7304                                       cstackBANK0  0000F1
eusartparser@i_7305                                       cstackBANK0  0000F2
eusartparser@i_7306                                       cstackBANK0  0000F3
eusartparser@i_7308                                       cstackBANK0  0000EA
eusartparser@i_7309                                       cstackBANK0  0000EB
eusartparser@i_7310                                       cstackBANK0  0000EF
eusartparser@i_7311                                       cstackBANK0  0000F0
eusartparser@i_7312                                       cstackBANK0  0000F4
eusartparser@i_7313                                       cstackBANK0  0000F5
eusartparser@i_7314                                       cstackBANK0  0000F6
eusartparser@package                                      cstackBANK0  0000E0
eusartparser@pos                                          cstackBANK0  0000EC
eusartparser@relcounter                                   cstackBANK0  0000F7
eusartparser@save_f                                       bssBANK1     00018F
eusartparser@serial                                       cstackBANK0  0000F8
getCurrentComparator@tempOffset                           cstackCOMRAM 000020
getCurrentComparator@x                                    cstackCOMRAM 000022
getHopCode@data                                           cstackCOMRAM 000016
getHopCode@i                                              cstackCOMRAM 000023
getHopCode@tempHop                                        cstackCOMRAM 000020
getHopCode@tempPos                                        cstackCOMRAM 000022
getKeyPressed@temp                                        cstackCOMRAM 000010
getSerialCmd@serial                                       cstackCOMRAM 00001B
getSerialCmd@temp                                         cstackCOMRAM 00001C
getStateOpenPosition@state                                cstackBANK0  0000D8
getStateOpenPosition@stateMotor                           cstackBANK0  0000D9
getTimeDecelaration@state                                 cstackCOMRAM 000031
i2GetMotorPower@defineatraso                              cstackCOMRAM 000004
i2VerifyElectricalBrake@actualState                       cstackCOMRAM 000002
i2VerifyElectricalBrake@tempState                         cstackCOMRAM 000001
i2_GetMotorPower                                          text198      007906
i2_VerifyElectricalBrake                                  text197      008622
i2c_readDataBlock@address                                 cstackCOMRAM 000029
i2c_readDataBlock@d                                       cstackCOMRAM 00002A
i2c_readDataBlock@data                                    cstackCOMRAM 000024
i2c_readDataBlock@len                                     cstackCOMRAM 000026
i2c_readDataBlock@reg                                     cstackCOMRAM 000022
i2c_writeNBytes@address                                   cstackCOMRAM 000039
i2c_writeNBytes@dat                                       cstackCOMRAM 000028
i2c_writeNBytes@data                                      cstackCOMRAM 000024
i2c_writeNBytes@len                                       cstackCOMRAM 000025
i2c_writeNBytes@reg                                       cstackCOMRAM 000022
init_package@package                                      cstackCOMRAM 000010
int$flags                                                 temp         000050
intlevel0                                                 text         000000
intlevel1                                                 text         000000
intlevel2                                                 text         000000
intlevel3                                                 text         000000
isa$std                                                   (abs)        000001
isa$xinst                                                 (abs)        000000
keeloqDecryptPacket@classic_data                          cstackBANK0  0000E2
keeloqDecryptPacket@commandType                           cstackBANK0  0000E9
keeloqDecryptPacket@data                                  cstackBANK0  0000E0
keeloqDecryptPacket@hop_error                             cstackBANK0  0000E8
keeloq_classic_decrypt_packet@data                        cstackCOMRAM 000038
load_New_Menu@Menu                                        cstackCOMRAM 000022
load_New_Menu@i                                           cstackCOMRAM 000023
main@package                                              cstackBANK2  0002ED
memcpy@d                                                  cstackCOMRAM 000017
memcpy@d1                                                 cstackCOMRAM 000010
memcpy@n                                                  cstackCOMRAM 000014
memcpy@s                                                  cstackCOMRAM 000019
memcpy@s1                                                 cstackCOMRAM 000012
memcpy@tmp                                                cstackCOMRAM 000016
rd1RegCompleteHandler@i2c1_master_example$F500@ptr        cstackCOMRAM 000019
rd1RegCompleteHandler@p                                   cstackCOMRAM 000019
rd2RegCompleteHandler@i2c1_master_example$F511@ptr        cstackCOMRAM 000019
rd2RegCompleteHandler@p                                   cstackCOMRAM 000019
rdBlkRegCompleteHandler@i2c1_master_example$F535@ptr      cstackCOMRAM 000019
rdBlkRegCompleteHandler@p                                 cstackCOMRAM 000019
readRFButtons@key1                                        bssBANK0     000088
readRFButtons@keyType                                     bssBANK0     000087
readRFButtons@rollingCode                                 bssBANK1     000189
readRFButtons@serial                                      bssBANK1     000181
readRFButtons@typeRemote                                  bssBANK1     00019C
read_eusartparser@package                                 cstackCOMRAM 000018
read_package@package                                      cstackCOMRAM 000018
readbutton@key1                                           bssBANK0     000086
readbutton@key2                                           bssBANK1     00019B
refreshADCZeroOffset@i                                    cstackCOMRAM 000017
refreshADCZeroOffset@media                                cstackCOMRAM 000018
saveEnergyADCHist@valueToSave                             cstackCOMRAM 000010
saveNewSerial@cmdType                                     cstackCOMRAM 00003A
saveNewSerial@position                                    cstackBANK0  0000DC
saveNewSerial@tempSerial                                  cstackBANK0  0000D8
setFlashLigth_ON@Freq                                     cstackCOMRAM 000010
setRGB_ON@Freq                                            cstackCOMRAM 000011
setRGB_ON@RGBLigth                                        cstackCOMRAM 000015
setValueToEdit@ParameterSelected                          cstackCOMRAM 00003A
setValueToEdit@haveValueToEdit                            cstackBANK0  0000E0
setValueToEdit@menuType                                   cstackBANK0  0000DE
setValueToEdit@posindex                                   cstackBANK0  0000DF
setValueToEdit@value                                      bssBANK1     0001FD
sm_execute_ControlGate@psm                                cstackBANK0  0000E7
sm_execute_ControlGate@typeOpenOrder                      cstackBANK0  0000EB
sm_execute_ControlLearning@psm                            cstackBANK0  0000DC
sm_execute_ControlLearning@typeOpenOrder                  cstackCOMRAM 00003A
sm_execute_main@psm                                       cstackBANK0  0000ED
sm_execute_menuConfiguration@psm                          cstackBANK0  0000E9
sm_get_current_state@psm                                  cstackCOMRAM 000010
sm_init@hist_mode                                         cstackCOMRAM 000016
sm_init@initial_state                                     cstackCOMRAM 000014
sm_init@psm                                               cstackCOMRAM 000012
sm_restart@psm                                            cstackCOMRAM 000010
sm_send_event@event                                       cstackCOMRAM 000014
sm_send_event@psm                                         cstackCOMRAM 000012
stackhi                                                   (abs)        000000
stacklo                                                   (abs)        000000
start                                                     init         00009C
start_initialization                                      cinit        007A80
sumEnergyADC@auxValue                                     cstackCOMRAM 000016
sumEnergyADC@i                                            cstackCOMRAM 000018
sumEnergyADC@sumE                                         cstackCOMRAM 000014
sumHIST@i                                                 cstackCOMRAM 000020
sumHIST@max                                               cstackCOMRAM 000018
sumHIST@min                                               cstackCOMRAM 00001A
sumHIST@sumH                                              cstackCOMRAM 00001C
ttemp5                                                    temp         000051
ttemp6                                                    temp         000054
ttemp7                                                    temp         000058
validateRemoteSerialNumber@VerifyOnlySerial               cstackCOMRAM 000032
validateRemoteSerialNumber@i                              cstackCOMRAM 00003A
validateRemoteSerialNumber@j                              cstackCOMRAM 000039
validateRemoteSerialNumber@mask                           cstackCOMRAM 000035
validateRemoteSerialNumber@position                       cstackCOMRAM 000033
validateRemoteSerialNumber@serial                         cstackCOMRAM 00002E
verifyProgramingMode@classic_data                         cstackCOMRAM 000010
wr1RegCompleteHandler@i2c1_master_example$F517@ptr        cstackCOMRAM 000019
wr1RegCompleteHandler@p                                   cstackCOMRAM 000019
wr2RegCompleteHandler@i2c1_master_example$F523@ptr        cstackCOMRAM 000019
wr2RegCompleteHandler@p                                   cstackCOMRAM 000019
write_eusartparser@debug                                  cstackCOMRAM 00001F
write_eusartparser@debug2                                 cstackCOMRAM 000021
write_eusartparser@package                                cstackCOMRAM 000010
write_package@package                                     cstackCOMRAM 000011
wtemp8                                                    temp         000051


MODULE INFORMATION

Module		Function		Class		Link	Load	Size
controlMemory_MC50.c
		_SaveNVM_VarSystem		CODE           	93C6	0000	56
		_validateRemoteSerialNumber		CODE           	5EB4	0000	412
		_checkNVM_VarSystem		CODE           	5D14	0000	416
		_saveNewSerial 		CODE           	87F4	0000	112
		_ReadSerial    		CODE           	8864	0000	112
		_ControlCounterMoves		CODE           	8D18	0000	90
		_ResetDefaultMemory		CODE           	651A	0000	394
		_RemoveSerial  		CODE           	83B6	0000	128
		_loadNVM_VarSystem		CODE           	6C1C	0000	302
		_cmdMemoryIsEmpty		CODE           	7E58	0000	146

controlMemory_MC50.c estimated size: 2168

sm_ControlGate_MC50.c
		_setPositionInvertionInOpening		CODE           	7698	0000	220
		_WaitPreFlash  		CODE           	8784	0000	112
		_actionZone_Opened		CODE           	578C	0000	494
		_actionZone_Closed		CODE           	7B30	0000	170
		_InitFullAutoTime		CODE           	99C0	0000	26
		_InitSoftStop  		CODE           	90AE	0000	74
		_InitWalkAutoTime		CODE           	9AC8	0000	20
		_StopOrder     		CODE           	991C	0000	28
		_InitSoftStart 		CODE           	8C06	0000	92
		_actionZone_Opening		CODE           	4EAE	0000	596
		_actionZone_Closing		CODE           	49AC	0000	652
		_VerifyFollowMe		CODE           	9870	0000	36
		_sm_execute_ControlGate		CODE           	4048	0000	842
		_CloseOrder    		CODE           	97B2	0000	38
		_setPositionInvertionInClosing		CODE           	6D4A	0000	296
		_OpenFullOrder 		CODE           	97D8	0000	38
		_OpenWalkOrder 		CODE           	88D4	0000	110

sm_ControlGate_MC50.c estimated size: 3844

mcc_generated_files/examples/i2c1_master_example.c
		_rdBlkRegCompleteHandler@i2c1_master_example$F535		CODE           	9290	0000	64
		_rd1RegCompleteHandler@i2c1_master_example$F500		CODE           	962E	0000	44
		_rd2RegCompleteHandler@i2c1_master_example$F511		CODE           	9602	0000	44
		_wr1RegCompleteHandler@i2c1_master_example$F517		CODE           	95D6	0000	44
		_wr2RegCompleteHandler@i2c1_master_example$F523		CODE           	970A	0000	44
		_I2C1_Read1ByteRegister		CODE           	8C62	0000	92

mcc_generated_files/examples/i2c1_master_example.c estimated size: 332

controlCurrent_MC50.c
		_refreshADCZeroOffset		CODE           	72BC	0000	254
		_getCurrentComparator		CODE           	6050	0000	410
		_ControlCurrent		CODE           	682C	0000	372
		_refreshCurrent		CODE           	9140	0000	70
		_ReadADC       		CODE           	8E76	0000	86
		_sumEnergyADC  		CODE           	8006	0000	140
		_sumHIST       		CODE           	74B6	0000	250
		_saveEnergyADCHist		CODE           	978A	0000	40

controlCurrent_MC50.c estimated size: 1622

sm_Main_MC50.c
		_sm_execute_main		CODE           	335C	0000	1288

sm_Main_MC50.c estimated size: 1288

outputs_MC50.c
		_getTimeDecelaration		CODE           	75B0	0000	232
		_Segments_Set  		CODE           	9B6C	0000	12
		_ControlMotor  		CODE           	5102	0000	586
		_SetSegmentValueMain		CODE           	99A6	0000	26
		_GetMotorPower 		CODE           	7840	0000	198
		_ControlLights 		CODE           	4392	0000	804
		_RGB_Set       		CODE           	9B36	0000	14
		_refreshSegment		CODE           	81A6	0000	134
		_setFlashLigth_ON		CODE           	9350	0000	60
		_getStateOpenPosition		CODE           	6F96	0000	272
		_controlMotorForce		CODE           	534C	0000	546
		_SetSegmentValueIntermitent		CODE           	9526	0000	44
		_SetSegmentValueLearn		CODE           	73BA	0000	252
		_SetSegmentValue		CODE           	99DA	0000	26
		_VerifyElectricalBrake		CODE           	85AA	0000	120
		_SetSegmentValueIntermitentMain		CODE           	9ADC	0000	20
		_setRGB_ON     		CODE           	7EEA	0000	144
		_controlVelocity		CODE           	556E	0000	542
		_ControlDecelarationFactor		CODE           	9A0E	0000	24

outputs_MC50.c estimated size: 4056

mcc_generated_files/i2c1_master.c
		_I2C1_DO_SEND_RESTART		CODE           	9C20	0000	8
		_I2C1_DO_TX_EMPTY		CODE           	8B4C	0000	94
		_I2C1_DO_SEND_RESTART_READ		CODE           	9C30	0000	8
		_I2C1_CallbackReturnStop		CODE           	9C8A	0000	4
		_I2C1_DO_RX    		CODE           	8530	0000	122
		_I2C1_DO_TX    		CODE           	8092	0000	140
		_I2C1_SetAddressNackCallback		CODE           	9A3E	0000	24
		_I2C1_DO_IDLE  		CODE           	9BE6	0000	10
		_I2C1_MasterOpen		CODE           	9A56	0000	24
		_I2C1_DO_RCEN  		CODE           	9BDC	0000	10
		_I2C1_MasterSendTxData		CODE           	9C38	0000	8
		_I2C1_MasterStop		CODE           	9C8E	0000	4
		_I2C1_CallbackReturnReset		CODE           	9C86	0000	4
		_I2C1_DO_RESET 		CODE           	9BD2	0000	10
		_I2C1_MasterStartRx		CODE           	9C82	0000	4
		_I2C1_Poller   		CODE           	9B26	0000	16
		_I2C1_DO_RX_ACK		CODE           	9C10	0000	8
		_I2C1_MasterWaitForEvent		CODE           	9BF8	0000	8
		_I2C1_MasterSendNack		CODE           	9C5E	0000	6
		_I2C1_DO_RX_NACK_RESTART		CODE           	9C00	0000	8
		_I2C1_MasterDisableIrq		CODE           	9C9A	0000	4
		_I2C1_MasterOperation		CODE           	95AA	0000	44
		_I2C1_SetCallback		CODE           	8942	0000	110
		_I2C1_MasterEnableRestart		CODE           	9C92	0000	4
		_I2C1_Open     		CODE           	82B0	0000	132
		_I2C1_DO_ADDRESS_NACK		CODE           	9060	0000	78
		_I2C1_SetBuffer		CODE           	99F4	0000	26
		_I2C1_DO_SEND_RESTART_WRITE		CODE           	9C28	0000	8
		_I2C1_MasterClose		CODE           	9C9E	0000	4
		_I2C1_MasterWrite		CODE           	9BF0	0000	8
		_I2C1_Initialize		CODE           	9AF0	0000	20
		_I2C1_Close    		CODE           	98D8	0000	34
		_I2C1_MasterIsNack		CODE           	9B60	0000	12
		_I2C1_MasterStart		CODE           	9C96	0000	4
		_I2C1_DO_SEND_ADR_WRITE		CODE           	9B44	0000	14
		_I2C1_MasterClearIrq		CODE           	9C64	0000	6
		_I2C1_SetDataCompleteCallback		CODE           	9A6E	0000	24
		_I2C1_DO_SEND_STOP		CODE           	9C18	0000	8
		_I2C1_MasterSendAck		CODE           	9C58	0000	6
		_I2C1_MasterFsm		CODE           	8ECC	0000	84
		_I2C1_MasterGetRxData		CODE           	9C7E	0000	4
		_I2C1_MasterSetIrq		CODE           	9C52	0000	6
		_I2C1_DO_SEND_ADR_READ		CODE           	9B52	0000	14
		_I2C1_DO_RX_NACK_STOP		CODE           	9C08	0000	8

mcc_generated_files/i2c1_master.c estimated size: 1182

eusartparser.c
		_read_eusartparser		CODE           	28D8	0000	1400
		_confirmpackage		CODE           	8CBE	0000	90
		_write_eusartparser		CODE           	3864	0000	1060
		_eusartparser  		CODE           	1886	0000	2372

eusartparser.c estimated size: 4922

mcc_generated_files/tmr2.c
		_TMR2_ISR      		CODE           	69A0	0000	334
		_TMR2_Initialize		CODE           	957E	0000	44
		_TMR2_SetInterruptHandler		CODE           	9B82	0000	10
		_TMR2_DefaultInterruptHandler		CODE           	9CA4	0000	2

mcc_generated_files/tmr2.c estimated size: 390

mcc_generated_files/interrupt_manager.c
		_INTERRUPT_Initialize		CODE           	9C7A	0000	4
		_INTERRUPT_InterruptManager		CODE           	0008	0000	148

mcc_generated_files/interrupt_manager.c estimated size: 152

C:\Program Files\Microchip\xc8\v2.36\pic\sources\c99\common\Umul32.c
		___lmul        		CODE           	8E20	0000	86

C:\Program Files\Microchip\xc8\v2.36\pic\sources\c99\common\Umul32.c estimated size: 86

inputs_MC50.c
		_ControlInputs 		CODE           	6E72	0000	292
		_readbutton    		CODE           	89B0	0000	108
		_ClearFlag_rfCMD		CODE           	9C4C	0000	6
		_getSerialCmd  		CODE           	9012	0000	78
		_rxi           		CODE           	4C38	0000	630
		_GetSecurityStateInClosing		CODE           	7BDA	0000	166
		_getTypeRemote 		CODE           	9C46	0000	6
		_GetOpenOrder  		CODE           	5B4C	0000	456
		_readInputs    		CODE           	71B4	0000	264
		_InitReceiver  		CODE           	998C	0000	26
		_GetSecurityStateInOpening		CODE           	7C80	0000	166
		_getKeyPressed 		CODE           	9A26	0000	24
		_readRFButtons 		CODE           	6384	0000	406

inputs_MC50.c estimated size: 2628

mcc_generated_files/tmr0.c
		_TMR0_SetInterruptHandler		CODE           	9B96	0000	10
		_TMR0_DefaultInterruptHandler		CODE           	9CA8	0000	2
		_TMR0_ISR      		CODE           	9824	0000	38
		_TMR0_Initialize		CODE           	98B6	0000	34

mcc_generated_files/tmr0.c estimated size: 84

sm_MenuConfiguration_MC50.c
		_load_New_Menu 		CODE           	46B6	0000	758
		_sm_execute_menuConfiguration		CODE           	0F22	0000	2404
		_controlSelectRemote		CODE           	3C88	0000	960
		_setValueToEdit		CODE           	2E50	0000	1292
		_controlSaveRemote		CODE           	79CC	0000	180
		_controlLearnDigit		CODE           	94C8	0000	48

sm_MenuConfiguration_MC50.c estimated size: 5642

mcc_generated_files/pin_manager.c
		_PIN_MANAGER_Initialize		CODE           	7DC0	0000	152

mcc_generated_files/pin_manager.c estimated size: 152

main_MC50.c
		_decrementTimeslot		CODE           	9760	0000	42
		_ShowVersion   		CODE           	8A84	0000	102
		_main          		CODE           	66A4	0000	392
		_controlTimeslots		CODE           	61EA	0000	410

main_MC50.c estimated size: 946

C:\Program Files\Microchip\xc8\v2.36\pic\sources\c99\common\__lldiv.c
		___lldiv       		CODE           	8334	0000	130

C:\Program Files\Microchip\xc8\v2.36\pic\sources\c99\common\__lldiv.c estimated size: 130

mcc_generated_files/drivers/i2c_simple_master.c
		_i2c_readDataBlock		CODE           	869A	0000	118
		_wr1RegCompleteHandler		CODE           	96DE	0000	44
		_wr2RegCompleteHandler		CODE           	965A	0000	44
		_i2c_writeNBytes		CODE           	8710	0000	116
		_rdBlkRegCompleteHandler		CODE           	92D0	0000	64
		_rd1RegCompleteHandler		CODE           	96B2	0000	44
		_rd2RegCompleteHandler		CODE           	9686	0000	44

mcc_generated_files/drivers/i2c_simple_master.c estimated size: 474

C:\Program Files\Microchip\xc8\v2.36\pic\sources\c99\common\lwdiv.c
		___lwdiv       		CODE           	8F20	0000	82

C:\Program Files\Microchip\xc8\v2.36\pic\sources\c99\common\lwdiv.c estimated size: 82

C:\Program Files\Microchip\xc8\v2.36\pic\sources\c99\common\awdiv.c
		___awdiv       		CODE           	822C	0000	132

C:\Program Files\Microchip\xc8\v2.36\pic\sources\c99\common\awdiv.c estimated size: 132

C:\Program Files\Microchip\xc8\v2.36\pic\sources\c99\common\lbmod.c
		___lbmod       		CODE           	9736	0000	42

C:\Program Files\Microchip\xc8\v2.36\pic\sources\c99\common\lbmod.c estimated size: 42

shared
		i2_VerifyElectricalBrake		CODE           	8622	0000	120
		__initialization		CODE           	7A80	0000	166
		_i2c1_fsmStateTable		SMALLCONST     	0F01	0000	32
		i2_GetMotorPower		CODE           	7906	0000	198

shared estimated size: 516

mcc_generated_files/eusart1.c
		_EUSART1_SetRxInterruptHandler		CODE           	9BAA	0000	10
		_EUSART1_SetTxInterruptHandler		CODE           	9BA0	0000	10
		_EUSART1_is_rx_ready		CODE           	9B16	0000	16
		_EUSART1_Initialize		CODE           	8436	0000	126
		_EUSART1_DefaultErrorHandler		CODE           	9C70	0000	6
		_EUSART1_SetFramingErrorHandler		CODE           	9BBE	0000	10
		_EUSART1_Read  		CODE           	90F8	0000	72
		_EUSART1_SetOverrunErrorHandler		CODE           	9BB4	0000	10
		_EUSART1_SetErrorHandler		CODE           	9BC8	0000	10
		_EUSART1_Write 		CODE           	9250	0000	64
		_EUSART1_Receive_ISR		CODE           	7D26	0000	154
		_EUSART1_RxDataHandler		CODE           	98FA	0000	34
		_EUSART1_DefaultOverrunErrorHandler		CODE           	9C6A	0000	6
		_EUSART1_Transmit_ISR		CODE           	9496	0000	50
		_EUSART1_DefaultFramingErrorHandler		CODE           	9CAA	0000	2

mcc_generated_files/eusart1.c estimated size: 580

mcc_generated_files/mcc.c
		_WWDT_TimerClear		CODE           	9938	0000	28
		_PMD_Initialize		CODE           	9954	0000	28
		_OSCILLATOR_Initialize		CODE           	9A9C	0000	22
		_SYSTEM_Initialize		CODE           	94F8	0000	46
		_WWDT_Initialize		CODE           	9B78	0000	10
		_WWDT_SoftEnable		CODE           	9C76	0000	4

mcc_generated_files/mcc.c estimated size: 138

sm_common_MC50.c
		_sm_restart    		CODE           	9186	0000	68
		_sm_get_current_state		CODE           	9B04	0000	18
		_sm_init       		CODE           	8DCA	0000	86
		_sm_send_event 		CODE           	8BAA	0000	92

sm_common_MC50.c estimated size: 264

mcc_generated_files/tmr1.c
		_TMR1_Initialize		CODE           	920E	0000	66
		_TMR1_SetInterruptHandler		CODE           	9B8C	0000	10
		_TMR1_DefaultInterruptHandler		CODE           	9CA6	0000	2
		_TMR1_WriteTimer		CODE           	9970	0000	28
		_TMR1_ISR      		CODE           	9310	0000	64

mcc_generated_files/tmr1.c estimated size: 170

eusartpackage.c
		_write_package 		CODE           	9552	0000	44
		_init_package  		CODE           	9464	0000	50
		_read_package  		CODE           	8F72	0000	80

eusartpackage.c estimated size: 174

keeloqDecrypt_MC50.c
		_NormalKeyGen  		CODE           	70A6	0000	270
		_keeloqDecryptPacket		CODE           	597A	0000	466
		_DecCHK        		CODE           	9432	0000	50
		_Decrypt       		CODE           	7774	0000	204
		_ReqResync     		CODE           	9A86	0000	22
		_getHopCode    		CODE           	6AEE	0000	302
		_LoadManufCode 		CODE           	9894	0000	34
		_keeloq_classic_decrypt_packet		CODE           	8D72	0000	88
		_DecryptPacket_12BIT		CODE           	7F7A	0000	140
		_verifyProgramingMode		CODE           	93FE	0000	52
		_HopCHK        		CODE           	811E	0000	136

keeloqDecrypt_MC50.c estimated size: 1764

mcc_generated_files/adcc.c
		_ADCC_GetSingleConversion		CODE           	9AB2	0000	22
		_ADCC_Initialize		CODE           	8FC2	0000	80

mcc_generated_files/adcc.c estimated size: 102

C:\Program Files\Microchip\xc8\v2.36\pic\sources\c99\common\memcpy.c
		_memcpy        		CODE           	91CA	0000	68

C:\Program Files\Microchip\xc8\v2.36\pic\sources\c99\common\memcpy.c estimated size: 68

C:\Program Files\Microchip\xc8\v2.36\pic\sources\c99\common\Umul16.c
		___wmul        		CODE           	97FE	0000	38

C:\Program Files\Microchip\xc8\v2.36\pic\sources\c99\common\Umul16.c estimated size: 38

C:\Program Files\Microchip\xc8\v2.36\pic\sources\c99\common\lbdiv.c
		___lbdiv       		CODE           	938C	0000	58

C:\Program Files\Microchip\xc8\v2.36\pic\sources\c99\common\lbdiv.c estimated size: 58

sm_ControlLearning_MC50.c
		_sm_execute_ControlLearning		CODE           	21CA	0000	1806
		_calculateMean 		CODE           	8AEA	0000	98
		_generateErrorLearnig		CODE           	8A1C	0000	104
		_clearLearningValue		CODE           	84B4	0000	124

sm_ControlLearning_MC50.c estimated size: 2132

