Microchip MPLAB XC8 Compiler V2.36

Linker command line:

-W-3 --edf=C:\Program Files\Microchip\xc8\v2.36\pic\dat\en_msgs.txt -cn \
  -h+dist/default/production\MC50UNI.V.0.2.3.X.production.sym \
  --cmf=dist/default/production\MC50UNI.V.0.2.3.X.production.cmf -z \
  -Q18F46K40 -oC:\Users\RAFAEL~1\AppData\Local\Temp\xcAs2fc.4 \
  --defsym=__MPLAB_BUILD=1 \
  -Mdist/default/production/MC50UNI.V.0.2.3.X.production.map \
  --md=C:\Users\RAFAEL~1\AppData\Local\Temp\xcAs2fc.dat -E1 \
  -ver=XC8 Compiler --acfsm=1493 -ACODE=00h-0FFFFh -ACONST=00h-0FFFFh \
  -ASMALLCONST=0F00h-0FFFhx241 -AMEDIUMCONST=0F00h-0FFFFh -ACOMRAM=01h-05Fh \
  -AABS1=00h-0E87h -ABIGRAM=01h-0E87h \
  -ARAM=060h-0FFh,0100h-01FFhx13,0E00h-0E87h -ABANK0=060h-0FFh \
  -ABANK1=0100h-01FFh -ABANK2=0200h-02FFh -ABANK3=0300h-03FFh \
  -ABANK4=0400h-04FFh -ABANK5=0500h-05FFh -ABANK6=0600h-06FFh \
  -ABANK7=0700h-07FFh -ABANK8=0800h-08FFh -ABANK9=0900h-09FFh \
  -ABANK10=0A00h-0AFFh -ABANK11=0B00h-0BFFh -ABANK12=0C00h-0CFFh \
  -ABANK13=0D00h-0DFFh -ABANK14=0E00h-0E87h \
  -ASFR=0E8Dh-0EFFh,0F00h-0F5Fh,0F60h-0FFFh -ABIGSFR=0E8Dh-0FFFh \
  -ACONFIG=0300000h-030000Bh -AIDLOC=0200000h-020000Fh \
  -AEEDATA=0310000h-03103FFh -peeprom_data=EEDATA \
  -preset_vec=00h,intcode=08h,intcodelo,powerup,init -pramtop=0F00h \
  -psmallconst=SMALLCONST -pmediumconst=MEDIUMCONST -pconst=CONST \
  -AFARRAM=00h-00h \
  -prdata=COMRAM,nvrram=COMRAM,nvbit=COMRAM,rbss=COMRAM,rbit=COMRAM \
  -pfarbss=FARRAM,fardata=FARRAM,nvFARRAM=FARRAM \
  -pintsave_regs=BIGRAM,bigbss=BIGRAM,bigdata=BIGRAM -pbss=RAM \
  -pidata=CODE,irdata=CODE,ibigdata=CODE,ifardata=CODE -prparam=COMRAM \
  C:\Users\RAFAEL~1\AppData\Local\Temp\xcAs2fc.o \
  dist/default/production\MC50UNI.V.0.2.3.X.production.o 

Object code version is 3.11

Machine type is 18F46K40



                Name                               Link     Load   Length Selector   Space Scale
C:\Users\RAFAEL~1\AppData\Local\Temp\xcAs2fc.o
                idloc                            200000   200000       10        0       5
                config                           300000   300000        C        0       4
                init                                 9C       9C        4        4       0
                reset_vec                             0        0        4        0       0
dist/default/production\MC50UNI.V.0.2.3.X.production.o
                intcode                               8        8       94        4       0
                idloc                            200000   200000       10        0       5
                config                           300000   300000        C        0       4
                temp                                 50       50        1        1       1
                smallconst                          F00      F00       22      780       0
                text206                            8FA2     8FA2       22     478C       0
                text205                            9314     9314        6     478C       0
                text204                            9356     9356        2     4990       0
                text203                            930E     930E        6     478C       0
                text202                            74C8     74C8       9A      791       0
                text201                            8B3E     8B3E       32      791       0
                text200                            9354     9354        2     4990       0
                text199                            4284     4284      276      791       0
                text198                            8ECC     8ECC       26      791       0
                text197                            9352     9352        2     4990       0
                text196                            9018     9018       1C     478C       0
                text195                            70A2     70A2       C6      791       0
                text194                            7DC6     7DC6       78      791       0
                text193                            4998     4998      222      791       0
                text192                            89EA     89EA       40      791       0
                text191                            915C     915C       16     478C       0
                text190                            8550     8550       56      791       0
                text189                            9350     9350        2     4990       0
                text188                            8E08     8E08       2A      791       0
                text187                            5836     5836      19A      791       0
                text186                            9216     9216        C     478C       0
                text185                            794A     794A       86      791       0
                text184                            613C     613C      14E      791       0
                text182                            9308     9308        6     478C       0
                text181                            9348     9348        4     4990       0
                text180                            9344     9344        4     4990       0
                text179                            8F80     8F80       22     478C       0
                text178                            9340     9340        4     4990       0
                text177                            933C     933C        4     4990       0
                text176                            9338     9338        4     4990       0
                text175                            909C     909C       1A     478C       0
                text174                            8076     8076       6E      791       0
                text173                            912E     912E       18     478C       0
                text172                            8DB2     8DB2       2C      791       0
                text171                            8D86     8D86       2C      791       0
                text170                            8D5A     8D5A       2C      791       0
                text169                            8D2E     8D2E       2C      791       0
                text168                            8D02     8D02       2C      791       0
                text167                            89AA     89AA       40      791       0
                text166                            8CD6     8CD6       2C      791       0
                text165                            8CAA     8CAA       2C      791       0
                text164                            8C7E     8C7E       2C      791       0
                text163                            896A     896A       40      791       0
                text162                            9334     9334        4     4990       0
                text161                            9330     9330        4     4990       0
                text160                            932C     932C        4     4990       0
                text159                            9302     9302        6     478C       0
                text158                            9328     9328        4     4990       0
                text157                            92FC     92FC        6     478C       0
                text156                            92E2     92E2        8     478C       0
                text155                            920A     920A        C     478C       0
                text154                            92F6     92F6        6     478C       0
                text153                            8280     8280       5E      791       0
                text152                            9290     9290        A     478C       0
                text151                            91FC     91FC        E     478C       0
                text150                            91EE     91EE        E     478C       0
                text149                            7834     7834       8C      791       0
                text148                            7CD4     7CD4       7A      791       0
                text147                            9286     9286        A     478C       0
                text146                            92DA     92DA        8     478C       0
                text145                            92D2     92D2        8     478C       0
                text144                            92CA     92CA        8     478C       0
                text143                            92C2     92C2        8     478C       0
                text142                            92BA     92BA        8     478C       0
                text141                            92B2     92B2        8     478C       0
                text140                            92AA     92AA        8     478C       0
                text139                            927C     927C        A     478C       0
                text138                            873A     873A       4E      791       0
                text137                            85A6     85A6       54      791       0
                text136                            92A2     92A2        8     478C       0
                text135                            91D0     91D0       10     478C       0
                text134                            8C52     8C52       2C      791       0
                text133                            929A     929A        8     478C       0
                text132                            9116     9116       18     478C       0
                text131                            7A54     7A54       84      791       0
                text130                            90FE     90FE       18     478C       0
                text129                            88A4     88A4       44      791       0
                text128                            7EB4     7EB4       74      791       0
                text127                            8AA0     8AA0       38      791       0
                text126                            83F2     83F2       5A      791       0
                text125                            6FDC     6FDC       C6      791       0
                text124                            8EA6     8EA6       26      791       0
                text123                            569C     569C      19A      791       0
                text122                            85FA     85FA       52      791       0
                text121                            6A58     6A58       FE      791       0
                text120                            8E32     8E32       28      791       0
                text119                            77A8     77A8       8C      791       0
                text118                            6C52     6C52       FA      791       0
                text117                            881A     881A       46      791       0
                text116                            5E72     5E72      174      791       0
                text115                            660E     660E      124      791       0
                text114                            8A2A     8A2A       3C      791       0
                text113                            91E0     91E0        E     478C       0
                text112                            768C     768C       90      791       0
                text111                            39DE     39DE      324      791       0
                text110                            7D4E     7D4E       78      791       0
                text109                            474E     474E      24A      791       0
                text108                            91C0     91C0       10     478C       0
                text107                            869C     869C       50      791       0
                text106                            9272     9272        A     478C       0
                text105                            9268     9268        A     478C       0
                text104                            925E     925E        A     478C       0
                text103                            9254     9254        A     478C       0
                text102                            924A     924A        A     478C       0
                text101                            7BDA     7BDA       7E      791       0
                text100                            919A     919A       14     478C       0
                text99                             9324     9324        4     4990       0
                text98                             9146     9146       16     478C       0
                text97                             7562     7562       98      791       0
                text96                             8FFC     8FFC       1C     478C       0
                text95                             9240     9240        A     478C       0
                text94                             8F5E     8F5E       22     478C       0
                text93                             9236     9236        A     478C       0
                text92                             88E8     88E8       42      791       0
                text91                             922C     922C        A     478C       0
                text90                             8C26     8C26       2C      791       0
                text89                             9222     9222        A     478C       0
                text88                             8BA0     8BA0       2E      791       0
                text87                             9082     9082       1A     478C       0
                text86                             81B8     81B8       66      791       0
                text85                             9320     9320        4     4990       0
                text84                             8FE0     8FE0       1C     478C       0
                text83                             892A     892A       40      791       0
                text82                             8BFA     8BFA       2C      791       0
                text81                             29A8     29A8      508      791       0
                text80                             2EB0     2EB0      424      791       0
                text79                             5FE6     5FE6      156      791       0
                text78                             90E6     90E6       18     478C       0
                text77                             8396     8396       5C      791       0
                text76                             5B66     5B66      18A      791       0
                text75                             5360     5360      1A0      791       0
                text74                             7E3E     7E3E       76      791       0
                text73                             63B8     63B8      12E      791       0
                text72                             6950     6950      108      791       0
                text71                             5500     5500      19C      791       0
                text70                             771C     771C       8C      791       0
                text69                             8B0C     8B0C       32      791       0
                text68                             90CE     90CE       18     478C       0
                text67                             628A     628A      12E      791       0
                text66                             78C0     78C0       8A      791       0
                text65                             6F10     6F10       CC      791       0
                text64                             8F3C     8F3C       22     478C       0
                text63                             6842     6842      10E      791       0
                text62                             844C     844C       58      791       0
                text61                             8AD8     8AD8       34      791       0
                text60                             4FC6     4FC6      1D2      791       0
                text59                             59D0     59D0      196      791       0
                text58                             87D2     87D2       48      791       0
                text57                             864C     864C       50      791       0
                text56                             80E4     80E4       6C      791       0
                text55                             9186     9186       14     478C       0
                text54                             8A66     8A66       3A      791       0
                text53                             5198     5198      1C8      791       0
                text52                             8BCE     8BCE       2C      791       0
                text51                             7422     7422       A6      791       0
                text50                             9172     9172       14     478C       0
                text49                             833A     833A       5C      791       0
                text48                             91AE     91AE       12     478C       0
                text47                             82DE     82DE       5C      791       0
                text46                             8008     8008       6E      791       0
                text45                             9068     9068       1A     478C       0
                text44                             8E80     8E80       26      791       0
                text43                             7F98     7F98       70      791       0
                text42                             72D2     72D2       AA      791       0
                text41                             737C     737C       A6      791       0
                text40                             8FC4     8FC4       1C     478C       0
                text39                             84FA     84FA       56      791       0
                text38                             6D4C     6D4C       E8      791       0
                text37                             64E6     64E6      128      791       0
                text36                             3FF8     3FF8      28C      791       0
                text35                             8E5A     8E5A       26      791       0
                text34                             8F18     8F18       24     478C       0
                text33                             4DD8     4DD8      1EE      791       0
                text32                             90B6     90B6       18     478C       0
                text31                             8788     8788       4A      791       0
                text30                             6732     6732      110      791       0
                text29                             4BBA     4BBA      21E      791       0
                text28                             6E34     6E34       DC      791       0
                text27                             44FA     44FA      254      791       0
                text26                             821E     821E       62      791       0
                text25                             7C58     7C58       7C      791       0
                text24                             8860     8860       44      791       0
                text23                             84A4     84A4       56      791       0
                text22                             8150     8150       68      791       0
                text21                             1886     1886      70E      791       0
                text20                             3694     3694      34A      791       0
                text19                             7AD8     7AD8       82      791       0
                text18                             6B56     6B56       FC      791       0
                text17                             8B70     8B70       30      791       0
                text16                             92F0     92F0        6     478C       0
                text15                             904E     904E       1A     478C       0
                text14                             79D0     79D0       84      791       0
                text13                             8DDE     8DDE       2A      791       0
                text12                             721E     721E       B4      791       0
                text11                             7B5A     7B5A       80      791       0
                text10                             75FA     75FA       92      791       0
                text9                              86EC     86EC       4E      791       0
                text8                              92EA     92EA        6     478C       0
                text7                              7F28     7F28       70      791       0
                text6                              32D4     32D4      3C0      791       0
                text5                              9034     9034       1A     478C       0
                text4                              3D02     3D02      2F6      791       0
                text3                              1F94     1F94      50C      791       0
                text2                               F22      F22      964      791       0
                text1                              24A0     24A0      508      791       0
                text0                              5CF0     5CF0      182      791       0
                cstackCOMRAM                          1        1       3A        1       1
                cstackBANK0                          D8       D8       20       60       1
                dataBANK3                           3D2      3D2       25      300       1
                bssBANK3                            300      300       D2      300       1
                dataBANK2                           2EF      2EF        2      200       1
                bssBANK2                            200      200       DD      200       1
                dataBANK1                           1F9      1F9        5      100       1
                bssBANK1                            100      100       F9      100       1
                dataBANK0                            F8       F8        2       60       1
                bssBANK0                             60       60       78       60       1
                bssCOMRAM                            3B       3B       15        1       1
                cinit                              7168     7168       B6      791       0
                nvBANK2                             2DD      2DD       12      200       1
                nvBANK1                             1FE      1FE        1      100       1
                idataBANK3                         8EF2     8EF2       25      791       0
                idataBANK2                         934E     934E        2     4990       0
                idataBANK1                         931A     931A        5     478C       0
                idataBANK0                         934C     934C        2     4990       0

TOTAL           Name                               Link     Load   Length     Space
        CLASS   CODE           
                intcode                               8        8       94         0
                init                                 9C       9C        4         0
                reset_vec                             0        0        4         0
                text206                            8FA2     8FA2       22         0
                text205                            9314     9314        6         0
                text204                            9356     9356        2         0
                text203                            930E     930E        6         0
                text202                            74C8     74C8       9A         0
                text201                            8B3E     8B3E       32         0
                text200                            9354     9354        2         0
                text199                            4284     4284      276         0
                text198                            8ECC     8ECC       26         0
                text197                            9352     9352        2         0
                text196                            9018     9018       1C         0
                text195                            70A2     70A2       C6         0
                text194                            7DC6     7DC6       78         0
                text193                            4998     4998      222         0
                text192                            89EA     89EA       40         0
                text191                            915C     915C       16         0
                text190                            8550     8550       56         0
                text189                            9350     9350        2         0
                text188                            8E08     8E08       2A         0
                text187                            5836     5836      19A         0
                text186                            9216     9216        C         0
                text185                            794A     794A       86         0
                text184                            613C     613C      14E         0
                text182                            9308     9308        6         0
                text181                            9348     9348        4         0
                text180                            9344     9344        4         0
                text179                            8F80     8F80       22         0
                text178                            9340     9340        4         0
                text177                            933C     933C        4         0
                text176                            9338     9338        4         0
                text175                            909C     909C       1A         0
                text174                            8076     8076       6E         0
                text173                            912E     912E       18         0
                text172                            8DB2     8DB2       2C         0
                text171                            8D86     8D86       2C         0
                text170                            8D5A     8D5A       2C         0
                text169                            8D2E     8D2E       2C         0
                text168                            8D02     8D02       2C         0
                text167                            89AA     89AA       40         0
                text166                            8CD6     8CD6       2C         0
                text165                            8CAA     8CAA       2C         0
                text164                            8C7E     8C7E       2C         0
                text163                            896A     896A       40         0
                text162                            9334     9334        4         0
                text161                            9330     9330        4         0
                text160                            932C     932C        4         0
                text159                            9302     9302        6         0
                text158                            9328     9328        4         0
                text157                            92FC     92FC        6         0
                text156                            92E2     92E2        8         0
                text155                            920A     920A        C         0
                text154                            92F6     92F6        6         0
                text153                            8280     8280       5E         0
                text152                            9290     9290        A         0
                text151                            91FC     91FC        E         0
                text150                            91EE     91EE        E         0
                text149                            7834     7834       8C         0
                text148                            7CD4     7CD4       7A         0
                text147                            9286     9286        A         0
                text146                            92DA     92DA        8         0
                text145                            92D2     92D2        8         0
                text144                            92CA     92CA        8         0
                text143                            92C2     92C2        8         0
                text142                            92BA     92BA        8         0
                text141                            92B2     92B2        8         0
                text140                            92AA     92AA        8         0
                text139                            927C     927C        A         0
                text138                            873A     873A       4E         0
                text137                            85A6     85A6       54         0
                text136                            92A2     92A2        8         0
                text135                            91D0     91D0       10         0
                text134                            8C52     8C52       2C         0
                text133                            929A     929A        8         0
                text132                            9116     9116       18         0
                text131                            7A54     7A54       84         0
                text130                            90FE     90FE       18         0
                text129                            88A4     88A4       44         0
                text128                            7EB4     7EB4       74         0
                text127                            8AA0     8AA0       38         0
                text126                            83F2     83F2       5A         0
                text125                            6FDC     6FDC       C6         0
                text124                            8EA6     8EA6       26         0
                text123                            569C     569C      19A         0
                text122                            85FA     85FA       52         0
                text121                            6A58     6A58       FE         0
                text120                            8E32     8E32       28         0
                text119                            77A8     77A8       8C         0
                text118                            6C52     6C52       FA         0
                text117                            881A     881A       46         0
                text116                            5E72     5E72      174         0
                text115                            660E     660E      124         0
                text114                            8A2A     8A2A       3C         0
                text113                            91E0     91E0        E         0
                text112                            768C     768C       90         0
                text111                            39DE     39DE      324         0
                text110                            7D4E     7D4E       78         0
                text109                            474E     474E      24A         0
                text108                            91C0     91C0       10         0
                text107                            869C     869C       50         0
                text106                            9272     9272        A         0
                text105                            9268     9268        A         0
                text104                            925E     925E        A         0
                text103                            9254     9254        A         0
                text102                            924A     924A        A         0
                text101                            7BDA     7BDA       7E         0
                text100                            919A     919A       14         0
                text99                             9324     9324        4         0
                text98                             9146     9146       16         0
                text97                             7562     7562       98         0
                text96                             8FFC     8FFC       1C         0
                text95                             9240     9240        A         0
                text94                             8F5E     8F5E       22         0
                text93                             9236     9236        A         0
                text92                             88E8     88E8       42         0
                text91                             922C     922C        A         0
                text90                             8C26     8C26       2C         0
                text89                             9222     9222        A         0
                text88                             8BA0     8BA0       2E         0
                text87                             9082     9082       1A         0
                text86                             81B8     81B8       66         0
                text85                             9320     9320        4         0
                text84                             8FE0     8FE0       1C         0
                text83                             892A     892A       40         0
                text82                             8BFA     8BFA       2C         0
                text81                             29A8     29A8      508         0
                text80                             2EB0     2EB0      424         0
                text79                             5FE6     5FE6      156         0
                text78                             90E6     90E6       18         0
                text77                             8396     8396       5C         0
                text76                             5B66     5B66      18A         0
                text75                             5360     5360      1A0         0
                text74                             7E3E     7E3E       76         0
                text73                             63B8     63B8      12E         0
                text72                             6950     6950      108         0
                text71                             5500     5500      19C         0
                text70                             771C     771C       8C         0
                text69                             8B0C     8B0C       32         0
                text68                             90CE     90CE       18         0
                text67                             628A     628A      12E         0
                text66                             78C0     78C0       8A         0
                text65                             6F10     6F10       CC         0
                text64                             8F3C     8F3C       22         0
                text63                             6842     6842      10E         0
                text62                             844C     844C       58         0
                text61                             8AD8     8AD8       34         0
                text60                             4FC6     4FC6      1D2         0
                text59                             59D0     59D0      196         0
                text58                             87D2     87D2       48         0
                text57                             864C     864C       50         0
                text56                             80E4     80E4       6C         0
                text55                             9186     9186       14         0
                text54                             8A66     8A66       3A         0
                text53                             5198     5198      1C8         0
                text52                             8BCE     8BCE       2C         0
                text51                             7422     7422       A6         0
                text50                             9172     9172       14         0
                text49                             833A     833A       5C         0
                text48                             91AE     91AE       12         0
                text47                             82DE     82DE       5C         0
                text46                             8008     8008       6E         0
                text45                             9068     9068       1A         0
                text44                             8E80     8E80       26         0
                text43                             7F98     7F98       70         0
                text42                             72D2     72D2       AA         0
                text41                             737C     737C       A6         0
                text40                             8FC4     8FC4       1C         0
                text39                             84FA     84FA       56         0
                text38                             6D4C     6D4C       E8         0
                text37                             64E6     64E6      128         0
                text36                             3FF8     3FF8      28C         0
                text35                             8E5A     8E5A       26         0
                text34                             8F18     8F18       24         0
                text33                             4DD8     4DD8      1EE         0
                text32                             90B6     90B6       18         0
                text31                             8788     8788       4A         0
                text30                             6732     6732      110         0
                text29                             4BBA     4BBA      21E         0
                text28                             6E34     6E34       DC         0
                text27                             44FA     44FA      254         0
                text26                             821E     821E       62         0
                text25                             7C58     7C58       7C         0
                text24                             8860     8860       44         0
                text23                             84A4     84A4       56         0
                text22                             8150     8150       68         0
                text21                             1886     1886      70E         0
                text20                             3694     3694      34A         0
                text19                             7AD8     7AD8       82         0
                text18                             6B56     6B56       FC         0
                text17                             8B70     8B70       30         0
                text16                             92F0     92F0        6         0
                text15                             904E     904E       1A         0
                text14                             79D0     79D0       84         0
                text13                             8DDE     8DDE       2A         0
                text12                             721E     721E       B4         0
                text11                             7B5A     7B5A       80         0
                text10                             75FA     75FA       92         0
                text9                              86EC     86EC       4E         0
                text8                              92EA     92EA        6         0
                text7                              7F28     7F28       70         0
                text6                              32D4     32D4      3C0         0
                text5                              9034     9034       1A         0
                text4                              3D02     3D02      2F6         0
                text3                              1F94     1F94      50C         0
                text2                               F22      F22      964         0
                text1                              24A0     24A0      508         0
                text0                              5CF0     5CF0      182         0
                cinit                              7168     7168       B6         0
                idataBANK3                         8EF2     8EF2       25         0
                idataBANK2                         934E     934E        2         0
                idataBANK1                         931A     931A        5         0
                idataBANK0                         934C     934C        2         0

        CLASS   CONST          

        CLASS   SMALLCONST     
                smallconst                          F00      F00       22         0

        CLASS   MEDIUMCONST    

        CLASS   COMRAM         
                temp                                 50       50        1         1
                cstackCOMRAM                          1        1       3A         1
                bssCOMRAM                            3B       3B       15         1

        CLASS   ABS1           

        CLASS   BIGRAM         

        CLASS   RAM            

        CLASS   BANK0          
                cstackBANK0                          D8       D8       20         1
                dataBANK0                            F8       F8        2         1
                bssBANK0                             60       60       78         1

        CLASS   BANK1          
                dataBANK1                           1F9      1F9        5         1
                bssBANK1                            100      100       F9         1
                nvBANK1                             1FE      1FE        1         1

        CLASS   BANK2          
                dataBANK2                           2EF      2EF        2         1
                bssBANK2                            200      200       DD         1
                nvBANK2                             2DD      2DD       12         1

        CLASS   BANK3          
                dataBANK3                           3D2      3D2       25         1
                bssBANK3                            300      300       D2         1

        CLASS   BANK4          

        CLASS   BANK5          

        CLASS   BANK6          

        CLASS   BANK7          

        CLASS   BANK8          

        CLASS   BANK9          

        CLASS   BANK10         

        CLASS   BANK11         

        CLASS   BANK12         

        CLASS   BANK13         

        CLASS   BANK14         

        CLASS   SFR            

        CLASS   BIGSFR         

        CLASS   CONFIG         
                config                           300000   300000        C         4

        CLASS   IDLOC          
                idloc                            200000   200000       10         5

        CLASS   EEDATA         

        CLASS   FARRAM         

        CLASS   HEAP           

        CLASS   STACK          



SEGMENTS        Name                           Load    Length   Top    Selector   Space  Class

                reset_vec                      000000  000004  000004         0       0  CODE    
                cstackCOMRAM                   000001  000050  000051         1       1  COMRAM  
                intcode                        000008  000098  0000A0         4       0  CODE    
                bssBANK0                       000060  00009A  0000FA        60       1  BANK0   
                bssBANK1                       000100  0000FF  0001FF       100       1  BANK1   
                bssBANK2                       000200  0000F1  0002F1       200       1  BANK2   
                bssBANK3                       000300  0000F7  0003F7       300       1  BANK3   
                smallconst                     000F00  000022  000F22       780       0  SMALLCON
                text2                          000F22  007FF5  008F17       791       0  CODE    
                text34                         008F18  000407  00931F      478C       0  CODE    
                text85                         009320  000038  009358      4990       0  CODE    


UNUSED ADDRESS RANGES

        Name                Unused          Largest block    Delta
        BANK0            0000FA-0000FF                6
        BANK1            0001FF-0001FF                1
        BANK10           000A00-000AFF              100
        BANK11           000B00-000BFF              100
        BANK12           000C00-000CFF              100
        BANK13           000D00-000DFF              100
        BANK14           000E00-000E87               88
        BANK2            0002F1-0002FF                F
        BANK3            0003F7-0003FF                9
        BANK4            000400-0004FF              100
        BANK5            000500-0005FF              100
        BANK6            000600-0006FF              100
        BANK7            000700-0007FF              100
        BANK8            000800-0008FF              100
        BANK9            000900-0009FF              100
        BIGRAM           000051-00005F                F
                         0000FA-0000FF                6
                         0001FF-0001FF                1
                         0002F1-0002FF                F
                         0003F7-000E87              A91
        BIGSFR           000E8D-000FFF              173
        CODE             000004-000007                4
                         0000A0-000EFF              E60
                         008F17-008F17                1
                         00931F-00931F                1
                         009358-00FFFF             6CA8
        COMRAM           000051-00005F                F
        CONST            000004-000007                4
                         0000A0-000EFF              E60
                         008F17-008F17                1
                         00931F-00931F                1
                         009358-00FFFF             6CA8
        EEDATA           310000-3103FF              400
        MEDIUMCONST      008F17-008F17                1
                         00931F-00931F                1
                         009358-00FFFF             6CA8
        RAM              0000FA-0000FF                6
                         0001FF-0001FF                1
                         0002F1-0002FF                F
                         0003F7-000E87              100
        SFR              000E8D-000FFF               73
        SMALLCONST       008F17-008F17                1
                         00931F-00931F                1
                         009358-00FFFF              100

                                  Symbol Table

?___awdiv                                                 cstackCOMRAM 000014
?___lldiv                                                 cstackCOMRAM 000010
?___lmul                                                  cstackCOMRAM 00001D
?___lwdiv                                                 cstackCOMRAM 000010
?___wmul                                                  cstackCOMRAM 000010
?_calculateMean                                           cstackCOMRAM 000010
?_getCurrentComparator                                    cstackCOMRAM 000016
?_getHopCode                                              cstackCOMRAM 000016
?_getTimeDecelaration                                     cstackCOMRAM 000029
?_read_package                                            cstackCOMRAM 000011
?_sm_get_current_state                                    cstackCOMRAM 000010
?_sumEnergyADC                                            cstackCOMRAM 000010
?_sumHIST                                                 cstackCOMRAM 000010
ADCC_GetSingleConversion@channel                          cstackCOMRAM 000001
ControlMotor@stateMotor                                   cstackCOMRAM 000018
DecCHK@data                                               cstackCOMRAM 000010
Decrypt@Buffer                                            cstackCOMRAM 000022
Decrypt@aux                                               cstackCOMRAM 000021
Decrypt@i                                                 cstackCOMRAM 00001E
Decrypt@j                                                 cstackCOMRAM 00001F
Decrypt@key                                               cstackCOMRAM 00001D
Decrypt@p                                                 cstackCOMRAM 000020
Decrypt@packet                                            cstackCOMRAM 00001B
DecryptPacket_12BIT@classic_data                          cstackBANK0  0000E2
DecryptPacket_12BIT@commandType                           cstackBANK0  0000E4
DecryptPacket_12BIT@data                                  cstackBANK0  0000E0
EUSART1_Read@readValue                                    cstackCOMRAM 000010
EUSART1_SetErrorHandler@interruptHandler                  cstackCOMRAM 000010
EUSART1_SetFramingErrorHandler@interruptHandler           cstackCOMRAM 000010
EUSART1_SetOverrunErrorHandler@interruptHandler           cstackCOMRAM 000010
EUSART1_SetRxInterruptHandler@interruptHandler            cstackCOMRAM 000010
EUSART1_SetTxInterruptHandler@interruptHandler            cstackCOMRAM 000010
EUSART1_Write@txData                                      cstackCOMRAM 000010
GetMotorPower@defineatraso                                cstackCOMRAM 000013
HopCHK@data                                               cstackCOMRAM 000024
HopCHK@hopDiff                                            cstackCOMRAM 000026
I2C1_CallbackReturnReset@funPtr                           cstackCOMRAM 000019
I2C1_Close@returnValue                                    cstackCOMRAM 000010
I2C1_MasterOperation@read                                 cstackCOMRAM 000020
I2C1_MasterOperation@returnValue                          cstackCOMRAM 000021
I2C1_MasterSendTxData@data                                cstackCOMRAM 000010
I2C1_Open@address                                         cstackCOMRAM 000010
I2C1_Open@returnValue                                     cstackCOMRAM 000011
I2C1_Read1ByteRegister@address                            cstackCOMRAM 000023
I2C1_Read1ByteRegister@reg                                cstackCOMRAM 000022
I2C1_Read1ByteRegister@returnValue                        cstackCOMRAM 000024
I2C1_SetAddressNackCallback@cb                            cstackCOMRAM 000015
I2C1_SetAddressNackCallback@ptr                           cstackCOMRAM 000017
I2C1_SetBuffer@buffer                                     cstackCOMRAM 000010
I2C1_SetBuffer@bufferSize                                 cstackCOMRAM 000012
I2C1_SetCallback@cb                                       cstackCOMRAM 000010
I2C1_SetCallback@idx                                      cstackCOMRAM 000014
I2C1_SetCallback@ptr                                      cstackCOMRAM 000012
I2C1_SetDataCompleteCallback@cb                           cstackCOMRAM 000015
I2C1_SetDataCompleteCallback@ptr                          cstackCOMRAM 000017
NormalKeyGen@Buffer                                       cstackCOMRAM 000030
NormalKeyGen@HOPtemp                                      cstackCOMRAM 000028
NormalKeyGen@SEED                                         bssBANK2     0002D9
NormalKeyGen@SKEYtemp                                     cstackCOMRAM 00002C
NormalKeyGen@serial                                       cstackCOMRAM 000026
OpenWalkOrder@diffTime                                    cstackCOMRAM 00001A
RGB_Set@value                                             cstackCOMRAM 000010
RemoveSerial@cmdType                                      cstackBANK0  0000DA
RemoveSerial@position                                     cstackCOMRAM 00003A
RemoveSerial@tempSerial                                   cstackBANK0  0000DB
ReqResync@CurrentHop                                      cstackCOMRAM 000010
ResetDefaultMemory@type                                   cstackCOMRAM 00003A
SaveNVM_VarSystem@page                                    cstackBANK0  0000D8
SaveNVM_VarSystem@point                                   cstackBANK0  0000DB
SaveNVM_VarSystem@tempAdd                                 cstackBANK0  0000D9
Segments_Set@value                                        cstackCOMRAM 000001
SetSegmentValue@d1                                        cstackCOMRAM 00001D
SetSegmentValue@d2                                        cstackCOMRAM 00001C
SetSegmentValueIntermitent@d1                             cstackCOMRAM 000013
SetSegmentValueIntermitent@d2                             cstackCOMRAM 000010
SetSegmentValueIntermitent@time                           cstackCOMRAM 000011
SetSegmentValueIntermitentMain@d1                         cstackCOMRAM 00001F
SetSegmentValueIntermitentMain@d2                         cstackCOMRAM 00001C
SetSegmentValueIntermitentMain@time                       cstackCOMRAM 00001D
SetSegmentValueLearn@direction                            cstackCOMRAM 000012
SetSegmentValueMain@d1                                    cstackCOMRAM 00001D
SetSegmentValueMain@d2                                    cstackCOMRAM 00001C
TMR0_SetInterruptHandler@InterruptHandler                 cstackCOMRAM 000010
TMR1_SetInterruptHandler@InterruptHandler                 cstackCOMRAM 000010
TMR1_WriteTimer@timerVal                                  cstackCOMRAM 000001
TMR2_SetInterruptHandler@InterruptHandler                 cstackCOMRAM 000010
VerifyElectricalBrake@actualState                         cstackCOMRAM 000011
VerifyElectricalBrake@tempState                           cstackCOMRAM 000010
VerifyFollowMe@securityClose                              cstackCOMRAM 000010
WWDT_TimerClear@state                                     cstackCOMRAM 000010
_ADACCH                                                   (abs)        000F71
_ADACCL                                                   (abs)        000F70
_ADACQ                                                    (abs)        000F5C
_ADACT                                                    (abs)        000F56
_ADCAP                                                    (abs)        000F5D
_ADCC_GetSingleConversion                                 text191      00915C
_ADCC_Initialize                                          text107      00869C
_ADCLK                                                    (abs)        000F57
_ADCNT                                                    (abs)        000F67
_ADCON0                                                   (abs)        000F60
_ADCON0bits                                               (abs)        000F60
_ADCON1                                                   (abs)        000F59
_ADCON2                                                   (abs)        000F5A
_ADCON3                                                   (abs)        000F5B
_ADC_array                                                bssBANK2     000200
_ADC_zero_array                                           bssBANK3     000396
_ADERRH                                                   (abs)        000F6F
_ADERRL                                                   (abs)        000F6E
_ADFLTRH                                                  (abs)        000F73
_ADFLTRL                                                  (abs)        000F72
_ADLTHH                                                   (abs)        000F6B
_ADLTHL                                                   (abs)        000F6A
_ADPCH                                                    (abs)        000F5F
_ADPRE                                                    (abs)        000F5E
_ADPREVH                                                  (abs)        000F62
_ADPREVL                                                  (abs)        000F61
_ADREF                                                    (abs)        000F58
_ADRESH                                                   (abs)        000F64
_ADRESL                                                   (abs)        000F63
_ADRPT                                                    (abs)        000F66
_ADSTAT                                                   (abs)        000F65
_ADSTPTH                                                  (abs)        000F69
_ADSTPTL                                                  (abs)        000F68
_ADUTHH                                                   (abs)        000F6D
_ADUTHL                                                   (abs)        000F6C
_ANSELA                                                   (abs)        000F11
_ANSELB                                                   (abs)        000F19
_ANSELC                                                   (abs)        000F21
_ANSELD                                                   (abs)        000F26
_ANSELE                                                   (abs)        000F2E
_Abertura_pedonal                                         bssBANK1     00018D
_BAUD1CON                                                 (abs)        000F9F
_BitCount                                                 bssBANK0     00008C
_Bptr                                                     bssBANK0     00008D
_BufferRF                                                 bssBANK2     0002C8
_BufferRF_12BIT                                           bssBANK1     000187
_ClearFlag_rfCMD                                          text16       0092F0
_CloseOrder                                               text35       008E5A
_ControlCounterMoves                                      text126      0083F2
_ControlCurrent                                           text116      005E72
_ControlDecelarationFactor                                text32       0090B6
_ControlInputs                                            text115      00660E
_ControlLights                                            text111      0039DE
_ControlMotor                                             text109      00474E
_Counterchoose                                            bssBANK0     000092
_DKEY                                                     bssBANK2     0002D1
_DecCHK                                                   text69       008B0C
_Decrypt                                                  text65       006F10
_DecryptPacket_12BIT                                      text70       00771C
_DispTable                                                dataBANK3    0003D2
_EHop                                                     bssBANK2     00028C
_EUSART1_DefaultErrorHandler                              text205      009314
_EUSART1_DefaultFramingErrorHandler                       text204      009356
_EUSART1_DefaultOverrunErrorHandler                       text203      00930E
_EUSART1_ErrorHandler                                     nvBANK2      0002E5
_EUSART1_FramingErrorHandler                              nvBANK2      0002E9
_EUSART1_Initialize                                       text101      007BDA
_EUSART1_OverrunErrorHandler                              nvBANK2      0002E7
_EUSART1_Read                                             text58       0087D2
_EUSART1_Receive_ISR                                      text202      0074C8
_EUSART1_RxDataHandler                                    text206      008FA2
_EUSART1_RxDefaultInterruptHandler                        nvBANK2      0002EB
_EUSART1_SetErrorHandler                                  text106      009272
_EUSART1_SetFramingErrorHandler                           text105      009268
_EUSART1_SetOverrunErrorHandler                           text104      00925E
_EUSART1_SetRxInterruptHandler                            text103      009254
_EUSART1_SetTxInterruptHandler                            text102      00924A
_EUSART1_Transmit_ISR                                     text201      008B3E
_EUSART1_TxDefaultInterruptHandler                        nvBANK2      0002ED
_EUSART1_Write                                            text83       00892A
_EUSART1_is_rx_ready                                      text108      0091C0
_F2Chance                                                 bssBANK1     000195
_GIE                                                      (abs)        007F97
_GetMotorPower                                            text125      006FDC
_GetOpenOrder                                             text53       005198
_GetSecurityStateInClosing                                text41       00737C
_GetSecurityStateInOpening                                text51       007422
_Hop                                                      bssBANK0     00007C
_HopCHK                                                   text66       0078C0
_I2C1_CallbackReturnReset                                 text161      009330
_I2C1_CallbackReturnStop                                  text162      009334
_I2C1_Close                                               text179      008F80
_I2C1_DO_ADDRESS_NACK                                     text138      00873A
_I2C1_DO_IDLE                                             text152      009290
_I2C1_DO_RCEN                                             text147      009286
_I2C1_DO_RESET                                            text139      00927C
_I2C1_DO_RX                                               text148      007CD4
_I2C1_DO_RX_ACK                                           text142      0092BA
_I2C1_DO_RX_NACK_RESTART                                  text140      0092AA
_I2C1_DO_RX_NACK_STOP                                     text141      0092B2
_I2C1_DO_SEND_ADR_READ                                    text151      0091FC
_I2C1_DO_SEND_ADR_WRITE                                   text150      0091EE
_I2C1_DO_SEND_RESTART                                     text144      0092CA
_I2C1_DO_SEND_RESTART_READ                                text146      0092DA
_I2C1_DO_SEND_RESTART_WRITE                               text145      0092D2
_I2C1_DO_SEND_STOP                                        text143      0092C2
_I2C1_DO_TX                                               text149      007834
_I2C1_DO_TX_EMPTY                                         text153      008280
_I2C1_Initialize                                          text100      00919A
_I2C1_MasterClearIrq                                      text182      009308
_I2C1_MasterClose                                         text181      009348
_I2C1_MasterDisableIrq                                    text180      009344
_I2C1_MasterEnableRestart                                 text177      00933C
_I2C1_MasterFsm                                           text137      0085A6
_I2C1_MasterGetRxData                                     text158      009328
_I2C1_MasterIsNack                                        text155      00920A
_I2C1_MasterOpen                                          text132      009116
_I2C1_MasterOperation                                     text134      008C52
_I2C1_MasterSendAck                                       text157      0092FC
_I2C1_MasterSendNack                                      text159      009302
_I2C1_MasterSendTxData                                    text156      0092E2
_I2C1_MasterSetIrq                                        text154      0092F6
_I2C1_MasterStart                                         text178      009340
_I2C1_MasterStartRx                                       text160      00932C
_I2C1_MasterStop                                          text176      009338
_I2C1_MasterWaitForEvent                                  text136      0092A2
_I2C1_MasterWrite                                         text133      00929A
_I2C1_Open                                                text131      007A54
_I2C1_Poller                                              text135      0091D0
_I2C1_Read1ByteRegister                                   text77       008396
_I2C1_SetAddressNackCallback                              text130      0090FE
_I2C1_SetBuffer                                           text175      00909C
_I2C1_SetCallback                                         text174      008076
_I2C1_SetDataCompleteCallback                             text173      00912E
_I2C1_Status                                              bssBANK2     00023C
_INLVLA                                                   (abs)        000F0D
_INLVLB                                                   (abs)        000F15
_INLVLC                                                   (abs)        000F1D
_INLVLD                                                   (abs)        000F22
_INLVLE                                                   (abs)        000F2A
_INTCONbits                                               (abs)        000FF2
_INTERRUPT_Initialize                                     text99       009324
_INTERRUPT_InterruptManager                               intcode      000008
_IOCBN3                                                   (abs)        00789B
_IOCBP3                                                   (abs)        0078A3
_InitFullAutoTime                                         text45       009068
_InitReceiver                                             text5        009034
_InitSoftStart                                            text49       00833A
_InitSoftStop                                             text31       008788
_InitWalkAutoTime                                         text50       009172
_LATA                                                     (abs)        000F83
_LATAbits                                                 (abs)        000F83
_LATB                                                     (abs)        000F84
_LATC                                                     (abs)        000F85
_LATCbits                                                 (abs)        000F85
_LATD                                                     (abs)        000F86
_LATDbits                                                 (abs)        000F86
_LATE                                                     (abs)        000F87
_LATEbits                                                 (abs)        000F87
_LoadManufCode                                            text64       008F3C
_NextHop                                                  bssBANK2     00028E
_NormalKeyGen                                             text63       006842
_ODCONA                                                   (abs)        000F0F
_ODCONB                                                   (abs)        000F17
_ODCONC                                                   (abs)        000F1F
_ODCOND                                                   (abs)        000F24
_ODCONE                                                   (abs)        000F2C
_OSCCON1                                                  (abs)        000ED8
_OSCCON3                                                  (abs)        000EDA
_OSCEN                                                    (abs)        000EDC
_OSCFRQ                                                   (abs)        000EDE
_OSCILLATOR_Initialize                                    text98       009146
_OSCTUNE                                                  (abs)        000EDD
_OpenFullOrder                                            text44       008E80
_OpenWalkOrder                                            text46       008008
_PCON0bits                                                (abs)        000FD7
_PIE0bits                                                 (abs)        000EC2
_PIE3bits                                                 (abs)        000EC5
_PIE4bits                                                 (abs)        000EC6
_PIN_MANAGER_Initialize                                   text97       007562
_PIR0bits                                                 (abs)        000ECA
_PIR3bits                                                 (abs)        000ECD
_PIR4bits                                                 (abs)        000ECE
_PMD0                                                     (abs)        000EE1
_PMD1                                                     (abs)        000EE2
_PMD2                                                     (abs)        000EE3
_PMD3                                                     (abs)        000EE4
_PMD4                                                     (abs)        000EE5
_PMD5                                                     (abs)        000EE6
_PMD_Initialize                                           text96       008FFC
_PORTAbits                                                (abs)        000F8D
_PORTB                                                    (abs)        000F8E
_PORTBbits                                                (abs)        000F8E
_PORTEbits                                                (abs)        000F91
_RC1REG                                                   (abs)        000F99
_RC1STA                                                   (abs)        000F9D
_RC1STAbits                                               (abs)        000F9D
_RC3PPS                                                   (abs)        000EFA
_RC4PPS                                                   (abs)        000EFB
_RC7PPS                                                   (abs)        000EFE
_RFBit                                                    bssBANK0     000089
_RFFull                                                   bssBANK0     00008B
_RFFull_12BIT                                             bssBANK0     00008A
_RFcount                                                  bssBANK0     00007E
_RFstate                                                  bssBANK1     000198
_RGB_Set                                                  text113      0091E0
_RX1PPS                                                   (abs)        000EB5
_ReadADC                                                  text190      008550
_RemoveSerial                                             text11       007B5A
_ReqResync                                                text68       0090CE
_ResetDefaultMemory                                       text76       005B66
_SLRCONA                                                  (abs)        000F0E
_SLRCONB                                                  (abs)        000F16
_SLRCONC                                                  (abs)        000F1E
_SLRCOND                                                  (abs)        000F23
_SLRCONE                                                  (abs)        000F2B
_SP1BRGH                                                  (abs)        000F9C
_SP1BRGL                                                  (abs)        000F9B
_SSP1ADD                                                  (abs)        000F93
_SSP1BUF                                                  (abs)        000F92
_SSP1CLKPPS                                               (abs)        000EB7
_SSP1CON1                                                 (abs)        000F96
_SSP1CON1bits                                             (abs)        000F96
_SSP1CON2                                                 (abs)        000F97
_SSP1CON2bits                                             (abs)        000F97
_SSP1DATPPS                                               (abs)        000EB8
_SSP1STAT                                                 (abs)        000F95
_SYSTEM_Initialize                                        text88       008BA0
_SaveNVM_VarSystem                                        text127      008AA0
_Segments_Set                                             text186      009216
_SetSegmentValue                                          text87       009082
_SetSegmentValueIntermitent                               text52       008BCE
_SetSegmentValueIntermitentMain                           text55       009186
_SetSegmentValueLearn                                     text18       006B56
_SetSegmentValueMain                                      text15       00904E
_ShowVersion                                              text86       0081B8
_StateTRIAC                                               bssBANK1     000190
_StopOrder                                                text40       008FC4
_SumEnergyADCHist_array                                   bssBANK2     000260
_T0CON0                                                   (abs)        000FD5
_T0CON1                                                   (abs)        000FD6
_T1CLK                                                    (abs)        000FD2
_T1CON                                                    (abs)        000FCF
_T1CONbits                                                (abs)        000FCF
_T1GATE                                                   (abs)        000FD1
_T1GCON                                                   (abs)        000FD0
_T2CLKCON                                                 (abs)        000FBF
_T2CON                                                    (abs)        000FBD
_T2HLT                                                    (abs)        000FBE
_T2PR                                                     (abs)        000FBC
_T2RST                                                    (abs)        000FC0
_T2TMR                                                    (abs)        000FBB
_TMR0H                                                    (abs)        000FD4
_TMR0IE                                                   (abs)        007615
_TMR0IF                                                   (abs)        007655
_TMR0L                                                    (abs)        000FD3
_TMR0_DefaultInterruptHandler                             text200      009354
_TMR0_ISR                                                 text198      008ECC
_TMR0_Initialize                                          text94       008F5E
_TMR0_InterruptHandler                                    nvBANK2      0002E3
_TMR0_SetInterruptHandler                                 text95       009240
_TMR1H                                                    (abs)        000FCE
_TMR1L                                                    (abs)        000FCD
_TMR1_DefaultInterruptHandler                             text197      009352
_TMR1_ISR                                                 text192      0089EA
_TMR1_Initialize                                          text92       0088E8
_TMR1_InterruptHandler                                    nvBANK2      0002DF
_TMR1_SetInterruptHandler                                 text93       009236
_TMR1_WriteTimer                                          text196      009018
_TMR2_DefaultInterruptHandler                             text189      009350
_TMR2_ISR                                                 text184      00613C
_TMR2_Initialize                                          text90       008C26
_TMR2_InterruptHandler                                    nvBANK2      0002DD
_TMR2_SetInterruptHandler                                 text91       00922C
_TRISA                                                    (abs)        000F88
_TRISB                                                    (abs)        000F89
_TRISC                                                    (abs)        000F8A
_TRISD                                                    (abs)        000F8B
_TRISE                                                    (abs)        000F8C
_TX1REG                                                   (abs)        000F9A
_TX1STA                                                   (abs)        000F9E
_VerifyElectricalBrake                                    text110      007D4E
_VerifyFollowMe                                           text34       008F18
_WDTCON0                                                  (abs)        000ED2
_WDTCON0bits                                              (abs)        000ED2
_WDTCON1                                                  (abs)        000ED3
_WPUA                                                     (abs)        000F10
_WPUB                                                     (abs)        000F18
_WPUC                                                     (abs)        000F20
_WPUD                                                     (abs)        000F25
_WPUE                                                     (abs)        000F2D
_WWDT_Initialize                                          text89       009222
_WWDT_SoftEnable                                          text85       009320
_WWDT_TimerClear                                          text84       008FE0
_WaitPreFlash                                             text43       007F98
__HRAM                                                    (abs)        000000
__Habs1                                                   abs1         000000
__Hbank0                                                  bank0        000000
__Hbank1                                                  bank1        000000
__Hbank10                                                 bank10       000000
__Hbank11                                                 bank11       000000
__Hbank12                                                 bank12       000000
__Hbank13                                                 bank13       000000
__Hbank14                                                 bank14       000000
__Hbank2                                                  bank2        000000
__Hbank3                                                  bank3        000000
__Hbank4                                                  bank4        000000
__Hbank5                                                  bank5        000000
__Hbank6                                                  bank6        000000
__Hbank7                                                  bank7        000000
__Hbank8                                                  bank8        000000
__Hbank9                                                  bank9        000000
__Hbigbss                                                 bigbss       000000
__Hbigdata                                                bigdata      000000
__Hbigram                                                 bigram       000000
__Hbigsfr                                                 bigsfr       000000
__Hbss                                                    bss          000000
__HbssBANK0                                               bssBANK0     000000
__HbssBANK1                                               bssBANK1     000000
__HbssBANK2                                               bssBANK2     000000
__HbssBANK3                                               bssBANK3     000000
__HbssCOMRAM                                              bssCOMRAM    000000
__Hcinit                                                  cinit        000000
__Hclrtext                                                clrtext      000000
__Hcomram                                                 comram       000000
__Hconfig                                                 config       30000C
__Hconst                                                  const        000000
__HcstackBANK0                                            cstackBANK0  000000
__HcstackCOMRAM                                           cstackCOMRAM 000000
__Hdata                                                   data         000000
__HdataBANK0                                              dataBANK0    000000
__HdataBANK1                                              dataBANK1    000000
__HdataBANK2                                              dataBANK2    000000
__HdataBANK3                                              dataBANK3    000000
__Heeprom_data                                            eeprom_data  000000
__Hfarbss                                                 farbss       000000
__Hfardata                                                fardata      000000
__Hheap                                                   heap         000000
__Hibigdata                                               ibigdata     000000
__Hidata                                                  idata        000000
__HidataBANK0                                             idataBANK0   000000
__HidataBANK1                                             idataBANK1   000000
__HidataBANK2                                             idataBANK2   000000
__HidataBANK3                                             idataBANK3   000000
__Hidloc                                                  idloc        200010
__Hifardata                                               ifardata     000000
__Hinit                                                   init         0000A0
__Hintcode                                                intcode      00009C
__Hintcode_body                                           intcode_body 000000
__Hintcodelo                                              intcodelo    00009C
__Hintentry                                               intentry     000000
__Hintret                                                 intret       000000
__Hintsave_regs                                           intsave_regs 000000
__Hirdata                                                 irdata       000000
__Hmediumconst                                            mediumconst  000000
__HnvBANK1                                                nvBANK1      000000
__HnvBANK2                                                nvBANK2      000000
__HnvFARRAM                                               nvFARRAM     000000
__Hnvbit                                                  nvbit        000000
__Hnvrram                                                 nvrram       000000
__Hparam                                                  rparam       000000
__Hpowerup                                                powerup      00009C
__Hram                                                    ram          000000
__Hramtop                                                 ramtop       000F00
__Hrbit                                                   rbit         000000
__Hrbss                                                   rbss         000000
__Hrdata                                                  rdata        000000
__Hreset_vec                                              reset_vec    000004
__Hrparam                                                 rparam       000000
__Hsfr                                                    sfr          000000
__Hsmallconst                                             smallconst   000F22
__Hspace_0                                                (abs)        009358
__Hspace_1                                                (abs)        0003F7
__Hspace_2                                                (abs)        000000
__Hspace_4                                                (abs)        60000C
__Hstack                                                  stack        000000
__Hstruct                                                 struct       000000
__Htemp                                                   temp         000051
__Htext                                                   text         000000
__Htext0                                                  text0        000000
__Htext1                                                  text1        000000
__Htext10                                                 text10       000000
__Htext100                                                text100      000000
__Htext101                                                text101      000000
__Htext102                                                text102      000000
__Htext103                                                text103      000000
__Htext104                                                text104      000000
__Htext105                                                text105      000000
__Htext106                                                text106      000000
__Htext107                                                text107      000000
__Htext108                                                text108      000000
__Htext109                                                text109      000000
__Htext11                                                 text11       000000
__Htext110                                                text110      000000
__Htext111                                                text111      000000
__Htext112                                                text112      000000
__Htext113                                                text113      000000
__Htext114                                                text114      000000
__Htext115                                                text115      000000
__Htext116                                                text116      000000
__Htext117                                                text117      000000
__Htext118                                                text118      000000
__Htext119                                                text119      000000
__Htext12                                                 text12       000000
__Htext120                                                text120      000000
__Htext121                                                text121      000000
__Htext122                                                text122      000000
__Htext123                                                text123      000000
__Htext124                                                text124      000000
__Htext125                                                text125      000000
__Htext126                                                text126      000000
__Htext127                                                text127      000000
__Htext128                                                text128      000000
__Htext129                                                text129      000000
__Htext13                                                 text13       000000
__Htext130                                                text130      000000
__Htext131                                                text131      000000
__Htext132                                                text132      000000
__Htext133                                                text133      000000
__Htext134                                                text134      000000
__Htext135                                                text135      000000
__Htext136                                                text136      000000
__Htext137                                                text137      000000
__Htext138                                                text138      000000
__Htext139                                                text139      000000
__Htext14                                                 text14       000000
__Htext140                                                text140      000000
__Htext141                                                text141      000000
__Htext142                                                text142      000000
__Htext143                                                text143      000000
__Htext144                                                text144      000000
__Htext145                                                text145      000000
__Htext146                                                text146      000000
__Htext147                                                text147      000000
__Htext148                                                text148      000000
__Htext149                                                text149      000000
__Htext15                                                 text15       000000
__Htext150                                                text150      000000
__Htext151                                                text151      000000
__Htext152                                                text152      000000
__Htext153                                                text153      000000
__Htext154                                                text154      000000
__Htext155                                                text155      000000
__Htext156                                                text156      000000
__Htext157                                                text157      000000
__Htext158                                                text158      000000
__Htext159                                                text159      000000
__Htext16                                                 text16       000000
__Htext160                                                text160      000000
__Htext161                                                text161      000000
__Htext162                                                text162      000000
__Htext163                                                text163      000000
__Htext164                                                text164      000000
__Htext165                                                text165      000000
__Htext166                                                text166      000000
__Htext167                                                text167      000000
__Htext168                                                text168      000000
__Htext169                                                text169      000000
__Htext17                                                 text17       000000
__Htext170                                                text170      000000
__Htext171                                                text171      000000
__Htext172                                                text172      000000
__Htext173                                                text173      000000
__Htext174                                                text174      000000
__Htext175                                                text175      000000
__Htext176                                                text176      000000
__Htext177                                                text177      000000
__Htext178                                                text178      000000
__Htext179                                                text179      000000
__Htext18                                                 text18       000000
__Htext180                                                text180      000000
__Htext181                                                text181      000000
__Htext182                                                text182      000000
__Htext184                                                text184      000000
__Htext185                                                text185      000000
__Htext186                                                text186      000000
__Htext187                                                text187      000000
__Htext188                                                text188      000000
__Htext189                                                text189      000000
__Htext19                                                 text19       000000
__Htext190                                                text190      000000
__Htext191                                                text191      000000
__Htext192                                                text192      000000
__Htext193                                                text193      000000
__Htext194                                                text194      000000
__Htext195                                                text195      000000
__Htext196                                                text196      000000
__Htext197                                                text197      000000
__Htext198                                                text198      000000
__Htext199                                                text199      000000
__Htext2                                                  text2        000000
__Htext20                                                 text20       000000
__Htext200                                                text200      000000
__Htext201                                                text201      000000
__Htext202                                                text202      000000
__Htext203                                                text203      000000
__Htext204                                                text204      000000
__Htext205                                                text205      000000
__Htext206                                                text206      000000
__Htext207                                                text207      000000
__Htext21                                                 text21       000000
__Htext22                                                 text22       000000
__Htext23                                                 text23       000000
__Htext24                                                 text24       000000
__Htext25                                                 text25       000000
__Htext26                                                 text26       000000
__Htext27                                                 text27       000000
__Htext28                                                 text28       000000
__Htext29                                                 text29       000000
__Htext3                                                  text3        000000
__Htext30                                                 text30       000000
__Htext31                                                 text31       000000
__Htext32                                                 text32       000000
__Htext33                                                 text33       000000
__Htext34                                                 text34       000000
__Htext35                                                 text35       000000
__Htext36                                                 text36       000000
__Htext37                                                 text37       000000
__Htext38                                                 text38       000000
__Htext39                                                 text39       000000
__Htext4                                                  text4        000000
__Htext40                                                 text40       000000
__Htext41                                                 text41       000000
__Htext42                                                 text42       000000
__Htext43                                                 text43       000000
__Htext44                                                 text44       000000
__Htext45                                                 text45       000000
__Htext46                                                 text46       000000
__Htext47                                                 text47       000000
__Htext48                                                 text48       000000
__Htext49                                                 text49       000000
__Htext5                                                  text5        000000
__Htext50                                                 text50       000000
__Htext51                                                 text51       000000
__Htext52                                                 text52       000000
__Htext53                                                 text53       000000
__Htext54                                                 text54       000000
__Htext55                                                 text55       000000
__Htext56                                                 text56       000000
__Htext57                                                 text57       000000
__Htext58                                                 text58       000000
__Htext59                                                 text59       000000
__Htext6                                                  text6        000000
__Htext60                                                 text60       000000
__Htext61                                                 text61       000000
__Htext62                                                 text62       000000
__Htext63                                                 text63       000000
__Htext64                                                 text64       000000
__Htext65                                                 text65       000000
__Htext66                                                 text66       000000
__Htext67                                                 text67       000000
__Htext68                                                 text68       000000
__Htext69                                                 text69       000000
__Htext7                                                  text7        000000
__Htext70                                                 text70       000000
__Htext71                                                 text71       000000
__Htext72                                                 text72       000000
__Htext73                                                 text73       000000
__Htext74                                                 text74       000000
__Htext75                                                 text75       000000
__Htext76                                                 text76       000000
__Htext77                                                 text77       000000
__Htext78                                                 text78       000000
__Htext79                                                 text79       000000
__Htext8                                                  text8        000000
__Htext80                                                 text80       000000
__Htext81                                                 text81       000000
__Htext82                                                 text82       000000
__Htext83                                                 text83       000000
__Htext84                                                 text84       000000
__Htext85                                                 text85       000000
__Htext86                                                 text86       000000
__Htext87                                                 text87       000000
__Htext88                                                 text88       000000
__Htext89                                                 text89       000000
__Htext9                                                  text9        000000
__Htext90                                                 text90       000000
__Htext91                                                 text91       000000
__Htext92                                                 text92       000000
__Htext93                                                 text93       000000
__Htext94                                                 text94       000000
__Htext95                                                 text95       000000
__Htext96                                                 text96       000000
__Htext97                                                 text97       000000
__Htext98                                                 text98       000000
__Htext99                                                 text99       000000
__LRAM                                                    (abs)        000001
__Labs1                                                   abs1         000000
__Lbank0                                                  bank0        000000
__Lbank1                                                  bank1        000000
__Lbank10                                                 bank10       000000
__Lbank11                                                 bank11       000000
__Lbank12                                                 bank12       000000
__Lbank13                                                 bank13       000000
__Lbank14                                                 bank14       000000
__Lbank2                                                  bank2        000000
__Lbank3                                                  bank3        000000
__Lbank4                                                  bank4        000000
__Lbank5                                                  bank5        000000
__Lbank6                                                  bank6        000000
__Lbank7                                                  bank7        000000
__Lbank8                                                  bank8        000000
__Lbank9                                                  bank9        000000
__Lbigbss                                                 bigbss       000000
__Lbigdata                                                bigdata      000000
__Lbigram                                                 bigram       000000
__Lbigsfr                                                 bigsfr       000000
__Lbss                                                    bss          000000
__LbssBANK0                                               bssBANK0     000000
__LbssBANK1                                               bssBANK1     000000
__LbssBANK2                                               bssBANK2     000000
__LbssBANK3                                               bssBANK3     000000
__LbssCOMRAM                                              bssCOMRAM    000000
__Lcinit                                                  cinit        000000
__Lclrtext                                                clrtext      000000
__Lcomram                                                 comram       000000
__Lconfig                                                 config       000000
__Lconst                                                  const        000000
__LcstackBANK0                                            cstackBANK0  000000
__LcstackCOMRAM                                           cstackCOMRAM 000000
__Ldata                                                   data         000000
__LdataBANK0                                              dataBANK0    000000
__LdataBANK1                                              dataBANK1    000000
__LdataBANK2                                              dataBANK2    000000
__LdataBANK3                                              dataBANK3    000000
__Leeprom_data                                            eeprom_data  000000
__Lfarbss                                                 farbss       000000
__Lfardata                                                fardata      000000
__Lheap                                                   heap         000000
__Libigdata                                               ibigdata     000000
__Lidata                                                  idata        000000
__LidataBANK0                                             idataBANK0   000000
__LidataBANK1                                             idataBANK1   000000
__LidataBANK2                                             idataBANK2   000000
__LidataBANK3                                             idataBANK3   000000
__Lidloc                                                  idloc        000000
__Lifardata                                               ifardata     000000
__Linit                                                   init         00009C
__Lintcode                                                intcode      000008
__Lintcode_body                                           intcode_body 000000
__Lintcodelo                                              intcodelo    00009C
__Lintentry                                               intentry     000000
__Lintret                                                 intret       000000
__Lintsave_regs                                           intsave_regs 000000
__Lirdata                                                 irdata       000000
__Lmediumconst                                            mediumconst  000000
__LnvBANK1                                                nvBANK1      000000
__LnvBANK2                                                nvBANK2      000000
__LnvFARRAM                                               nvFARRAM     000000
__Lnvbit                                                  nvbit        000000
__Lnvrram                                                 nvrram       000000
__Lparam                                                  rparam       000000
__Lpowerup                                                powerup      00009C
__Lram                                                    ram          000000
__Lramtop                                                 ramtop       000F00
__Lrbit                                                   rbit         000000
__Lrbss                                                   rbss         000000
__Lrdata                                                  rdata        000000
__Lreset_vec                                              reset_vec    000000
__Lrparam                                                 rparam       000000
__Lsfr                                                    sfr          000000
__Lsmallconst                                             smallconst   000F00
__Lspace_0                                                (abs)        000000
__Lspace_1                                                (abs)        000000
__Lspace_2                                                (abs)        000000
__Lspace_4                                                (abs)        000000
__Lstack                                                  stack        000000
__Lstruct                                                 struct       000000
__Ltemp                                                   temp         000050
__Ltext                                                   text         000000
__Ltext0                                                  text0        000000
__Ltext1                                                  text1        000000
__Ltext10                                                 text10       000000
__Ltext100                                                text100      000000
__Ltext101                                                text101      000000
__Ltext102                                                text102      000000
__Ltext103                                                text103      000000
__Ltext104                                                text104      000000
__Ltext105                                                text105      000000
__Ltext106                                                text106      000000
__Ltext107                                                text107      000000
__Ltext108                                                text108      000000
__Ltext109                                                text109      000000
__Ltext11                                                 text11       000000
__Ltext110                                                text110      000000
__Ltext111                                                text111      000000
__Ltext112                                                text112      000000
__Ltext113                                                text113      000000
__Ltext114                                                text114      000000
__Ltext115                                                text115      000000
__Ltext116                                                text116      000000
__Ltext117                                                text117      000000
__Ltext118                                                text118      000000
__Ltext119                                                text119      000000
__Ltext12                                                 text12       000000
__Ltext120                                                text120      000000
__Ltext121                                                text121      000000
__Ltext122                                                text122      000000
__Ltext123                                                text123      000000
__Ltext124                                                text124      000000
__Ltext125                                                text125      000000
__Ltext126                                                text126      000000
__Ltext127                                                text127      000000
__Ltext128                                                text128      000000
__Ltext129                                                text129      000000
__Ltext13                                                 text13       000000
__Ltext130                                                text130      000000
__Ltext131                                                text131      000000
__Ltext132                                                text132      000000
__Ltext133                                                text133      000000
__Ltext134                                                text134      000000
__Ltext135                                                text135      000000
__Ltext136                                                text136      000000
__Ltext137                                                text137      000000
__Ltext138                                                text138      000000
__Ltext139                                                text139      000000
__Ltext14                                                 text14       000000
__Ltext140                                                text140      000000
__Ltext141                                                text141      000000
__Ltext142                                                text142      000000
__Ltext143                                                text143      000000
__Ltext144                                                text144      000000
__Ltext145                                                text145      000000
__Ltext146                                                text146      000000
__Ltext147                                                text147      000000
__Ltext148                                                text148      000000
__Ltext149                                                text149      000000
__Ltext15                                                 text15       000000
__Ltext150                                                text150      000000
__Ltext151                                                text151      000000
__Ltext152                                                text152      000000
__Ltext153                                                text153      000000
__Ltext154                                                text154      000000
__Ltext155                                                text155      000000
__Ltext156                                                text156      000000
__Ltext157                                                text157      000000
__Ltext158                                                text158      000000
__Ltext159                                                text159      000000
__Ltext16                                                 text16       000000
__Ltext160                                                text160      000000
__Ltext161                                                text161      000000
__Ltext162                                                text162      000000
__Ltext163                                                text163      000000
__Ltext164                                                text164      000000
__Ltext165                                                text165      000000
__Ltext166                                                text166      000000
__Ltext167                                                text167      000000
__Ltext168                                                text168      000000
__Ltext169                                                text169      000000
__Ltext17                                                 text17       000000
__Ltext170                                                text170      000000
__Ltext171                                                text171      000000
__Ltext172                                                text172      000000
__Ltext173                                                text173      000000
__Ltext174                                                text174      000000
__Ltext175                                                text175      000000
__Ltext176                                                text176      000000
__Ltext177                                                text177      000000
__Ltext178                                                text178      000000
__Ltext179                                                text179      000000
__Ltext18                                                 text18       000000
__Ltext180                                                text180      000000
__Ltext181                                                text181      000000
__Ltext182                                                text182      000000
__Ltext184                                                text184      000000
__Ltext185                                                text185      000000
__Ltext186                                                text186      000000
__Ltext187                                                text187      000000
__Ltext188                                                text188      000000
__Ltext189                                                text189      000000
__Ltext19                                                 text19       000000
__Ltext190                                                text190      000000
__Ltext191                                                text191      000000
__Ltext192                                                text192      000000
__Ltext193                                                text193      000000
__Ltext194                                                text194      000000
__Ltext195                                                text195      000000
__Ltext196                                                text196      000000
__Ltext197                                                text197      000000
__Ltext198                                                text198      000000
__Ltext199                                                text199      000000
__Ltext2                                                  text2        000000
__Ltext20                                                 text20       000000
__Ltext200                                                text200      000000
__Ltext201                                                text201      000000
__Ltext202                                                text202      000000
__Ltext203                                                text203      000000
__Ltext204                                                text204      000000
__Ltext205                                                text205      000000
__Ltext206                                                text206      000000
__Ltext207                                                text207      000000
__Ltext21                                                 text21       000000
__Ltext22                                                 text22       000000
__Ltext23                                                 text23       000000
__Ltext24                                                 text24       000000
__Ltext25                                                 text25       000000
__Ltext26                                                 text26       000000
__Ltext27                                                 text27       000000
__Ltext28                                                 text28       000000
__Ltext29                                                 text29       000000
__Ltext3                                                  text3        000000
__Ltext30                                                 text30       000000
__Ltext31                                                 text31       000000
__Ltext32                                                 text32       000000
__Ltext33                                                 text33       000000
__Ltext34                                                 text34       000000
__Ltext35                                                 text35       000000
__Ltext36                                                 text36       000000
__Ltext37                                                 text37       000000
__Ltext38                                                 text38       000000
__Ltext39                                                 text39       000000
__Ltext4                                                  text4        000000
__Ltext40                                                 text40       000000
__Ltext41                                                 text41       000000
__Ltext42                                                 text42       000000
__Ltext43                                                 text43       000000
__Ltext44                                                 text44       000000
__Ltext45                                                 text45       000000
__Ltext46                                                 text46       000000
__Ltext47                                                 text47       000000
__Ltext48                                                 text48       000000
__Ltext49                                                 text49       000000
__Ltext5                                                  text5        000000
__Ltext50                                                 text50       000000
__Ltext51                                                 text51       000000
__Ltext52                                                 text52       000000
__Ltext53                                                 text53       000000
__Ltext54                                                 text54       000000
__Ltext55                                                 text55       000000
__Ltext56                                                 text56       000000
__Ltext57                                                 text57       000000
__Ltext58                                                 text58       000000
__Ltext59                                                 text59       000000
__Ltext6                                                  text6        000000
__Ltext60                                                 text60       000000
__Ltext61                                                 text61       000000
__Ltext62                                                 text62       000000
__Ltext63                                                 text63       000000
__Ltext64                                                 text64       000000
__Ltext65                                                 text65       000000
__Ltext66                                                 text66       000000
__Ltext67                                                 text67       000000
__Ltext68                                                 text68       000000
__Ltext69                                                 text69       000000
__Ltext7                                                  text7        000000
__Ltext70                                                 text70       000000
__Ltext71                                                 text71       000000
__Ltext72                                                 text72       000000
__Ltext73                                                 text73       000000
__Ltext74                                                 text74       000000
__Ltext75                                                 text75       000000
__Ltext76                                                 text76       000000
__Ltext77                                                 text77       000000
__Ltext78                                                 text78       000000
__Ltext79                                                 text79       000000
__Ltext8                                                  text8        000000
__Ltext80                                                 text80       000000
__Ltext81                                                 text81       000000
__Ltext82                                                 text82       000000
__Ltext83                                                 text83       000000
__Ltext84                                                 text84       000000
__Ltext85                                                 text85       000000
__Ltext86                                                 text86       000000
__Ltext87                                                 text87       000000
__Ltext88                                                 text88       000000
__Ltext89                                                 text89       000000
__Ltext9                                                  text9        000000
__Ltext90                                                 text90       000000
__Ltext91                                                 text91       000000
__Ltext92                                                 text92       000000
__Ltext93                                                 text93       000000
__Ltext94                                                 text94       000000
__Ltext95                                                 text95       000000
__Ltext96                                                 text96       000000
__Ltext97                                                 text97       000000
__Ltext98                                                 text98       000000
__Ltext99                                                 text99       000000
__S0                                                      (abs)        009358
__S1                                                      (abs)        0003F7
__S4                                                      (abs)        000000
__S5                                                      (abs)        000000
___awdiv                                                  text14       0079D0
___awdiv@counter                                          cstackCOMRAM 000018
___awdiv@dividend                                         cstackCOMRAM 000014
___awdiv@divisor                                          cstackCOMRAM 000016
___awdiv@quotient                                         cstackCOMRAM 00001A
___awdiv@sign                                             cstackCOMRAM 000019
___heap_hi                                                (abs)        000000
___heap_lo                                                (abs)        000000
___inthi_sp                                               stack        000000
___intlo_sp                                               stack        000000
___lbdiv                                                  text54       008A66
___lbdiv@counter                                          cstackCOMRAM 000012
___lbdiv@dividend                                         cstackCOMRAM 000011
___lbdiv@divisor                                          cstackCOMRAM 000010
___lbdiv@quotient                                         cstackCOMRAM 000013
___lbmod                                                  text13       008DDE
___lbmod@counter                                          cstackCOMRAM 000012
___lbmod@dividend                                         cstackCOMRAM 000011
___lbmod@divisor                                          cstackCOMRAM 000010
___lbmod@rem                                              cstackCOMRAM 000013
___lldiv                                                  text19       007AD8
___lldiv@counter                                          cstackCOMRAM 00001C
___lldiv@dividend                                         cstackCOMRAM 000010
___lldiv@divisor                                          cstackCOMRAM 000014
___lldiv@quotient                                         cstackCOMRAM 000018
___lmul                                                   text39       0084FA
___lmul@multiplicand                                      cstackCOMRAM 000021
___lmul@multiplier                                        cstackCOMRAM 00001D
___lmul@product                                           cstackCOMRAM 000025
___lwdiv                                                  text122      0085FA
___lwdiv@counter                                          cstackCOMRAM 000016
___lwdiv@dividend                                         cstackCOMRAM 000010
___lwdiv@divisor                                          cstackCOMRAM 000012
___lwdiv@quotient                                         cstackCOMRAM 000014
___param_bank                                             (abs)        000000
___rparam_used                                            (abs)        000001
___sp                                                     stack        000000
___wmul                                                   text124      008EA6
___wmul@multiplicand                                      cstackCOMRAM 000012
___wmul@multiplier                                        cstackCOMRAM 000010
___wmul@product                                           cstackCOMRAM 000014
__accesstop                                               (abs)        000060
__activetblptr                                            (abs)        000003
__end_of_ADCC_GetSingleConversion                         text191      009172
__end_of_ADCC_Initialize                                  text107      0086EC
__end_of_ClearFlag_rfCMD                                  text16       0092F6
__end_of_CloseOrder                                       text35       008E80
__end_of_ControlCounterMoves                              text126      00844C
__end_of_ControlCurrent                                   text116      005FE6
__end_of_ControlDecelarationFactor                        text32       0090CE
__end_of_ControlInputs                                    text115      006732
__end_of_ControlLights                                    text111      003D02
__end_of_ControlMotor                                     text109      004998
__end_of_DecCHK                                           text69       008B3E
__end_of_Decrypt                                          text65       006FDC
__end_of_DecryptPacket_12BIT                              text70       0077A8
__end_of_EUSART1_DefaultErrorHandler                      text205      00931A
__end_of_EUSART1_DefaultFramingErrorHandler               text204      009358
__end_of_EUSART1_DefaultOverrunErrorHandler               text203      009314
__end_of_EUSART1_Initialize                               text101      007C58
__end_of_EUSART1_Read                                     text58       00881A
__end_of_EUSART1_Receive_ISR                              text202      007562
__end_of_EUSART1_RxDataHandler                            text206      008FC4
__end_of_EUSART1_SetErrorHandler                          text106      00927C
__end_of_EUSART1_SetFramingErrorHandler                   text105      009272
__end_of_EUSART1_SetOverrunErrorHandler                   text104      009268
__end_of_EUSART1_SetRxInterruptHandler                    text103      00925E
__end_of_EUSART1_SetTxInterruptHandler                    text102      009254
__end_of_EUSART1_Transmit_ISR                             text201      008B70
__end_of_EUSART1_Write                                    text83       00896A
__end_of_EUSART1_is_rx_ready                              text108      0091D0
__end_of_GetMotorPower                                    text125      0070A2
__end_of_GetOpenOrder                                     text53       005360
__end_of_GetSecurityStateInClosing                        text41       007422
__end_of_GetSecurityStateInOpening                        text51       0074C8
__end_of_HopCHK                                           text66       00794A
__end_of_I2C1_CallbackReturnReset                         text161      009334
__end_of_I2C1_CallbackReturnStop                          text162      009338
__end_of_I2C1_Close                                       text179      008FA2
__end_of_I2C1_DO_ADDRESS_NACK                             text138      008788
__end_of_I2C1_DO_IDLE                                     text152      00929A
__end_of_I2C1_DO_RCEN                                     text147      009290
__end_of_I2C1_DO_RESET                                    text139      009286
__end_of_I2C1_DO_RX                                       text148      007D4E
__end_of_I2C1_DO_RX_ACK                                   text142      0092C2
__end_of_I2C1_DO_RX_NACK_RESTART                          text140      0092B2
__end_of_I2C1_DO_RX_NACK_STOP                             text141      0092BA
__end_of_I2C1_DO_SEND_ADR_READ                            text151      00920A
__end_of_I2C1_DO_SEND_ADR_WRITE                           text150      0091FC
__end_of_I2C1_DO_SEND_RESTART                             text144      0092D2
__end_of_I2C1_DO_SEND_RESTART_READ                        text146      0092E2
__end_of_I2C1_DO_SEND_RESTART_WRITE                       text145      0092DA
__end_of_I2C1_DO_SEND_STOP                                text143      0092CA
__end_of_I2C1_DO_TX                                       text149      0078C0
__end_of_I2C1_DO_TX_EMPTY                                 text153      0082DE
__end_of_I2C1_Initialize                                  text100      0091AE
__end_of_I2C1_MasterClearIrq                              text182      00930E
__end_of_I2C1_MasterClose                                 text181      00934C
__end_of_I2C1_MasterDisableIrq                            text180      009348
__end_of_I2C1_MasterEnableRestart                         text177      009340
__end_of_I2C1_MasterFsm                                   text137      0085FA
__end_of_I2C1_MasterGetRxData                             text158      00932C
__end_of_I2C1_MasterIsNack                                text155      009216
__end_of_I2C1_MasterOpen                                  text132      00912E
__end_of_I2C1_MasterOperation                             text134      008C7E
__end_of_I2C1_MasterSendAck                               text157      009302
__end_of_I2C1_MasterSendNack                              text159      009308
__end_of_I2C1_MasterSendTxData                            text156      0092EA
__end_of_I2C1_MasterSetIrq                                text154      0092FC
__end_of_I2C1_MasterStart                                 text178      009344
__end_of_I2C1_MasterStartRx                               text160      009330
__end_of_I2C1_MasterStop                                  text176      00933C
__end_of_I2C1_MasterWaitForEvent                          text136      0092AA
__end_of_I2C1_MasterWrite                                 text133      0092A2
__end_of_I2C1_Open                                        text131      007AD8
__end_of_I2C1_Poller                                      text135      0091E0
__end_of_I2C1_Read1ByteRegister                           text77       0083F2
__end_of_I2C1_SetAddressNackCallback                      text130      009116
__end_of_I2C1_SetBuffer                                   text175      0090B6
__end_of_I2C1_SetCallback                                 text174      0080E4
__end_of_I2C1_SetDataCompleteCallback                     text173      009146
__end_of_INTERRUPT_Initialize                             text99       009328
__end_of_INTERRUPT_InterruptManager                       intcode      00009C
__end_of_InitFullAutoTime                                 text45       009082
__end_of_InitReceiver                                     text5        00904E
__end_of_InitSoftStart                                    text49       008396
__end_of_InitSoftStop                                     text31       0087D2
__end_of_InitWalkAutoTime                                 text50       009186
__end_of_LoadManufCode                                    text64       008F5E
__end_of_NormalKeyGen                                     text63       006950
__end_of_OSCILLATOR_Initialize                            text98       00915C
__end_of_OpenFullOrder                                    text44       008EA6
__end_of_OpenWalkOrder                                    text46       008076
__end_of_PIN_MANAGER_Initialize                           text97       0075FA
__end_of_PMD_Initialize                                   text96       009018
__end_of_RGB_Set                                          text113      0091EE
__end_of_ReadADC                                          text190      0085A6
__end_of_RemoveSerial                                     text11       007BDA
__end_of_ReqResync                                        text68       0090E6
__end_of_ResetDefaultMemory                               text76       005CF0
__end_of_SYSTEM_Initialize                                text88       008BCE
__end_of_SaveNVM_VarSystem                                text127      008AD8
__end_of_Segments_Set                                     text186      009222
__end_of_SetSegmentValue                                  text87       00909C
__end_of_SetSegmentValueIntermitent                       text52       008BFA
__end_of_SetSegmentValueIntermitentMain                   text55       00919A
__end_of_SetSegmentValueLearn                             text18       006C52
__end_of_SetSegmentValueMain                              text15       009068
__end_of_ShowVersion                                      text86       00821E
__end_of_StopOrder                                        text40       008FE0
__end_of_TMR0_DefaultInterruptHandler                     text200      009356
__end_of_TMR0_ISR                                         text198      008EF2
__end_of_TMR0_Initialize                                  text94       008F80
__end_of_TMR0_SetInterruptHandler                         text95       00924A
__end_of_TMR1_DefaultInterruptHandler                     text197      009354
__end_of_TMR1_ISR                                         text192      008A2A
__end_of_TMR1_Initialize                                  text92       00892A
__end_of_TMR1_SetInterruptHandler                         text93       009240
__end_of_TMR1_WriteTimer                                  text196      009034
__end_of_TMR2_DefaultInterruptHandler                     text189      009352
__end_of_TMR2_ISR                                         text184      00628A
__end_of_TMR2_Initialize                                  text90       008C52
__end_of_TMR2_SetInterruptHandler                         text91       009236
__end_of_VerifyElectricalBrake                            text110      007DC6
__end_of_VerifyFollowMe                                   text34       008F3C
__end_of_WWDT_Initialize                                  text89       00922C
__end_of_WWDT_SoftEnable                                  text85       009324
__end_of_WWDT_TimerClear                                  text84       008FFC
__end_of_WaitPreFlash                                     text43       008008
__end_of___awdiv                                          text14       007A54
__end_of___lbdiv                                          text54       008AA0
__end_of___lbmod                                          text13       008E08
__end_of___lldiv                                          text19       007B5A
__end_of___lmul                                           text39       008550
__end_of___lwdiv                                          text122      00864C
__end_of___wmul                                           text124      008ECC
__end_of__initialization                                  cinit        007214
__end_of_actionZone_Closed                                text42       00737C
__end_of_actionZone_Closing                               text36       004284
__end_of_actionZone_Opened                                text33       004FC6
__end_of_actionZone_Opening                               text27       00474E
__end_of_calculateMean                                    text26       008280
__end_of_checkNVM_VarSystem                               text75       005500
__end_of_clearLearningValue                               text25       007CD4
__end_of_cmdMemoryIsEmpty                                 text10       00768C
__end_of_controlLearnDigit                                text17       008BA0
__end_of_controlMotorForce                                text193      004BBA
__end_of_controlSaveRemote                                text12       0072D2
__end_of_controlSelectRemote                              text6        003694
__end_of_controlTimeslots                                 text187      0059D0
__end_of_controlVelocity                                  text29       004DD8
__end_of_decrementTimeslot                                text188      008E32
__end_of_eusartparser                                     text79       00613C
__end_of_generateErrorLearnig                             text22       0081B8
__end_of_getCurrentComparator                             text123      005836
__end_of_getHopCode                                       text67       0063B8
__end_of_getKeyPressed                                    text78       0090FE
__end_of_getSerialCmd                                     text9        00873A
__end_of_getStateOpenPosition                             text30       006842
__end_of_getTimeDecelaration                              text38       006E34
__end_of_getTypeRemote                                    text8        0092F0
__end_of_i2c1_fsmStateTable                               smallconst   000F21
__end_of_i2c_readDataBlock                                text74       007EB4
__end_of_i2c_writeNBytes                                  text128      007F28
__end_of_keeloqDecryptPacket                              text60       005198
__end_of_keeloq_classic_decrypt_packet                    text62       0084A4
__end_of_loadNVM_VarSystem                                text73       0064E6
__end_of_load_New_Menu                                    text4        003FF8
__end_of_main                                             text0        005E72
__end_of_memcpy                                           text129      0088E8
__end_of_rd1RegCompleteHandler                            text170      008D86
__end_of_rd1RegCompleteHandler@i2c1_master_example$F500   text166      008D02
__end_of_rd2RegCompleteHandler                            text169      008D5A
__end_of_rd2RegCompleteHandler@i2c1_master_example$F511   text165      008CD6
__end_of_rdBlkRegCompleteHandler                          text167      0089EA
__end_of_rdBlkRegCompleteHandler@i2c1_master_example$F535 text163      0089AA
__end_of_readInputs                                       text72       006A58
__end_of_readRFButtons                                    text59       005B66
__end_of_read_eusartparser                                text81       002EB0
__end_of_read_package                                     text57       00869C
__end_of_readbutton                                       text56       008150
__end_of_refreshADCZeroOffset                             text121      006B56
__end_of_refreshCurrent                                   text117      008860
__end_of_refreshSegment                                   text185      0079D0
__end_of_rxi                                              text199      0044FA
__end_of_saveEnergyADCHist                                text120      008E5A
__end_of_saveNewSerial                                    text7        007F98
__end_of_setFlashLigth_ON                                 text114      008A66
__end_of_setPositionInvertionInClosing                    text37       00660E
__end_of_setPositionInvertionInOpening                    text28       006F10
__end_of_setRGB_ON                                        text112      00771C
__end_of_setValueToEdit                                   text3        0024A0
__end_of_sm_execute_ControlGate                           text20       0039DE
__end_of_sm_execute_ControlLearning                       text21       001F94
__end_of_sm_execute_main                                  text1        0029A8
__end_of_sm_execute_menuConfiguration                     text2        001886
__end_of_sm_get_current_state                             text48       0091C0
__end_of_sm_init                                          text23       0084FA
__end_of_sm_restart                                       text24       0088A4
__end_of_sm_send_event                                    text47       00833A
__end_of_sumEnergyADC                                     text119      007834
__end_of_sumHIST                                          text118      006D4C
__end_of_validateRemoteSerialNumber                       text71       00569C
__end_of_verifyProgramingMode                             text61       008B0C
__end_of_wr1RegCompleteHandler                            text171      008DB2
__end_of_wr1RegCompleteHandler@i2c1_master_example$F517   text164      008CAA
__end_of_wr2RegCompleteHandler                            text168      008D2E
__end_of_wr2RegCompleteHandler@i2c1_master_example$F523   text172      008DDE
__end_of_write_eusartparser                               text80       0032D4
__end_of_write_package                                    text82       008C26
__end_ofi2_GetMotorPower                                  text195      007168
__end_ofi2_VerifyElectricalBrake                          text194      007E3E
__initialization                                          cinit        007168
__mediumconst                                             mediumconst  000000
__pbssBANK0                                               bssBANK0     000060
__pbssBANK1                                               bssBANK1     000100
__pbssBANK2                                               bssBANK2     000200
__pbssBANK3                                               bssBANK3     000300
__pbssCOMRAM                                              bssCOMRAM    00003B
__pcinit                                                  cinit        007168
__pcstackBANK0                                            cstackBANK0  0000D8
__pcstackCOMRAM                                           cstackCOMRAM 000001
__pdataBANK0                                              dataBANK0    0000F8
__pdataBANK1                                              dataBANK1    0001F9
__pdataBANK2                                              dataBANK2    0002EF
__pdataBANK3                                              dataBANK3    0003D2
__pidataBANK0                                             idataBANK0   00934C
__pidataBANK1                                             idataBANK1   00931A
__pidataBANK2                                             idataBANK2   00934E
__pidataBANK3                                             idataBANK3   008EF2
__pintcode                                                intcode      000008
__pnvBANK1                                                nvBANK1      0001FE
__pnvBANK2                                                nvBANK2      0002DD
__psmallconst                                             smallconst   000F00
__ptext0                                                  text0        005CF0
__ptext1                                                  text1        0024A0
__ptext10                                                 text10       0075FA
__ptext100                                                text100      00919A
__ptext101                                                text101      007BDA
__ptext102                                                text102      00924A
__ptext103                                                text103      009254
__ptext104                                                text104      00925E
__ptext105                                                text105      009268
__ptext106                                                text106      009272
__ptext107                                                text107      00869C
__ptext108                                                text108      0091C0
__ptext109                                                text109      00474E
__ptext11                                                 text11       007B5A
__ptext110                                                text110      007D4E
__ptext111                                                text111      0039DE
__ptext112                                                text112      00768C
__ptext113                                                text113      0091E0
__ptext114                                                text114      008A2A
__ptext115                                                text115      00660E
__ptext116                                                text116      005E72
__ptext117                                                text117      00881A
__ptext118                                                text118      006C52
__ptext119                                                text119      0077A8
__ptext12                                                 text12       00721E
__ptext120                                                text120      008E32
__ptext121                                                text121      006A58
__ptext122                                                text122      0085FA
__ptext123                                                text123      00569C
__ptext124                                                text124      008EA6
__ptext125                                                text125      006FDC
__ptext126                                                text126      0083F2
__ptext127                                                text127      008AA0
__ptext128                                                text128      007EB4
__ptext129                                                text129      0088A4
__ptext13                                                 text13       008DDE
__ptext130                                                text130      0090FE
__ptext131                                                text131      007A54
__ptext132                                                text132      009116
__ptext133                                                text133      00929A
__ptext134                                                text134      008C52
__ptext135                                                text135      0091D0
__ptext136                                                text136      0092A2
__ptext137                                                text137      0085A6
__ptext138                                                text138      00873A
__ptext139                                                text139      00927C
__ptext14                                                 text14       0079D0
__ptext140                                                text140      0092AA
__ptext141                                                text141      0092B2
__ptext142                                                text142      0092BA
__ptext143                                                text143      0092C2
__ptext144                                                text144      0092CA
__ptext145                                                text145      0092D2
__ptext146                                                text146      0092DA
__ptext147                                                text147      009286
__ptext148                                                text148      007CD4
__ptext149                                                text149      007834
__ptext15                                                 text15       00904E
__ptext150                                                text150      0091EE
__ptext151                                                text151      0091FC
__ptext152                                                text152      009290
__ptext153                                                text153      008280
__ptext154                                                text154      0092F6
__ptext155                                                text155      00920A
__ptext156                                                text156      0092E2
__ptext157                                                text157      0092FC
__ptext158                                                text158      009328
__ptext159                                                text159      009302
__ptext16                                                 text16       0092F0
__ptext160                                                text160      00932C
__ptext161                                                text161      009330
__ptext162                                                text162      009334
__ptext163                                                text163      00896A
__ptext164                                                text164      008C7E
__ptext165                                                text165      008CAA
__ptext166                                                text166      008CD6
__ptext167                                                text167      0089AA
__ptext168                                                text168      008D02
__ptext169                                                text169      008D2E
__ptext17                                                 text17       008B70
__ptext170                                                text170      008D5A
__ptext171                                                text171      008D86
__ptext172                                                text172      008DB2
__ptext173                                                text173      00912E
__ptext174                                                text174      008076
__ptext175                                                text175      00909C
__ptext176                                                text176      009338
__ptext177                                                text177      00933C
__ptext178                                                text178      009340
__ptext179                                                text179      008F80
__ptext18                                                 text18       006B56
__ptext180                                                text180      009344
__ptext181                                                text181      009348
__ptext182                                                text182      009308
__ptext184                                                text184      00613C
__ptext185                                                text185      00794A
__ptext186                                                text186      009216
__ptext187                                                text187      005836
__ptext188                                                text188      008E08
__ptext189                                                text189      009350
__ptext19                                                 text19       007AD8
__ptext190                                                text190      008550
__ptext191                                                text191      00915C
__ptext192                                                text192      0089EA
__ptext193                                                text193      004998
__ptext194                                                text194      007DC6
__ptext195                                                text195      0070A2
__ptext196                                                text196      009018
__ptext197                                                text197      009352
__ptext198                                                text198      008ECC
__ptext199                                                text199      004284
__ptext2                                                  text2        000F22
__ptext20                                                 text20       003694
__ptext200                                                text200      009354
__ptext201                                                text201      008B3E
__ptext202                                                text202      0074C8
__ptext203                                                text203      00930E
__ptext204                                                text204      009356
__ptext205                                                text205      009314
__ptext206                                                text206      008FA2
__ptext207                                                text207      000000
__ptext21                                                 text21       001886
__ptext22                                                 text22       008150
__ptext23                                                 text23       0084A4
__ptext24                                                 text24       008860
__ptext25                                                 text25       007C58
__ptext26                                                 text26       00821E
__ptext27                                                 text27       0044FA
__ptext28                                                 text28       006E34
__ptext29                                                 text29       004BBA
__ptext3                                                  text3        001F94
__ptext30                                                 text30       006732
__ptext31                                                 text31       008788
__ptext32                                                 text32       0090B6
__ptext33                                                 text33       004DD8
__ptext34                                                 text34       008F18
__ptext35                                                 text35       008E5A
__ptext36                                                 text36       003FF8
__ptext37                                                 text37       0064E6
__ptext38                                                 text38       006D4C
__ptext39                                                 text39       0084FA
__ptext4                                                  text4        003D02
__ptext40                                                 text40       008FC4
__ptext41                                                 text41       00737C
__ptext42                                                 text42       0072D2
__ptext43                                                 text43       007F98
__ptext44                                                 text44       008E80
__ptext45                                                 text45       009068
__ptext46                                                 text46       008008
__ptext47                                                 text47       0082DE
__ptext48                                                 text48       0091AE
__ptext49                                                 text49       00833A
__ptext5                                                  text5        009034
__ptext50                                                 text50       009172
__ptext51                                                 text51       007422
__ptext52                                                 text52       008BCE
__ptext53                                                 text53       005198
__ptext54                                                 text54       008A66
__ptext55                                                 text55       009186
__ptext56                                                 text56       0080E4
__ptext57                                                 text57       00864C
__ptext58                                                 text58       0087D2
__ptext59                                                 text59       0059D0
__ptext6                                                  text6        0032D4
__ptext60                                                 text60       004FC6
__ptext61                                                 text61       008AD8
__ptext62                                                 text62       00844C
__ptext63                                                 text63       006842
__ptext64                                                 text64       008F3C
__ptext65                                                 text65       006F10
__ptext66                                                 text66       0078C0
__ptext67                                                 text67       00628A
__ptext68                                                 text68       0090CE
__ptext69                                                 text69       008B0C
__ptext7                                                  text7        007F28
__ptext70                                                 text70       00771C
__ptext71                                                 text71       005500
__ptext72                                                 text72       006950
__ptext73                                                 text73       0063B8
__ptext74                                                 text74       007E3E
__ptext75                                                 text75       005360
__ptext76                                                 text76       005B66
__ptext77                                                 text77       008396
__ptext78                                                 text78       0090E6
__ptext79                                                 text79       005FE6
__ptext8                                                  text8        0092EA
__ptext80                                                 text80       002EB0
__ptext81                                                 text81       0029A8
__ptext82                                                 text82       008BFA
__ptext83                                                 text83       00892A
__ptext84                                                 text84       008FE0
__ptext85                                                 text85       009320
__ptext86                                                 text86       0081B8
__ptext87                                                 text87       009082
__ptext88                                                 text88       008BA0
__ptext89                                                 text89       009222
__ptext9                                                  text9        0086EC
__ptext90                                                 text90       008C26
__ptext91                                                 text91       00922C
__ptext92                                                 text92       0088E8
__ptext93                                                 text93       009236
__ptext94                                                 text94       008F5E
__ptext95                                                 text95       009240
__ptext96                                                 text96       008FFC
__ptext97                                                 text97       007562
__ptext98                                                 text98       009146
__ptext99                                                 text99       009324
__ramtop                                                  ramtop       000F00
__smallconst                                              smallconst   000F00
_actionZone_Closed                                        text42       0072D2
_actionZone_Closing                                       text36       003FF8
_actionZone_Opened                                        text33       004DD8
_actionZone_Opening                                       text27       0044FA
_auxCounter                                               dataBANK0    0000F8
_aux_i                                                    bssBANK1     00018C
_aux_in_auto_close                                        bssBANK1     00018B
_brakeElectric_st                                         bssBANK0     000078
_button_struct                                            bssCOMRAM    00004C
_calculateMean                                            text26       00821E
_checkNVM_VarSystem                                       text75       005360
_classic_data                                             bssBANK2     000292
_clearLearningValue                                       text25       007C58
_cmdMemoryIsEmpty                                         text10       0075FA
_controlGate_stateMachine                                 bssBANK1     0001E2
_controlLearnDigit                                        text17       008B70
_controlLearning_stateMachine                             bssBANK2     0002B2
_controlMotorForce                                        text193      004998
_controlSaveRemote                                        text12       00721E
_controlSelectRemote                                      text6        0032D4
_controlTimeslots                                         text187      005836
_controlVelocity                                          text29       004BBA
_control_limit_switch                                     bssBANK0     000081
_decrementTimeslot                                        text188      008E08
_difTime                                                  bssBANK1     00018F
_dispStruct                                               bssBANK0     000072
_edit_Param                                               bssCOMRAM    000046
_erroranterior                                            bssBANK1     000189
_eusart1RxBuffer                                          bssBANK2     00027C
_eusart1RxCount                                           bssBANK0     000093
_eusart1RxHead                                            bssBANK0     000095
_eusart1RxLastError                                       bssBANK1     000199
_eusart1RxStatusBuffer                                    bssBANK2     000274
_eusart1RxTail                                            bssBANK0     000094
_eusart1TxBuffer                                          bssBANK2     000284
_eusart1TxBufferRemaining                                 nvBANK1      0001FE
_eusart1TxHead                                            bssBANK0     000097
_eusart1TxTail                                            bssBANK0     000096
_eusartparser                                             text79       005FE6
_fimdecurso                                               bssBANK1     000175
_firstselectflag                                          dataBANK1    0001FD
_fullmotorPower                                           bssBANK0     000082
_generateErrorLearnig                                     text22       008150
_getCurrentComparator                                     text123      00569C
_getHopCode                                               text67       00628A
_getKeyPressed                                            text78       0090E6
_getSerialCmd                                             text9        0086EC
_getStateOpenPosition                                     text30       006732
_getTimeDecelaration                                      text38       006D4C
_getTypeRemote                                            text8        0092EA
_i2c1_fsmStateTable                                       smallconst   000F01
_i2c_readDataBlock                                        text74       007E3E
_i2c_writeNBytes                                          text128      007EB4
_idxAdcAquisition                                         bssBANK0     000091
_idxAdcZeroAquisition                                     bssBANK0     00008F
_idxSaveEnergyADCHist                                     bssBANK0     000090
_keeloqDecryptPacket                                      text60       004FC6
_keeloq_classic_decrypt_packet                            text62       00844C
_lastKey                                                  bssBANK1     000194
_learn_st                                                 bssBANK0     000060
_listSyncValues                                           bssBANK3     000300
_loadNVM_VarSystem                                        text73       0063B8
_load_New_Menu                                            text4        003D02
_main                                                     text0        005CF0
_main_stateMachine                                        bssBANK1     0001ED
_memcpy                                                   text129      0088A4
_memoryTEMP                                               bssBANK2     0002A2
_menuConfiguration_stateMachine                           bssBANK2     0002BD
_menu_st                                                  bssBANK1     000151
_numberOfErrorCurrent                                     bssBANK0     00008E
_pointSync                                                bssBANK0     00007A
_powerControl_st                                          bssBANK1     00017B
_programmer_enable                                        bssBANK0     000085
_rd1RegCompleteHandler                                    text170      008D5A
_rd1RegCompleteHandler@i2c1_master_example$F500           text166      008CD6
_rd2RegCompleteHandler                                    text169      008D2E
_rd2RegCompleteHandler@i2c1_master_example$F511           text165      008CAA
_rdBlkRegCompleteHandler                                  text167      0089AA
_rdBlkRegCompleteHandler@i2c1_master_example$F535         text163      00896A
_readInputs                                               text72       006950
_readRFButtons                                            text59       0059D0
_read_eusartparser                                        text81       0029A8
_read_package                                             text57       00864C
_readbutton                                               text56       0080E4
_refreshADCZeroOffset                                     text121      006A58
_refreshCurrent                                           text117      00881A
_refreshSegment                                           text185      00794A
_rfCMD                                                    bssCOMRAM    00003B
_rxi                                                      text199      004284
_saveEnergyADCHist                                        text120      008E32
_saveNewSerial                                            text7        007F28
_security                                                 bssBANK1     00016A
_setFlashLigth_ON                                         text114      008A2A
_setPositionInvertionInClosing                            text37       0064E6
_setPositionInvertionInOpening                            text28       006E34
_setRGB_ON                                                text112      00768C
_setValueToEdit                                           text3        001F94
_sm_execute_ControlGate                                   text20       003694
_sm_execute_ControlLearning                               text21       001886
_sm_execute_main                                          text1        0024A0
_sm_execute_menuConfiguration                             text2        000F22
_sm_get_current_state                                     text48       0091AE
_sm_init                                                  text23       0084A4
_sm_restart                                               text24       008860
_sm_send_event                                            text47       0082DE
_stateMotor                                               bssBANK0     000083
_sumEnergyADC                                             text119      0077A8
_sumHIST                                                  text118      006C52
_temp                                                     bssBANK0     000080
_tempCounter                                              dataBANK1    0001F9
_temppower                                                bssBANK1     00018E
_timer0ReloadVal16bit                                     bssBANK2     000290
_timer1ReloadVal                                          nvBANK2      0002E1
_ts_system                                                bssBANK1     00019A
_validateRemoteSerialNumber                               text71       005500
_var_sys                                                  bssBANK1     000100
_var_sys_NVM                                              bssBANK0     000098
_verifyProgramingMode                                     text61       008AD8
_waitZeroPeak                                             bssBANK1     000191
_wr1RegCompleteHandler                                    text171      008D86
_wr1RegCompleteHandler@i2c1_master_example$F517           text164      008C7E
_wr2RegCompleteHandler                                    text168      008D02
_wr2RegCompleteHandler@i2c1_master_example$F523           text172      008DB2
_write_eusartparser                                       text80       002EB0
_write_package                                            text82       008BFA
_zeroCrossing                                             bssBANK1     000192
_zeroCrossingLength                                       bssBANK1     000193
_zeroCrossingWaitTime                                     dataBANK2    0002EF
_zeroCrossingWaitTimeIdx                                  bssBANK0     000084
actionZone_Closed@securityOpening                         cstackCOMRAM 000020
actionZone_Closed@typeOpenOrder                           cstackCOMRAM 000021
actionZone_Closing@securityClosing                        cstackCOMRAM 000032
actionZone_Closing@typeOpenOrder                          cstackCOMRAM 000033
actionZone_Opened@securityClosing                         cstackCOMRAM 000020
actionZone_Opened@typeOpenOrder                           cstackCOMRAM 000021
actionZone_Opening@securityClosing                        cstackBANK0  0000E4
actionZone_Opening@securityOpening                        cstackBANK0  0000E5
actionZone_Opening@typeOpenOrder                          cstackBANK0  0000E6
btemp                                                     temp         000050
calculateMean@meanValue                                   cstackCOMRAM 000010
calculateMean@newValue                                    cstackCOMRAM 000014
checkNVM_VarSystem@saveParam                              cstackCOMRAM 00003A
cmdMemoryIsEmpty@cmdType                                  cstackCOMRAM 000031
cmdMemoryIsEmpty@position                                 cstackCOMRAM 00002E
cmdMemoryIsEmpty@tempSerial                               cstackCOMRAM 000032
controlSelectRemote@pos                                   cstackBANK0  0000E2
controlSelectRemote@temp                                  cstackBANK0  0000E8
controlSelectRemote@tempSerial                            cstackBANK0  0000E4
controlSelectRemote@typeRemote                            cstackBANK0  0000E3
controlSelectRemote@validSerial                           cstackBANK0  0000E1
decrementTimeslot@ts                                      cstackCOMRAM 000001
end_of_initialization                                     cinit        007214
eusartparser@package                                      cstackCOMRAM 00003A
getCurrentComparator@tempOffset                           cstackCOMRAM 000020
getCurrentComparator@x                                    cstackCOMRAM 000022
getHopCode@data                                           cstackCOMRAM 000016
getHopCode@i                                              cstackCOMRAM 000023
getHopCode@tempHop                                        cstackCOMRAM 000020
getHopCode@tempPos                                        cstackCOMRAM 000022
getKeyPressed@temp                                        cstackCOMRAM 000010
getSerialCmd@serial                                       cstackCOMRAM 00001B
getSerialCmd@temp                                         cstackCOMRAM 00001C
getStateOpenPosition@state                                cstackBANK0  0000D8
getStateOpenPosition@stateMotor                           cstackBANK0  0000D9
getTimeDecelaration@state                                 cstackCOMRAM 000031
i2GetMotorPower@defineatraso                              cstackCOMRAM 000004
i2VerifyElectricalBrake@actualState                       cstackCOMRAM 000002
i2VerifyElectricalBrake@tempState                         cstackCOMRAM 000001
i2_GetMotorPower                                          text195      0070A2
i2_VerifyElectricalBrake                                  text194      007DC6
i2c_readDataBlock@address                                 cstackCOMRAM 000029
i2c_readDataBlock@d                                       cstackCOMRAM 00002A
i2c_readDataBlock@data                                    cstackCOMRAM 000024
i2c_readDataBlock@len                                     cstackCOMRAM 000026
i2c_readDataBlock@reg                                     cstackCOMRAM 000022
i2c_writeNBytes@address                                   cstackCOMRAM 000039
i2c_writeNBytes@dat                                       cstackCOMRAM 000028
i2c_writeNBytes@data                                      cstackCOMRAM 000024
i2c_writeNBytes@len                                       cstackCOMRAM 000025
i2c_writeNBytes@reg                                       cstackCOMRAM 000022
int$flags                                                 temp         000050
intlevel0                                                 text         000000
intlevel1                                                 text         000000
intlevel2                                                 text         000000
intlevel3                                                 text         000000
isa$std                                                   (abs)        000001
isa$xinst                                                 (abs)        000000
keeloqDecryptPacket@classic_data                          cstackBANK0  0000E2
keeloqDecryptPacket@commandType                           cstackBANK0  0000E9
keeloqDecryptPacket@data                                  cstackBANK0  0000E0
keeloqDecryptPacket@hop_error                             cstackBANK0  0000E8
keeloq_classic_decrypt_packet@data                        cstackCOMRAM 000038
load_New_Menu@Menu                                        cstackCOMRAM 000022
load_New_Menu@i                                           cstackCOMRAM 000023
main@package                                              cstackBANK0  0000F1
memcpy@d                                                  cstackCOMRAM 000017
memcpy@d1                                                 cstackCOMRAM 000010
memcpy@n                                                  cstackCOMRAM 000014
memcpy@s                                                  cstackCOMRAM 000019
memcpy@s1                                                 cstackCOMRAM 000012
memcpy@tmp                                                cstackCOMRAM 000016
rd1RegCompleteHandler@i2c1_master_example$F500@ptr        cstackCOMRAM 000019
rd1RegCompleteHandler@p                                   cstackCOMRAM 000019
rd2RegCompleteHandler@i2c1_master_example$F511@ptr        cstackCOMRAM 000019
rd2RegCompleteHandler@p                                   cstackCOMRAM 000019
rdBlkRegCompleteHandler@i2c1_master_example$F535@ptr      cstackCOMRAM 000019
rdBlkRegCompleteHandler@p                                 cstackCOMRAM 000019
readRFButtons@key1                                        bssBANK0     000088
readRFButtons@keyType                                     bssBANK0     000087
readRFButtons@rollingCode                                 bssBANK1     000185
readRFButtons@serial                                      bssBANK1     000181
readRFButtons@typeRemote                                  bssBANK1     000197
read_eusartparser@package                                 cstackCOMRAM 000018
read_package@package                                      cstackCOMRAM 000018
readbutton@key1                                           bssBANK0     000086
readbutton@key2                                           bssBANK1     000196
refreshADCZeroOffset@i                                    cstackCOMRAM 000017
refreshADCZeroOffset@media                                cstackCOMRAM 000018
saveEnergyADCHist@valueToSave                             cstackCOMRAM 000010
saveNewSerial@cmdType                                     cstackCOMRAM 00003A
saveNewSerial@position                                    cstackBANK0  0000DC
saveNewSerial@tempSerial                                  cstackBANK0  0000D8
setFlashLigth_ON@Freq                                     cstackCOMRAM 000010
setRGB_ON@Freq                                            cstackCOMRAM 000011
setRGB_ON@RGBLigth                                        cstackCOMRAM 000015
setValueToEdit@ParameterSelected                          cstackCOMRAM 00003A
setValueToEdit@haveValueToEdit                            cstackBANK0  0000E0
setValueToEdit@menuType                                   cstackBANK0  0000DE
setValueToEdit@posindex                                   cstackBANK0  0000DF
setValueToEdit@value                                      bssBANK1     0001F8
sm_execute_ControlGate@psm                                cstackBANK0  0000E7
sm_execute_ControlGate@typeOpenOrder                      cstackBANK0  0000EB
sm_execute_ControlLearning@psm                            cstackBANK0  0000DC
sm_execute_ControlLearning@typeOpenOrder                  cstackCOMRAM 00003A
sm_execute_main@psm                                       cstackBANK0  0000ED
sm_execute_menuConfiguration@psm                          cstackBANK0  0000E9
sm_get_current_state@psm                                  cstackCOMRAM 000010
sm_init@hist_mode                                         cstackCOMRAM 000016
sm_init@initial_state                                     cstackCOMRAM 000014
sm_init@psm                                               cstackCOMRAM 000012
sm_restart@psm                                            cstackCOMRAM 000010
sm_send_event@event                                       cstackCOMRAM 000014
sm_send_event@psm                                         cstackCOMRAM 000012
stackhi                                                   (abs)        000000
stacklo                                                   (abs)        000000
start                                                     init         00009C
start_initialization                                      cinit        007168
sumEnergyADC@auxValue                                     cstackCOMRAM 000016
sumEnergyADC@i                                            cstackCOMRAM 000018
sumEnergyADC@sumE                                         cstackCOMRAM 000014
sumHIST@i                                                 cstackCOMRAM 000020
sumHIST@max                                               cstackCOMRAM 000018
sumHIST@min                                               cstackCOMRAM 00001A
sumHIST@sumH                                              cstackCOMRAM 00001C
ttemp5                                                    temp         000051
ttemp6                                                    temp         000054
ttemp7                                                    temp         000058
validateRemoteSerialNumber@VerifyOnlySerial               cstackCOMRAM 000032
validateRemoteSerialNumber@i                              cstackCOMRAM 00003A
validateRemoteSerialNumber@j                              cstackCOMRAM 000039
validateRemoteSerialNumber@mask                           cstackCOMRAM 000035
validateRemoteSerialNumber@position                       cstackCOMRAM 000033
validateRemoteSerialNumber@serial                         cstackCOMRAM 00002E
verifyProgramingMode@classic_data                         cstackCOMRAM 000010
wr1RegCompleteHandler@i2c1_master_example$F517@ptr        cstackCOMRAM 000019
wr1RegCompleteHandler@p                                   cstackCOMRAM 000019
wr2RegCompleteHandler@i2c1_master_example$F523@ptr        cstackCOMRAM 000019
wr2RegCompleteHandler@p                                   cstackCOMRAM 000019
write_eusartparser@debug                                  cstackCOMRAM 00001F
write_eusartparser@debug2                                 cstackCOMRAM 000021
write_eusartparser@package                                cstackCOMRAM 000010
write_package@package                                     cstackCOMRAM 000011
wtemp8                                                    temp         000051


MODULE INFORMATION

Module		Function		Class		Link	Load	Size
controlMemory_MC50.c
		_SaveNVM_VarSystem		CODE           	8AA0	0000	56
		_validateRemoteSerialNumber		CODE           	5500	0000	412
		_checkNVM_VarSystem		CODE           	5360	0000	416
		_saveNewSerial 		CODE           	7F28	0000	112
		_ControlCounterMoves		CODE           	83F2	0000	90
		_ResetDefaultMemory		CODE           	5B66	0000	394
		_RemoveSerial  		CODE           	7B5A	0000	128
		_loadNVM_VarSystem		CODE           	63B8	0000	302
		_cmdMemoryIsEmpty		CODE           	75FA	0000	146

controlMemory_MC50.c estimated size: 2056

sm_ControlGate_MC50.c
		_setPositionInvertionInOpening		CODE           	6E34	0000	220
		_WaitPreFlash  		CODE           	7F98	0000	112
		_actionZone_Opened		CODE           	4DD8	0000	494
		_actionZone_Closed		CODE           	72D2	0000	170
		_InitFullAutoTime		CODE           	9068	0000	26
		_InitSoftStop  		CODE           	8788	0000	74
		_InitWalkAutoTime		CODE           	9172	0000	20
		_StopOrder     		CODE           	8FC4	0000	28
		_InitSoftStart 		CODE           	833A	0000	92
		_actionZone_Opening		CODE           	44FA	0000	596
		_actionZone_Closing		CODE           	3FF8	0000	652
		_VerifyFollowMe		CODE           	8F18	0000	36
		_sm_execute_ControlGate		CODE           	3694	0000	842
		_CloseOrder    		CODE           	8E5A	0000	38
		_setPositionInvertionInClosing		CODE           	64E6	0000	296
		_OpenFullOrder 		CODE           	8E80	0000	38
		_OpenWalkOrder 		CODE           	8008	0000	110

sm_ControlGate_MC50.c estimated size: 3844

mcc_generated_files/examples/i2c1_master_example.c
		_rdBlkRegCompleteHandler@i2c1_master_example$F535		CODE           	896A	0000	64
		_rd1RegCompleteHandler@i2c1_master_example$F500		CODE           	8CD6	0000	44
		_rd2RegCompleteHandler@i2c1_master_example$F511		CODE           	8CAA	0000	44
		_wr1RegCompleteHandler@i2c1_master_example$F517		CODE           	8C7E	0000	44
		_wr2RegCompleteHandler@i2c1_master_example$F523		CODE           	8DB2	0000	44
		_I2C1_Read1ByteRegister		CODE           	8396	0000	92

mcc_generated_files/examples/i2c1_master_example.c estimated size: 332

controlCurrent_MC50.c
		_refreshADCZeroOffset		CODE           	6A58	0000	254
		_getCurrentComparator		CODE           	569C	0000	410
		_ControlCurrent		CODE           	5E72	0000	372
		_refreshCurrent		CODE           	881A	0000	70
		_ReadADC       		CODE           	8550	0000	86
		_sumEnergyADC  		CODE           	77A8	0000	140
		_sumHIST       		CODE           	6C52	0000	250
		_saveEnergyADCHist		CODE           	8E32	0000	40

controlCurrent_MC50.c estimated size: 1622

sm_Main_MC50.c
		_sm_execute_main		CODE           	24A0	0000	1288

sm_Main_MC50.c estimated size: 1288

outputs_MC50.c
		_getTimeDecelaration		CODE           	6D4C	0000	232
		_Segments_Set  		CODE           	9216	0000	12
		_ControlMotor  		CODE           	474E	0000	586
		_SetSegmentValueMain		CODE           	904E	0000	26
		_GetMotorPower 		CODE           	6FDC	0000	198
		_ControlLights 		CODE           	39DE	0000	804
		_RGB_Set       		CODE           	91E0	0000	14
		_refreshSegment		CODE           	794A	0000	134
		_setFlashLigth_ON		CODE           	8A2A	0000	60
		_getStateOpenPosition		CODE           	6732	0000	272
		_controlMotorForce		CODE           	4998	0000	546
		_SetSegmentValueIntermitent		CODE           	8BCE	0000	44
		_SetSegmentValueLearn		CODE           	6B56	0000	252
		_SetSegmentValue		CODE           	9082	0000	26
		_VerifyElectricalBrake		CODE           	7D4E	0000	120
		_SetSegmentValueIntermitentMain		CODE           	9186	0000	20
		_setRGB_ON     		CODE           	768C	0000	144
		_controlVelocity		CODE           	4BBA	0000	542
		_ControlDecelarationFactor		CODE           	90B6	0000	24

outputs_MC50.c estimated size: 4056

mcc_generated_files/i2c1_master.c
		_I2C1_DO_SEND_RESTART		CODE           	92CA	0000	8
		_I2C1_DO_TX_EMPTY		CODE           	8280	0000	94
		_I2C1_DO_SEND_RESTART_READ		CODE           	92DA	0000	8
		_I2C1_CallbackReturnStop		CODE           	9334	0000	4
		_I2C1_DO_RX    		CODE           	7CD4	0000	122
		_I2C1_DO_TX    		CODE           	7834	0000	140
		_I2C1_SetAddressNackCallback		CODE           	90FE	0000	24
		_I2C1_DO_IDLE  		CODE           	9290	0000	10
		_I2C1_MasterOpen		CODE           	9116	0000	24
		_I2C1_DO_RCEN  		CODE           	9286	0000	10
		_I2C1_MasterSendTxData		CODE           	92E2	0000	8
		_I2C1_MasterStop		CODE           	9338	0000	4
		_I2C1_CallbackReturnReset		CODE           	9330	0000	4
		_I2C1_DO_RESET 		CODE           	927C	0000	10
		_I2C1_MasterStartRx		CODE           	932C	0000	4
		_I2C1_Poller   		CODE           	91D0	0000	16
		_I2C1_DO_RX_ACK		CODE           	92BA	0000	8
		_I2C1_MasterWaitForEvent		CODE           	92A2	0000	8
		_I2C1_MasterSendNack		CODE           	9302	0000	6
		_I2C1_DO_RX_NACK_RESTART		CODE           	92AA	0000	8
		_I2C1_MasterDisableIrq		CODE           	9344	0000	4
		_I2C1_MasterOperation		CODE           	8C52	0000	44
		_I2C1_SetCallback		CODE           	8076	0000	110
		_I2C1_MasterEnableRestart		CODE           	933C	0000	4
		_I2C1_Open     		CODE           	7A54	0000	132
		_I2C1_DO_ADDRESS_NACK		CODE           	873A	0000	78
		_I2C1_SetBuffer		CODE           	909C	0000	26
		_I2C1_DO_SEND_RESTART_WRITE		CODE           	92D2	0000	8
		_I2C1_MasterClose		CODE           	9348	0000	4
		_I2C1_MasterWrite		CODE           	929A	0000	8
		_I2C1_Initialize		CODE           	919A	0000	20
		_I2C1_Close    		CODE           	8F80	0000	34
		_I2C1_MasterIsNack		CODE           	920A	0000	12
		_I2C1_MasterStart		CODE           	9340	0000	4
		_I2C1_DO_SEND_ADR_WRITE		CODE           	91EE	0000	14
		_I2C1_MasterClearIrq		CODE           	9308	0000	6
		_I2C1_SetDataCompleteCallback		CODE           	912E	0000	24
		_I2C1_DO_SEND_STOP		CODE           	92C2	0000	8
		_I2C1_MasterSendAck		CODE           	92FC	0000	6
		_I2C1_MasterFsm		CODE           	85A6	0000	84
		_I2C1_MasterGetRxData		CODE           	9328	0000	4
		_I2C1_MasterSetIrq		CODE           	92F6	0000	6
		_I2C1_DO_SEND_ADR_READ		CODE           	91FC	0000	14
		_I2C1_DO_RX_NACK_STOP		CODE           	92B2	0000	8

mcc_generated_files/i2c1_master.c estimated size: 1182

eusartparser.c
		_read_eusartparser		CODE           	29A8	0000	1288
		_write_eusartparser		CODE           	2EB0	0000	1060
		_eusartparser  		CODE           	5FE6	0000	342

eusartparser.c estimated size: 2690

mcc_generated_files/tmr2.c
		_TMR2_ISR      		CODE           	613C	0000	334
		_TMR2_Initialize		CODE           	8C26	0000	44
		_TMR2_SetInterruptHandler		CODE           	922C	0000	10
		_TMR2_DefaultInterruptHandler		CODE           	9350	0000	2

mcc_generated_files/tmr2.c estimated size: 390

mcc_generated_files/interrupt_manager.c
		_INTERRUPT_Initialize		CODE           	9324	0000	4
		_INTERRUPT_InterruptManager		CODE           	0008	0000	148

mcc_generated_files/interrupt_manager.c estimated size: 152

C:\Program Files\Microchip\xc8\v2.36\pic\sources\c99\common\Umul32.c
		___lmul        		CODE           	84FA	0000	86

C:\Program Files\Microchip\xc8\v2.36\pic\sources\c99\common\Umul32.c estimated size: 86

inputs_MC50.c
		_ControlInputs 		CODE           	660E	0000	292
		_readbutton    		CODE           	80E4	0000	108
		_ClearFlag_rfCMD		CODE           	92F0	0000	6
		_getSerialCmd  		CODE           	86EC	0000	78
		_rxi           		CODE           	4284	0000	630
		_GetSecurityStateInClosing		CODE           	737C	0000	166
		_getTypeRemote 		CODE           	92EA	0000	6
		_GetOpenOrder  		CODE           	5198	0000	456
		_readInputs    		CODE           	6950	0000	264
		_InitReceiver  		CODE           	9034	0000	26
		_GetSecurityStateInOpening		CODE           	7422	0000	166
		_getKeyPressed 		CODE           	90E6	0000	24
		_readRFButtons 		CODE           	59D0	0000	406

inputs_MC50.c estimated size: 2628

mcc_generated_files/tmr0.c
		_TMR0_SetInterruptHandler		CODE           	9240	0000	10
		_TMR0_DefaultInterruptHandler		CODE           	9354	0000	2
		_TMR0_ISR      		CODE           	8ECC	0000	38
		_TMR0_Initialize		CODE           	8F5E	0000	34

mcc_generated_files/tmr0.c estimated size: 84

sm_MenuConfiguration_MC50.c
		_load_New_Menu 		CODE           	3D02	0000	758
		_sm_execute_menuConfiguration		CODE           	0F22	0000	2404
		_controlSelectRemote		CODE           	32D4	0000	960
		_setValueToEdit		CODE           	1F94	0000	1292
		_controlSaveRemote		CODE           	721E	0000	180
		_controlLearnDigit		CODE           	8B70	0000	48

sm_MenuConfiguration_MC50.c estimated size: 5642

mcc_generated_files/pin_manager.c
		_PIN_MANAGER_Initialize		CODE           	7562	0000	152

mcc_generated_files/pin_manager.c estimated size: 152

main_MC50.c
		_decrementTimeslot		CODE           	8E08	0000	42
		_ShowVersion   		CODE           	81B8	0000	102
		_main          		CODE           	5CF0	0000	386
		_controlTimeslots		CODE           	5836	0000	410

main_MC50.c estimated size: 940

C:\Program Files\Microchip\xc8\v2.36\pic\sources\c99\common\__lldiv.c
		___lldiv       		CODE           	7AD8	0000	130

C:\Program Files\Microchip\xc8\v2.36\pic\sources\c99\common\__lldiv.c estimated size: 130

mcc_generated_files/drivers/i2c_simple_master.c
		_i2c_readDataBlock		CODE           	7E3E	0000	118
		_wr1RegCompleteHandler		CODE           	8D86	0000	44
		_wr2RegCompleteHandler		CODE           	8D02	0000	44
		_i2c_writeNBytes		CODE           	7EB4	0000	116
		_rdBlkRegCompleteHandler		CODE           	89AA	0000	64
		_rd1RegCompleteHandler		CODE           	8D5A	0000	44
		_rd2RegCompleteHandler		CODE           	8D2E	0000	44

mcc_generated_files/drivers/i2c_simple_master.c estimated size: 474

C:\Program Files\Microchip\xc8\v2.36\pic\sources\c99\common\lwdiv.c
		___lwdiv       		CODE           	85FA	0000	82

C:\Program Files\Microchip\xc8\v2.36\pic\sources\c99\common\lwdiv.c estimated size: 82

C:\Program Files\Microchip\xc8\v2.36\pic\sources\c99\common\awdiv.c
		___awdiv       		CODE           	79D0	0000	132

C:\Program Files\Microchip\xc8\v2.36\pic\sources\c99\common\awdiv.c estimated size: 132

C:\Program Files\Microchip\xc8\v2.36\pic\sources\c99\common\lbmod.c
		___lbmod       		CODE           	8DDE	0000	42

C:\Program Files\Microchip\xc8\v2.36\pic\sources\c99\common\lbmod.c estimated size: 42

shared
		i2_VerifyElectricalBrake		CODE           	7DC6	0000	120
		__initialization		CODE           	7168	0000	172
		_i2c1_fsmStateTable		SMALLCONST     	0F01	0000	32
		i2_GetMotorPower		CODE           	70A2	0000	198

shared estimated size: 522

mcc_generated_files/eusart1.c
		_EUSART1_SetRxInterruptHandler		CODE           	9254	0000	10
		_EUSART1_SetTxInterruptHandler		CODE           	924A	0000	10
		_EUSART1_is_rx_ready		CODE           	91C0	0000	16
		_EUSART1_Initialize		CODE           	7BDA	0000	126
		_EUSART1_DefaultErrorHandler		CODE           	9314	0000	6
		_EUSART1_SetFramingErrorHandler		CODE           	9268	0000	10
		_EUSART1_Read  		CODE           	87D2	0000	72
		_EUSART1_SetOverrunErrorHandler		CODE           	925E	0000	10
		_EUSART1_SetErrorHandler		CODE           	9272	0000	10
		_EUSART1_Write 		CODE           	892A	0000	64
		_EUSART1_Receive_ISR		CODE           	74C8	0000	154
		_EUSART1_RxDataHandler		CODE           	8FA2	0000	34
		_EUSART1_DefaultOverrunErrorHandler		CODE           	930E	0000	6
		_EUSART1_Transmit_ISR		CODE           	8B3E	0000	50
		_EUSART1_DefaultFramingErrorHandler		CODE           	9356	0000	2

mcc_generated_files/eusart1.c estimated size: 580

mcc_generated_files/mcc.c
		_WWDT_TimerClear		CODE           	8FE0	0000	28
		_PMD_Initialize		CODE           	8FFC	0000	28
		_OSCILLATOR_Initialize		CODE           	9146	0000	22
		_SYSTEM_Initialize		CODE           	8BA0	0000	46
		_WWDT_Initialize		CODE           	9222	0000	10
		_WWDT_SoftEnable		CODE           	9320	0000	4

mcc_generated_files/mcc.c estimated size: 138

sm_common_MC50.c
		_sm_restart    		CODE           	8860	0000	68
		_sm_get_current_state		CODE           	91AE	0000	18
		_sm_init       		CODE           	84A4	0000	86
		_sm_send_event 		CODE           	82DE	0000	92

sm_common_MC50.c estimated size: 264

mcc_generated_files/tmr1.c
		_TMR1_Initialize		CODE           	88E8	0000	66
		_TMR1_SetInterruptHandler		CODE           	9236	0000	10
		_TMR1_DefaultInterruptHandler		CODE           	9352	0000	2
		_TMR1_WriteTimer		CODE           	9018	0000	28
		_TMR1_ISR      		CODE           	89EA	0000	64

mcc_generated_files/tmr1.c estimated size: 170

eusartpackage.c
		_write_package 		CODE           	8BFA	0000	44
		_read_package  		CODE           	864C	0000	80

eusartpackage.c estimated size: 124

keeloqDecrypt_MC50.c
		_NormalKeyGen  		CODE           	6842	0000	270
		_keeloqDecryptPacket		CODE           	4FC6	0000	466
		_DecCHK        		CODE           	8B0C	0000	50
		_Decrypt       		CODE           	6F10	0000	204
		_ReqResync     		CODE           	90CE	0000	24
		_getHopCode    		CODE           	628A	0000	302
		_LoadManufCode 		CODE           	8F3C	0000	34
		_keeloq_classic_decrypt_packet		CODE           	844C	0000	88
		_DecryptPacket_12BIT		CODE           	771C	0000	140
		_verifyProgramingMode		CODE           	8AD8	0000	52
		_HopCHK        		CODE           	78C0	0000	138

keeloqDecrypt_MC50.c estimated size: 1768

mcc_generated_files/adcc.c
		_ADCC_GetSingleConversion		CODE           	915C	0000	22
		_ADCC_Initialize		CODE           	869C	0000	80

mcc_generated_files/adcc.c estimated size: 102

C:\Program Files\Microchip\xc8\v2.36\pic\sources\c99\common\memcpy.c
		_memcpy        		CODE           	88A4	0000	68

C:\Program Files\Microchip\xc8\v2.36\pic\sources\c99\common\memcpy.c estimated size: 68

C:\Program Files\Microchip\xc8\v2.36\pic\sources\c99\common\Umul16.c
		___wmul        		CODE           	8EA6	0000	38

C:\Program Files\Microchip\xc8\v2.36\pic\sources\c99\common\Umul16.c estimated size: 38

C:\Program Files\Microchip\xc8\v2.36\pic\sources\c99\common\lbdiv.c
		___lbdiv       		CODE           	8A66	0000	58

C:\Program Files\Microchip\xc8\v2.36\pic\sources\c99\common\lbdiv.c estimated size: 58

sm_ControlLearning_MC50.c
		_sm_execute_ControlLearning		CODE           	1886	0000	1806
		_calculateMean 		CODE           	821E	0000	98
		_generateErrorLearnig		CODE           	8150	0000	104
		_clearLearningValue		CODE           	7C58	0000	124

sm_ControlLearning_MC50.c estimated size: 2132

